ARM GAS  C:\Users\scott\AppData\Local\Temp\ccZtjjlv.s 			page 1


   1              		.syntax unified
   2              		.cpu cortex-m3
   3              		.fpu softvfp
   4              		.eabi_attribute 20, 1
   5              		.eabi_attribute 21, 1
   6              		.eabi_attribute 23, 3
   7              		.eabi_attribute 24, 1
   8              		.eabi_attribute 25, 1
   9              		.eabi_attribute 26, 1
  10              		.eabi_attribute 30, 1
  11              		.eabi_attribute 34, 1
  12              		.eabi_attribute 18, 4
  13              		.thumb
  14              		.syntax unified
  15              		.file	"main.c"
  16              		.text
  17              	.Ltext0:
  18              		.cfi_sections	.debug_frame
  19              		.section	.text.Timer_ISR,"ax",%progbits
  20              		.align	2
  21              		.global	Timer_ISR
  22              		.thumb
  23              		.thumb_func
  24              		.type	Timer_ISR, %function
  25              	Timer_ISR:
  26              	.LFB64:
  27              		.file 1 "main.c"
   1:main.c        **** /* ========================================
   2:main.c        ****  *
   3:main.c        ****  * Copyright Park View Care Center, 2020
   4:main.c        ****  * All Rights Reserved
   5:main.c        ****  * UNPUBLISHED, LICENSED SOFTWARE.
   6:main.c        ****  *
   7:main.c        ****  * CONFIDENTIAL AND PROPRIETARY INFORMATION
   8:main.c        ****  * WHICH IS THE PROPERTY OF PVCC.
   9:main.c        ****  *
  10:main.c        ****  * ========================================
  11:main.c        **** */
  12:main.c        **** #include "project.h"
  13:main.c        **** #include <stdio.h>
  14:main.c        **** #include <stdlib.h>
  15:main.c        **** #include <math.h>
  16:main.c        **** #include <build_defs.h>
  17:main.c        **** #include <one_wire.h>
  18:main.c        **** #include <ds18b20.h>
  19:main.c        **** #include <max31855.h>
  20:main.c        **** #include <ModbusRtu.h>
  21:main.c        **** 
  22:main.c        **** #define MY_ID '0'
  23:main.c        **** #define TIME_BETWEEN_POLLING 295000
  24:main.c        **** // MODBUS_COUNT is the max number of modbus devices to poll
  25:main.c        **** #define MODBUS_COUNT 7
  26:main.c        **** #define MODBUS_BASE_ADDR 0x31
  27:main.c        **** 
  28:main.c        **** uint8_t wemos_buffer[256];
  29:main.c        **** uint8_t rs485_buffer[256];
  30:main.c        **** char myId;
ARM GAS  C:\Users\scott\AppData\Local\Temp\ccZtjjlv.s 			page 2


  31:main.c        **** uint8_t rx_timed_out;
  32:main.c        **** uint8_t slave_id;
  33:main.c        **** uint8_t wemos_pos = 0;    // where in the receive buffer are we?
  34:main.c        **** uint8_t rs485_pos;    // where in the receive buffer are we?
  35:main.c        **** uint8_t esc;        // flag to indicate whether an escape character was received
  36:main.c        **** uint32 Global_time; // constantly updated by the timer interrupt, used for exact delays
  37:main.c        **** uint16_t last_modbus_time;  // At what point in the seconds counter was the modbus read
  38:main.c        **** uint32 esc_time;    // used to help indicate how long an escape character is valid, compared to Glo
  39:main.c        **** char version[12];   // just used to hold to version date sent at boot time
  40:main.c        **** // data array for modbus network sharing
  41:main.c        **** uint16_t registers[MODBUS_COUNT][60];
  42:main.c        **** uint16_t last_registers[MODBUS_COUNT][60];
  43:main.c        **** uint8_t modbus_state;
  44:main.c        **** uint8_t modbus_slave;
  45:main.c        **** unsigned long modbus_wait;
  46:main.c        **** uint16_t temp_regs[40];
  47:main.c        **** float last_Adc_result[4] = {0,0,0,0}; // the last____ variables are to cut down on sending unchange
  48:main.c        **** float last31855[8] = {0,0,0,0,0,0,0,0};
  49:main.c        **** float lastDS18B20[10] = {0,0,0,0,0,0,0,0,0,0};
  50:main.c        **** uint8_t lastPins = 0;
  51:main.c        **** /**
  52:main.c        ****  * This is an structure which contains a query to an slave device
  53:main.c        ****  */
  54:main.c        **** modbus_t telegram;
  55:main.c        **** 
  56:main.c        **** #define millis() Global_time;
  57:main.c        **** void printBinary(uint8_t inByte, char *ts);
  58:main.c        **** 
  59:main.c        **** CY_ISR(Timer_ISR){  // interrupt routine to update the Global_time value
  28              		.loc 1 59 0
  29              		.cfi_startproc
  30              		@ args = 0, pretend = 0, frame = 0
  31              		@ frame_needed = 0, uses_anonymous_args = 0
  32 0000 08B5     		push	{r3, lr}
  33              		.cfi_def_cfa_offset 8
  34              		.cfi_offset 3, -8
  35              		.cfi_offset 14, -4
  60:main.c        ****     Global_time++;
  36              		.loc 1 60 0
  37 0002 034A     		ldr	r2, .L3
  38 0004 1368     		ldr	r3, [r2]
  39 0006 0133     		adds	r3, r3, #1
  40 0008 1360     		str	r3, [r2]
  61:main.c        ****     Timer_Int_ClearPending();
  41              		.loc 1 61 0
  42 000a FFF7FEFF 		bl	Timer_Int_ClearPending
  43              	.LVL0:
  44 000e 08BD     		pop	{r3, pc}
  45              	.L4:
  46              		.align	2
  47              	.L3:
  48 0010 00000000 		.word	Global_time
  49              		.cfi_endproc
  50              	.LFE64:
  51              		.size	Timer_ISR, .-Timer_ISR
  52              		.section	.text.Rx_Timer_ISR,"ax",%progbits
  53              		.align	2
ARM GAS  C:\Users\scott\AppData\Local\Temp\ccZtjjlv.s 			page 3


  54              		.global	Rx_Timer_ISR
  55              		.thumb
  56              		.thumb_func
  57              		.type	Rx_Timer_ISR, %function
  58              	Rx_Timer_ISR:
  59              	.LFB65:
  62:main.c        **** }
  63:main.c        **** CY_ISR(Rx_Timer_ISR)
  64:main.c        **** {
  60              		.loc 1 64 0
  61              		.cfi_startproc
  62              		@ args = 0, pretend = 0, frame = 0
  63              		@ frame_needed = 0, uses_anonymous_args = 0
  64 0000 08B5     		push	{r3, lr}
  65              		.cfi_def_cfa_offset 8
  66              		.cfi_offset 3, -8
  67              		.cfi_offset 14, -4
  65:main.c        ****   if (Rx_Timer_STATUS_TC & Rx_Timer_ReadStatusRegister())
  68              		.loc 1 65 0
  69 0002 FFF7FEFF 		bl	Rx_Timer_ReadStatusRegister
  70              	.LVL1:
  71 0006 10F0010F 		tst	r0, #1
  72 000a 02D0     		beq	.L6
  66:main.c        ****   {
  67:main.c        ****     rx_timed_out = 1;
  73              		.loc 1 67 0
  74 000c 0122     		movs	r2, #1
  75 000e 024B     		ldr	r3, .L8
  76 0010 1A70     		strb	r2, [r3]
  77              	.L6:
  68:main.c        ****   }
  69:main.c        ****   Rx_Timer_Int_ClearPending();
  78              		.loc 1 69 0
  79 0012 FFF7FEFF 		bl	Rx_Timer_Int_ClearPending
  80              	.LVL2:
  81 0016 08BD     		pop	{r3, pc}
  82              	.L9:
  83              		.align	2
  84              	.L8:
  85 0018 00000000 		.word	rx_timed_out
  86              		.cfi_endproc
  87              	.LFE65:
  88              		.size	Rx_Timer_ISR, .-Rx_Timer_ISR
  89              		.section	.text.Rx_ISR,"ax",%progbits
  90              		.align	2
  91              		.global	Rx_ISR
  92              		.thumb
  93              		.thumb_func
  94              		.type	Rx_ISR, %function
  95              	Rx_ISR:
  96              	.LFB66:
  70:main.c        **** }
  71:main.c        **** CY_ISR(Rx_ISR){     //ISR for 'On Byte Recd.'
  97              		.loc 1 71 0
  98              		.cfi_startproc
  99              		@ args = 0, pretend = 0, frame = 0
 100              		@ frame_needed = 0, uses_anonymous_args = 0
ARM GAS  C:\Users\scott\AppData\Local\Temp\ccZtjjlv.s 			page 4


 101 0000 08B5     		push	{r3, lr}
 102              		.cfi_def_cfa_offset 8
 103              		.cfi_offset 3, -8
 104              		.cfi_offset 14, -4
  72:main.c        **** 	uint16 GetB;    //16bit var for storing GetByte's return.
  73:main.c        **** 	RS485_ReadRxStatus();   //Read it to clear interrupts.
 105              		.loc 1 73 0
 106 0002 FFF7FEFF 		bl	RS485_ReadRxStatus
 107              	.LVL3:
  74:main.c        **** 	GetB=RS485_GetByte();   //MSB has RxStatus Reg,and LSB has the data.
 108              		.loc 1 74 0
 109 0006 FFF7FEFF 		bl	RS485_GetByte
 110              	.LVL4:
  75:main.c        ****   rs485_buffer[rs485_pos++] = (GetB & 0xff);  // put the character in the buffer
 111              		.loc 1 75 0
 112 000a 0849     		ldr	r1, .L13
 113 000c 0A78     		ldrb	r2, [r1]	@ zero_extendqisi2
 114 000e 531C     		adds	r3, r2, #1
 115 0010 DBB2     		uxtb	r3, r3
 116 0012 0B70     		strb	r3, [r1]
 117 0014 0649     		ldr	r1, .L13+4
 118 0016 8854     		strb	r0, [r1, r2]
  76:main.c        ****   if (rs485_pos > 254)
 119              		.loc 1 76 0
 120 0018 FF2B     		cmp	r3, #255
 121 001a 02D1     		bne	.L11
  77:main.c        ****       rs485_pos = 254;
 122              		.loc 1 77 0
 123 001c FE22     		movs	r2, #254
 124 001e 034B     		ldr	r3, .L13
 125 0020 1A70     		strb	r2, [r3]
 126              	.L11:
  78:main.c        ****   Rx_Timer_Stop();
 127              		.loc 1 78 0
 128 0022 FFF7FEFF 		bl	Rx_Timer_Stop
 129              	.LVL5:
  79:main.c        ****   Rx_Timer_Start();
 130              		.loc 1 79 0
 131 0026 FFF7FEFF 		bl	Rx_Timer_Start
 132              	.LVL6:
 133 002a 08BD     		pop	{r3, pc}
 134              	.L14:
 135              		.align	2
 136              	.L13:
 137 002c 00000000 		.word	rs485_pos
 138 0030 00000000 		.word	rs485_buffer
 139              		.cfi_endproc
 140              	.LFE66:
 141              		.size	Rx_ISR, .-Rx_ISR
 142              		.section	.text.Wemos_Rx_ISR,"ax",%progbits
 143              		.align	2
 144              		.global	Wemos_Rx_ISR
 145              		.thumb
 146              		.thumb_func
 147              		.type	Wemos_Rx_ISR, %function
 148              	Wemos_Rx_ISR:
 149              	.LFB67:
ARM GAS  C:\Users\scott\AppData\Local\Temp\ccZtjjlv.s 			page 5


  80:main.c        **** }
  81:main.c        **** CY_ISR(Wemos_Rx_ISR){     //ISR for 'On Byte Recd.'
 150              		.loc 1 81 0
 151              		.cfi_startproc
 152              		@ args = 0, pretend = 0, frame = 0
 153              		@ frame_needed = 0, uses_anonymous_args = 0
 154 0000 08B5     		push	{r3, lr}
 155              		.cfi_def_cfa_offset 8
 156              		.cfi_offset 3, -8
 157              		.cfi_offset 14, -4
  82:main.c        **** 	uint16 GetB;    //16bit var for storing GetByte's return.
  83:main.c        **** 	Wemos_ReadRxStatus();   //Read it to clear interrupts.
 158              		.loc 1 83 0
 159 0002 FFF7FEFF 		bl	Wemos_ReadRxStatus
 160              	.LVL7:
  84:main.c        **** 	GetB=Wemos_GetByte();   //MSB has RxStatus Reg,and LSB has the data.
 161              		.loc 1 84 0
 162 0006 FFF7FEFF 		bl	Wemos_GetByte
 163              	.LVL8:
  85:main.c        ****   if((GetB & 0xff)==0x1b)
 164              		.loc 1 85 0
 165 000a C3B2     		uxtb	r3, r0
 166 000c 1B2B     		cmp	r3, #27
 167 000e 0DD1     		bne	.L16
  86:main.c        ****   {    // did an escape character get received?
  87:main.c        ****     LED_Write(1);
 168              		.loc 1 87 0
 169 0010 0120     		movs	r0, #1
 170              	.LVL9:
 171 0012 FFF7FEFF 		bl	LED_Write
 172              	.LVL10:
  88:main.c        **** 		esc=1;              // set the flag
 173              		.loc 1 88 0
 174 0016 0122     		movs	r2, #1
 175 0018 0C4B     		ldr	r3, .L19
 176 001a 1A70     		strb	r2, [r3]
  89:main.c        **** 		wemos_pos=0;          // prepare for the next character
 177              		.loc 1 89 0
 178 001c 0022     		movs	r2, #0
 179 001e 0C4B     		ldr	r3, .L19+4
 180 0020 1A70     		strb	r2, [r3]
  90:main.c        **** 		esc_time = Global_time; // record when the escape was received
 181              		.loc 1 90 0
 182 0022 0C4B     		ldr	r3, .L19+8
 183 0024 1A68     		ldr	r2, [r3]
 184 0026 0C4B     		ldr	r3, .L19+12
 185 0028 1A60     		str	r2, [r3]
 186 002a 08BD     		pop	{r3, pc}
 187              	.LVL11:
 188              	.L16:
  91:main.c        **** 	}
  92:main.c        ****   else if (esc)   // had an escape character already been received?
 189              		.loc 1 92 0
 190 002c 074B     		ldr	r3, .L19
 191 002e 1B78     		ldrb	r3, [r3]	@ zero_extendqisi2
 192 0030 5BB1     		cbz	r3, .L15
  93:main.c        ****   {
ARM GAS  C:\Users\scott\AppData\Local\Temp\ccZtjjlv.s 			page 6


  94:main.c        ****     wemos_buffer[wemos_pos++] = (GetB & 0xff);  // put the character in the buffer
 193              		.loc 1 94 0
 194 0032 0749     		ldr	r1, .L19+4
 195 0034 0A78     		ldrb	r2, [r1]	@ zero_extendqisi2
 196 0036 531C     		adds	r3, r2, #1
 197 0038 DBB2     		uxtb	r3, r3
 198 003a 0B70     		strb	r3, [r1]
 199 003c 0749     		ldr	r1, .L19+16
 200 003e 8854     		strb	r0, [r1, r2]
  95:main.c        ****     if (wemos_pos > 100)
 201              		.loc 1 95 0
 202 0040 642B     		cmp	r3, #100
 203 0042 02D9     		bls	.L15
  96:main.c        ****         wemos_pos = 0;
 204              		.loc 1 96 0
 205 0044 0022     		movs	r2, #0
 206 0046 024B     		ldr	r3, .L19+4
 207 0048 1A70     		strb	r2, [r3]
 208              	.L15:
 209 004a 08BD     		pop	{r3, pc}
 210              	.L20:
 211              		.align	2
 212              	.L19:
 213 004c 00000000 		.word	esc
 214 0050 00000000 		.word	.LANCHOR0
 215 0054 00000000 		.word	Global_time
 216 0058 00000000 		.word	esc_time
 217 005c 00000000 		.word	wemos_buffer
 218              		.cfi_endproc
 219              	.LFE67:
 220              		.size	Wemos_Rx_ISR, .-Wemos_Rx_ISR
 221              		.global	__aeabi_fsub
 222              		.global	__aeabi_fcmpgt
 223              		.global	__aeabi_fadd
 224              		.section	.text.checkDiff,"ax",%progbits
 225              		.align	2
 226              		.global	checkDiff
 227              		.thumb
 228              		.thumb_func
 229              		.type	checkDiff, %function
 230              	checkDiff:
 231              	.LFB68:
  97:main.c        ****   }
  98:main.c        **** }
  99:main.c        **** //========================================================================================
 100:main.c        **** // This simple function compares two values to see if they are different by more than maxDiff
 101:main.c        **** //========================================================================================
 102:main.c        **** _Bool checkDiff(float newValue, float prevValue, float maxDiff)
 103:main.c        **** {
 232              		.loc 1 103 0
 233              		.cfi_startproc
 234              		@ args = 0, pretend = 0, frame = 0
 235              		@ frame_needed = 0, uses_anonymous_args = 0
 236              	.LVL12:
 237 0000 70B5     		push	{r4, r5, r6, lr}
 238              		.cfi_def_cfa_offset 16
 239              		.cfi_offset 4, -16
ARM GAS  C:\Users\scott\AppData\Local\Temp\ccZtjjlv.s 			page 7


 240              		.cfi_offset 5, -12
 241              		.cfi_offset 6, -8
 242              		.cfi_offset 14, -4
 243 0002 0446     		mov	r4, r0
 244 0004 0D46     		mov	r5, r1
 245 0006 1646     		mov	r6, r2
 104:main.c        ****   return (newValue < prevValue - maxDiff || newValue > prevValue + maxDiff);
 246              		.loc 1 104 0
 247 0008 1146     		mov	r1, r2
 248              	.LVL13:
 249 000a 2846     		mov	r0, r5
 250              	.LVL14:
 251 000c FFF7FEFF 		bl	__aeabi_fsub
 252              	.LVL15:
 253 0010 2146     		mov	r1, r4
 254 0012 FFF7FEFF 		bl	__aeabi_fcmpgt
 255              	.LVL16:
 256 0016 50B9     		cbnz	r0, .L24
 257              		.loc 1 104 0 is_stmt 0 discriminator 2
 258 0018 3146     		mov	r1, r6
 259 001a 2846     		mov	r0, r5
 260 001c FFF7FEFF 		bl	__aeabi_fadd
 261              	.LVL17:
 262 0020 0146     		mov	r1, r0
 263 0022 2046     		mov	r0, r4
 264 0024 FFF7FEFF 		bl	__aeabi_fcmpgt
 265              	.LVL18:
 266 0028 18B1     		cbz	r0, .L27
 267              		.loc 1 104 0
 268 002a 0120     		movs	r0, #1
 269 002c 70BD     		pop	{r4, r5, r6, pc}
 270              	.LVL19:
 271              	.L24:
 272 002e 0120     		movs	r0, #1
 273 0030 70BD     		pop	{r4, r5, r6, pc}
 274              	.LVL20:
 275              	.L27:
 276 0032 0020     		movs	r0, #0
 105:main.c        **** }
 277              		.loc 1 105 0 is_stmt 1
 278 0034 70BD     		pop	{r4, r5, r6, pc}
 279              		.cfi_endproc
 280              	.LFE68:
 281              		.size	checkDiff, .-checkDiff
 282 0036 00BF     		.section	.text.printBinary,"ax",%progbits
 283              		.align	2
 284              		.global	printBinary
 285              		.thumb
 286              		.thumb_func
 287              		.type	printBinary, %function
 288              	printBinary:
 289              	.LFB70:
 106:main.c        **** //========================================================================================
 107:main.c        **** /*
 108:main.c        ****  * Register mapping is
 109:main.c        ****  *  0-3 DS18B20 Temp is degrees Centigrade times 100 in the first register, then 6 address bytes in
 110:main.c        ****  *  4-7 The second DS18B20 that was found (if any)
ARM GAS  C:\Users\scott\AppData\Local\Temp\ccZtjjlv.s 			page 8


 111:main.c        ****  *  8-11 The third DS18B20
 112:main.c        ****  *  12-15 The fourth DS18B20
 113:main.c        ****  *  16-20 The fifth DS18B20
 114:main.c        ****  *  21-23 The sixth, and last DS18B20 found
 115:main.c        ****  *  24 Version number of this program for diagnostics
 116:main.c        ****  *  25 How many seconds have passed since the last sensor readings AKA how out of date are the hold
 117:main.c        ****  *  26 The humidity as read by the HTU21D, times 10 to avoid floating points
 118:main.c        ****  *  27 The compensated humidity from the HTU21D, also times 10
 119:main.c        ****  *  28 The temperature in degrees centigrade from the HTU21D, times 100 to avoid floats
 120:main.c        ****  *  29 If there is a PCF8574, then this register has its value.  Otherwise it is unused.
 121:main.c        ****  *  30 Sent from the master, if non-zero the time is updated.  Set to 0 by this device after the ti
 122:main.c        ****  *  31-36 The time of day with the registers broken down to century, month, day, hour, minute and s
 123:main.c        ****  *  37-40 Available
 124:main.c        ****  */
 125:main.c        **** //========================================================================================
 126:main.c        **** void process_holding_registers(_Bool force)
 127:main.c        **** {
 128:main.c        ****   char temp_message[128];
 129:main.c        ****   char ts[9];
 130:main.c        ****   uint8_t i,j,k;    // It's amazing how the variables from fortran just hang around...
 131:main.c        ****   uint16_t modbus_staleness;
 132:main.c        ****   float newTemp;
 133:main.c        **** 
 134:main.c        ****   CyDelay(250);   // provides times for communications to settle
 135:main.c        ****   // Note that modbus doesn't really handle negative values that well.  Everything is a positive in
 136:main.c        ****   for (j = 0; j < MODBUS_COUNT; j++)  // for each unit that is polled we check the registers
 137:main.c        ****   {
 138:main.c        ****     k = 0;
 139:main.c        ****     for (i = 0; i < 30; i++)
 140:main.c        ****       if (registers[j][i] > 0)
 141:main.c        ****         k = 1;    // all k does is indicate that there is a value other than 0 in one of the fields
 142:main.c        ****     if (k)  // we got something from a device cause not everything is 0
 143:main.c        ****     {
 144:main.c        ****       modbus_staleness = (Global_time / 1000) - last_modbus_time + registers[j][25]; // get the rea
 145:main.c        ****       for (i = 0; i < 6; i++)  // there are up to six ds18b20s on each remote device
 146:main.c        ****       {
 147:main.c        ****         if (registers[j][i*4] > 0)  // If this DS18B20 has a temperature that isn't 0, then queue i
 148:main.c        ****         {
 149:main.c        ****           newTemp = registers[j][i * 4] / 100.0;
 150:main.c        ****           if (force || checkDiff(newTemp, last_registers[j][i * 4] / 100.0, 0.55))  // only update 
 151:main.c        ****           {
 152:main.c        ****             last_registers[j][i * 4] = registers[j][i * 4];
 153:main.c        ****             CyDelay(25);
 154:main.c        ****             sprintf(temp_message, "T|%03d|%06.2f|%04x%04x%04x|%c|%c\r\n", modbus_staleness,newTemp,
 155:main.c        ****             Wemos_PutString(temp_message);  // send to mqtt after queuing
 156:main.c        ****           }
 157:main.c        ****         }
 158:main.c        ****       }
 159:main.c        **** 
 160:main.c        ****       // now pull the humidity readings from the HTU21D sensor on each remote device
 161:main.c        ****       if (registers[j][28] > 0)
 162:main.c        ****       {
 163:main.c        ****         newTemp = registers[j][28] / 100.0;
 164:main.c        ****         if (force || checkDiff(newTemp, last_registers[j][28] / 100.0, 0.55) ||
 165:main.c        ****             checkDiff(registers[j][26] / 10.0, last_registers[j][26] / 10.0, 0.55) ||
 166:main.c        ****             checkDiff(registers[j][27] / 10.0, last_registers[j][27] / 10.0, 0.55)) // only update 
 167:main.c        ****         {
ARM GAS  C:\Users\scott\AppData\Local\Temp\ccZtjjlv.s 			page 9


 168:main.c        ****           last_registers[j][26] = registers[j][26];
 169:main.c        ****           last_registers[j][27] = registers[j][27];
 170:main.c        ****           last_registers[j][28] = registers[j][28];
 171:main.c        ****           CyDelay(100);
 172:main.c        ****           sprintf(temp_message, "H|%03d|%06.2f|%05.2f|%05.2f|%c|%c\r\n", modbus_staleness,newTemp,r
 173:main.c        ****           Wemos_PutString(temp_message);  // send to mqtt later
 174:main.c        ****         }
 175:main.c        ****       }
 176:main.c        **** 
 177:main.c        ****       // now pull the PCF8574 readings from the remote device
 178:main.c        ****       if (registers[j][29] > 0)
 179:main.c        ****       {
 180:main.c        ****         if (force || registers[j][29] != last_registers[j][29])
 181:main.c        ****         {
 182:main.c        ****           last_registers[j][29] = registers[j][29];
 183:main.c        ****           printBinary((uint8_t)(registers[j][29] & 0xff), ts);
 184:main.c        ****           sprintf(temp_message, "P|%03d|%s|%c|%c\r\n", modbus_staleness,ts,MODBUS_BASE_ADDR + j,myI
 185:main.c        ****           CyDelay(20);
 186:main.c        ****           Wemos_PutString(temp_message);  // send to mqtt later
 187:main.c        ****         }
 188:main.c        ****       }
 189:main.c        **** 
 190:main.c        ****     }
 191:main.c        ****   }
 192:main.c        ****   // ------ End of processing the holding registers
 193:main.c        **** 
 194:main.c        **** }
 195:main.c        **** //========================================================================================
 196:main.c        **** //========================================================================================
 197:main.c        **** void printBinary(uint8_t inByte, char *ts)
 198:main.c        **** {
 290              		.loc 1 198 0
 291              		.cfi_startproc
 292              		@ args = 0, pretend = 0, frame = 0
 293              		@ frame_needed = 0, uses_anonymous_args = 0
 294              		@ link register save eliminated.
 295              	.LVL21:
 296              	.LBB2:
 199:main.c        ****   for (int b = 7; b >= 0; b--)
 297              		.loc 1 199 0
 298 0000 0723     		movs	r3, #7
 299 0002 0CE0     		b	.L30
 300              	.LVL22:
 301              	.L33:
 200:main.c        ****   {
 201:main.c        ****     if (bitRead(inByte, b))
 302              		.loc 1 201 0
 303 0004 40FA03F2 		asr	r2, r0, r3
 304 0008 12F0010F 		tst	r2, #1
 305 000c 03D0     		beq	.L31
 202:main.c        ****     {
 203:main.c        ****       *ts = '0';
 306              		.loc 1 203 0
 307 000e 3022     		movs	r2, #48
 308 0010 01F8012B 		strb	r2, [r1], #1
 309              	.LVL23:
 310 0014 02E0     		b	.L32
ARM GAS  C:\Users\scott\AppData\Local\Temp\ccZtjjlv.s 			page 10


 311              	.L31:
 204:main.c        ****       ts++;
 205:main.c        ****     }
 206:main.c        ****     else
 207:main.c        ****     {
 208:main.c        ****       *ts = '1';
 312              		.loc 1 208 0
 313 0016 3122     		movs	r2, #49
 314 0018 01F8012B 		strb	r2, [r1], #1
 315              	.LVL24:
 316              	.L32:
 199:main.c        ****   {
 317              		.loc 1 199 0 discriminator 2
 318 001c 013B     		subs	r3, r3, #1
 319              	.LVL25:
 320              	.L30:
 199:main.c        ****   {
 321              		.loc 1 199 0 is_stmt 0 discriminator 1
 322 001e 002B     		cmp	r3, #0
 323 0020 F0DA     		bge	.L33
 324              	.LBE2:
 209:main.c        ****       ts++;
 210:main.c        ****     }
 211:main.c        ****   }
 212:main.c        ****   *ts = 0; // terminating null
 325              		.loc 1 212 0 is_stmt 1
 326 0022 0023     		movs	r3, #0
 327              	.LVL26:
 328 0024 0B70     		strb	r3, [r1]
 329 0026 7047     		bx	lr
 330              		.cfi_endproc
 331              	.LFE70:
 332              		.size	printBinary, .-printBinary
 333              		.global	__aeabi_i2d
 334              		.global	__aeabi_ddiv
 335              		.global	__aeabi_d2f
 336              		.global	__aeabi_f2d
 337              		.section	.text.process_holding_registers,"ax",%progbits
 338              		.align	2
 339              		.global	process_holding_registers
 340              		.thumb
 341              		.thumb_func
 342              		.type	process_holding_registers, %function
 343              	process_holding_registers:
 344              	.LFB69:
 127:main.c        ****   char temp_message[128];
 345              		.loc 1 127 0
 346              		.cfi_startproc
 347              		@ args = 0, pretend = 0, frame = 152
 348              		@ frame_needed = 0, uses_anonymous_args = 0
 349              	.LVL27:
 350 0000 2DE9F04F 		push	{r4, r5, r6, r7, r8, r9, r10, fp, lr}
 351              		.cfi_def_cfa_offset 36
 352              		.cfi_offset 4, -36
 353              		.cfi_offset 5, -32
 354              		.cfi_offset 6, -28
 355              		.cfi_offset 7, -24
ARM GAS  C:\Users\scott\AppData\Local\Temp\ccZtjjlv.s 			page 11


 356              		.cfi_offset 8, -20
 357              		.cfi_offset 9, -16
 358              		.cfi_offset 10, -12
 359              		.cfi_offset 11, -8
 360              		.cfi_offset 14, -4
 361 0004 AFB0     		sub	sp, sp, #188
 362              		.cfi_def_cfa_offset 224
 363 0006 8346     		mov	fp, r0
 134:main.c        ****   // Note that modbus doesn't really handle negative values that well.  Everything is a positive in
 364              		.loc 1 134 0
 365 0008 FA20     		movs	r0, #250
 366              	.LVL28:
 367 000a FFF7FEFF 		bl	CyDelay
 368              	.LVL29:
 136:main.c        ****   {
 369              		.loc 1 136 0
 370 000e 0024     		movs	r4, #0
 371 0010 7DE1     		b	.L35
 372              	.LVL30:
 373              	.L37:
 140:main.c        ****         k = 1;    // all k does is indicate that there is a value other than 0 in one of the fields
 374              		.loc 1 140 0
 375 0012 C4EB0411 		rsb	r1, r4, r4, lsl #4
 376 0016 8A00     		lsls	r2, r1, #2
 377 0018 1A44     		add	r2, r2, r3
 378 001a 1249     		ldr	r1, .L50
 379 001c 31F81220 		ldrh	r2, [r1, r2, lsl #1]
 380 0020 02B1     		cbz	r2, .L36
 141:main.c        ****     if (k)  // we got something from a device cause not everything is 0
 381              		.loc 1 141 0
 382 0022 0120     		movs	r0, #1
 383              	.LVL31:
 384              	.L36:
 139:main.c        ****       if (registers[j][i] > 0)
 385              		.loc 1 139 0 discriminator 2
 386 0024 0133     		adds	r3, r3, #1
 387              	.LVL32:
 388 0026 DBB2     		uxtb	r3, r3
 389              	.LVL33:
 390 0028 01E0     		b	.L46
 391              	.LVL34:
 392              	.L48:
 393 002a 0020     		movs	r0, #0
 394 002c 0346     		mov	r3, r0
 395              	.L46:
 396              	.LVL35:
 139:main.c        ****       if (registers[j][i] > 0)
 397              		.loc 1 139 0 is_stmt 0 discriminator 1
 398 002e 1D2B     		cmp	r3, #29
 399 0030 EFD9     		bls	.L37
 142:main.c        ****     {
 400              		.loc 1 142 0 is_stmt 1
 401 0032 0028     		cmp	r0, #0
 402 0034 00F06981 		beq	.L38
 144:main.c        ****       for (i = 0; i < 6; i++)  // there are up to six ds18b20s on each remote device
 403              		.loc 1 144 0
 404 0038 0B4B     		ldr	r3, .L50+4
ARM GAS  C:\Users\scott\AppData\Local\Temp\ccZtjjlv.s 			page 12


 405              	.LVL36:
 406 003a 1B68     		ldr	r3, [r3]
 407 003c 0B4A     		ldr	r2, .L50+8
 408 003e A2FB0323 		umull	r2, r3, r2, r3
 409 0042 2546     		mov	r5, r4
 410 0044 C4EB0411 		rsb	r1, r4, r4, lsl #4
 411 0048 CA00     		lsls	r2, r1, #3
 412 004a 0649     		ldr	r1, .L50
 413 004c 0A44     		add	r2, r2, r1
 414 004e 518E     		ldrh	r1, [r2, #50]
 415 0050 074A     		ldr	r2, .L50+12
 416 0052 1288     		ldrh	r2, [r2]
 417 0054 C2EB9313 		rsb	r3, r2, r3, lsr #6
 418 0058 0B44     		add	r3, r3, r1
 419 005a 1FFA83FA 		uxth	r10, r3
 420              	.LVL37:
 145:main.c        ****       {
 421              		.loc 1 145 0
 422 005e 0026     		movs	r6, #0
 423 0060 6CE0     		b	.L39
 424              	.L51:
 425 0062 00BF     		.align	2
 426              	.L50:
 427 0064 00000000 		.word	registers
 428 0068 00000000 		.word	Global_time
 429 006c D34D6210 		.word	274877907
 430 0070 00000000 		.word	last_modbus_time
 431              	.LVL38:
 432              	.L42:
 147:main.c        ****         {
 433              		.loc 1 147 0
 434 0074 B700     		lsls	r7, r6, #2
 435 0076 C5EB0512 		rsb	r2, r5, r5, lsl #4
 436 007a 9300     		lsls	r3, r2, #2
 437 007c 3B44     		add	r3, r3, r7
 438 007e A74A     		ldr	r2, .L52
 439 0080 32F81380 		ldrh	r8, [r2, r3, lsl #1]
 440 0084 B8F1000F 		cmp	r8, #0
 441 0088 56D0     		beq	.L40
 149:main.c        ****           if (force || checkDiff(newTemp, last_registers[j][i * 4] / 100.0, 0.55))  // only update 
 442              		.loc 1 149 0
 443 008a 4046     		mov	r0, r8
 444 008c FFF7FEFF 		bl	__aeabi_i2d
 445              	.LVL39:
 446 0090 0022     		movs	r2, #0
 447 0092 A34B     		ldr	r3, .L52+4
 448 0094 FFF7FEFF 		bl	__aeabi_ddiv
 449              	.LVL40:
 450 0098 FFF7FEFF 		bl	__aeabi_d2f
 451              	.LVL41:
 452 009c 8146     		mov	r9, r0
 453 009e 0890     		str	r0, [sp, #32]	@ float
 454              	.LVL42:
 150:main.c        ****           {
 455              		.loc 1 150 0
 456 00a0 BBF1000F 		cmp	fp, #0
 457 00a4 15D1     		bne	.L41
ARM GAS  C:\Users\scott\AppData\Local\Temp\ccZtjjlv.s 			page 13


 150:main.c        ****           {
 458              		.loc 1 150 0 is_stmt 0 discriminator 1
 459 00a6 C5EB0512 		rsb	r2, r5, r5, lsl #4
 460 00aa 9300     		lsls	r3, r2, #2
 461 00ac 3B44     		add	r3, r3, r7
 462 00ae 9D4A     		ldr	r2, .L52+8
 463 00b0 32F81300 		ldrh	r0, [r2, r3, lsl #1]
 464              	.LVL43:
 465 00b4 FFF7FEFF 		bl	__aeabi_i2d
 466              	.LVL44:
 467 00b8 0022     		movs	r2, #0
 468 00ba 994B     		ldr	r3, .L52+4
 469 00bc FFF7FEFF 		bl	__aeabi_ddiv
 470              	.LVL45:
 471 00c0 FFF7FEFF 		bl	__aeabi_d2f
 472              	.LVL46:
 473 00c4 984A     		ldr	r2, .L52+12
 474 00c6 0146     		mov	r1, r0
 475 00c8 4846     		mov	r0, r9
 476 00ca FFF7FEFF 		bl	checkDiff
 477              	.LVL47:
 478 00ce 0028     		cmp	r0, #0
 479 00d0 32D0     		beq	.L40
 480              	.L41:
 152:main.c        ****             CyDelay(25);
 481              		.loc 1 152 0 is_stmt 1
 482 00d2 4FEA0519 		lsl	r9, r5, #4
 483              	.LVL48:
 484 00d6 C5EB0902 		rsb	r2, r5, r9
 485 00da 9300     		lsls	r3, r2, #2
 486 00dc 3B44     		add	r3, r3, r7
 487 00de 914A     		ldr	r2, .L52+8
 488 00e0 22F81380 		strh	r8, [r2, r3, lsl #1]	@ movhi
 153:main.c        ****             sprintf(temp_message, "T|%03d|%06.2f|%04x%04x%04x|%c|%c\r\n", modbus_staleness,newTemp,
 489              		.loc 1 153 0
 490 00e4 1920     		movs	r0, #25
 491 00e6 FFF7FEFF 		bl	CyDelay
 492              	.LVL49:
 154:main.c        ****             Wemos_PutString(temp_message);  // send to mqtt after queuing
 493              		.loc 1 154 0
 494 00ea 7A1C     		adds	r2, r7, #1
 495 00ec 8B4B     		ldr	r3, .L52
 496 00ee C5EB0900 		rsb	r0, r5, r9
 497 00f2 8100     		lsls	r1, r0, #2
 498 00f4 0A44     		add	r2, r2, r1
 499 00f6 33F81210 		ldrh	r1, [r3, r2, lsl #1]
 500 00fa BA1C     		adds	r2, r7, #2
 501 00fc 8000     		lsls	r0, r0, #2
 502 00fe 0244     		add	r2, r2, r0
 503 0100 33F81220 		ldrh	r2, [r3, r2, lsl #1]
 504 0104 0337     		adds	r7, r7, #3
 505 0106 0744     		add	r7, r7, r0
 506 0108 33F81730 		ldrh	r3, [r3, r7, lsl #1]
 507 010c 8748     		ldr	r0, .L52+16
 508 010e 0078     		ldrb	r0, [r0]	@ zero_extendqisi2
 509 0110 0690     		str	r0, [sp, #24]
 510 0112 05F13100 		add	r0, r5, #49
ARM GAS  C:\Users\scott\AppData\Local\Temp\ccZtjjlv.s 			page 14


 511 0116 0590     		str	r0, [sp, #20]
 512 0118 0493     		str	r3, [sp, #16]
 513 011a 0392     		str	r2, [sp, #12]
 514 011c 0291     		str	r1, [sp, #8]
 515 011e 0898     		ldr	r0, [sp, #32]	@ float
 516 0120 FFF7FEFF 		bl	__aeabi_f2d
 517              	.LVL50:
 518 0124 CDE90001 		strd	r0, [sp]
 519 0128 5246     		mov	r2, r10
 520 012a 8149     		ldr	r1, .L52+20
 521 012c 0EA8     		add	r0, sp, #56
 522 012e FFF7FEFF 		bl	sprintf
 523              	.LVL51:
 155:main.c        ****           }
 524              		.loc 1 155 0
 525 0132 0EA8     		add	r0, sp, #56
 526 0134 FFF7FEFF 		bl	Wemos_PutString
 527              	.LVL52:
 528              	.L40:
 145:main.c        ****       {
 529              		.loc 1 145 0 discriminator 2
 530 0138 0136     		adds	r6, r6, #1
 531              	.LVL53:
 532 013a F6B2     		uxtb	r6, r6
 533              	.LVL54:
 534              	.L39:
 145:main.c        ****       {
 535              		.loc 1 145 0 is_stmt 0 discriminator 1
 536 013c 052E     		cmp	r6, #5
 537 013e 99D9     		bls	.L42
 161:main.c        ****       {
 538              		.loc 1 161 0 is_stmt 1
 539 0140 C5EB0512 		rsb	r2, r5, r5, lsl #4
 540 0144 D300     		lsls	r3, r2, #3
 541 0146 754A     		ldr	r2, .L52
 542 0148 1344     		add	r3, r3, r2
 543 014a 1E8F     		ldrh	r6, [r3, #56]
 544              	.LVL55:
 545 014c 002E     		cmp	r6, #0
 546 014e 00F0AF80 		beq	.L43
 163:main.c        ****         if (force || checkDiff(newTemp, last_registers[j][28] / 100.0, 0.55) ||
 547              		.loc 1 163 0
 548 0152 3046     		mov	r0, r6
 549 0154 FFF7FEFF 		bl	__aeabi_i2d
 550              	.LVL56:
 551 0158 0022     		movs	r2, #0
 552 015a 714B     		ldr	r3, .L52+4
 553 015c FFF7FEFF 		bl	__aeabi_ddiv
 554              	.LVL57:
 555 0160 FFF7FEFF 		bl	__aeabi_d2f
 556              	.LVL58:
 557 0164 0746     		mov	r7, r0
 558              	.LVL59:
 164:main.c        ****             checkDiff(registers[j][26] / 10.0, last_registers[j][26] / 10.0, 0.55) ||
 559              		.loc 1 164 0
 560 0166 BBF1000F 		cmp	fp, #0
 561 016a 67D1     		bne	.L44
ARM GAS  C:\Users\scott\AppData\Local\Temp\ccZtjjlv.s 			page 15


 164:main.c        ****             checkDiff(registers[j][26] / 10.0, last_registers[j][26] / 10.0, 0.55) ||
 562              		.loc 1 164 0 is_stmt 0 discriminator 1
 563 016c C5EB0512 		rsb	r2, r5, r5, lsl #4
 564 0170 D300     		lsls	r3, r2, #3
 565 0172 6C4A     		ldr	r2, .L52+8
 566 0174 1344     		add	r3, r3, r2
 567 0176 188F     		ldrh	r0, [r3, #56]
 568              	.LVL60:
 569 0178 FFF7FEFF 		bl	__aeabi_i2d
 570              	.LVL61:
 571 017c 0022     		movs	r2, #0
 572 017e 684B     		ldr	r3, .L52+4
 573 0180 FFF7FEFF 		bl	__aeabi_ddiv
 574              	.LVL62:
 575 0184 FFF7FEFF 		bl	__aeabi_d2f
 576              	.LVL63:
 577 0188 674A     		ldr	r2, .L52+12
 578 018a 0146     		mov	r1, r0
 579 018c 3846     		mov	r0, r7
 580 018e FFF7FEFF 		bl	checkDiff
 581              	.LVL64:
 582 0192 0028     		cmp	r0, #0
 583 0194 52D1     		bne	.L44
 165:main.c        ****             checkDiff(registers[j][27] / 10.0, last_registers[j][27] / 10.0, 0.55)) // only update 
 584              		.loc 1 165 0 is_stmt 1 discriminator 2
 585 0196 4FEA0518 		lsl	r8, r5, #4
 586 019a C5EB0802 		rsb	r2, r5, r8
 587 019e D300     		lsls	r3, r2, #3
 588 01a0 5E4A     		ldr	r2, .L52
 589 01a2 1344     		add	r3, r3, r2
 590 01a4 988E     		ldrh	r0, [r3, #52]
 591 01a6 FFF7FEFF 		bl	__aeabi_i2d
 592              	.LVL65:
 593 01aa 0022     		movs	r2, #0
 594 01ac 614B     		ldr	r3, .L52+24
 595 01ae FFF7FEFF 		bl	__aeabi_ddiv
 596              	.LVL66:
 597 01b2 CDE90801 		strd	r0, [sp, #32]
 598 01b6 C5EB0808 		rsb	r8, r5, r8
 599 01ba 4FEAC803 		lsl	r3, r8, #3
 600 01be 594A     		ldr	r2, .L52+8
 601 01c0 1344     		add	r3, r3, r2
 602 01c2 988E     		ldrh	r0, [r3, #52]
 603 01c4 FFF7FEFF 		bl	__aeabi_i2d
 604              	.LVL67:
 605 01c8 0022     		movs	r2, #0
 606 01ca 5A4B     		ldr	r3, .L52+24
 607 01cc FFF7FEFF 		bl	__aeabi_ddiv
 608              	.LVL68:
 609 01d0 FFF7FEFF 		bl	__aeabi_d2f
 610              	.LVL69:
 611 01d4 8046     		mov	r8, r0
 612 01d6 DDE90801 		ldrd	r0, [sp, #32]
 613 01da FFF7FEFF 		bl	__aeabi_d2f
 614              	.LVL70:
 615 01de 524A     		ldr	r2, .L52+12
 616 01e0 4146     		mov	r1, r8
ARM GAS  C:\Users\scott\AppData\Local\Temp\ccZtjjlv.s 			page 16


 617 01e2 FFF7FEFF 		bl	checkDiff
 618              	.LVL71:
 164:main.c        ****             checkDiff(registers[j][26] / 10.0, last_registers[j][26] / 10.0, 0.55) ||
 619              		.loc 1 164 0 discriminator 2
 620 01e6 48BB     		cbnz	r0, .L44
 166:main.c        ****         {
 621              		.loc 1 166 0
 622 01e8 4FEA0518 		lsl	r8, r5, #4
 623 01ec C5EB0802 		rsb	r2, r5, r8
 624 01f0 D300     		lsls	r3, r2, #3
 625 01f2 4A4A     		ldr	r2, .L52
 626 01f4 1344     		add	r3, r3, r2
 627 01f6 D88E     		ldrh	r0, [r3, #54]
 628 01f8 FFF7FEFF 		bl	__aeabi_i2d
 629              	.LVL72:
 630 01fc 0022     		movs	r2, #0
 631 01fe 4D4B     		ldr	r3, .L52+24
 632 0200 FFF7FEFF 		bl	__aeabi_ddiv
 633              	.LVL73:
 634 0204 CDE90801 		strd	r0, [sp, #32]
 635 0208 C5EB0808 		rsb	r8, r5, r8
 636 020c 4FEAC803 		lsl	r3, r8, #3
 637 0210 444A     		ldr	r2, .L52+8
 638 0212 1344     		add	r3, r3, r2
 639 0214 D88E     		ldrh	r0, [r3, #54]
 640 0216 FFF7FEFF 		bl	__aeabi_i2d
 641              	.LVL74:
 642 021a 0022     		movs	r2, #0
 643 021c 454B     		ldr	r3, .L52+24
 644 021e FFF7FEFF 		bl	__aeabi_ddiv
 645              	.LVL75:
 646 0222 FFF7FEFF 		bl	__aeabi_d2f
 647              	.LVL76:
 648 0226 8046     		mov	r8, r0
 649 0228 DDE90801 		ldrd	r0, [sp, #32]
 650 022c FFF7FEFF 		bl	__aeabi_d2f
 651              	.LVL77:
 652 0230 3D4A     		ldr	r2, .L52+12
 653 0232 4146     		mov	r1, r8
 654 0234 FFF7FEFF 		bl	checkDiff
 655              	.LVL78:
 165:main.c        ****             checkDiff(registers[j][27] / 10.0, last_registers[j][27] / 10.0, 0.55)) // only update 
 656              		.loc 1 165 0
 657 0238 0028     		cmp	r0, #0
 658 023a 39D0     		beq	.L43
 659              	.L44:
 168:main.c        ****           last_registers[j][27] = registers[j][27];
 660              		.loc 1 168 0
 661 023c 2A01     		lsls	r2, r5, #4
 662 023e 511B     		subs	r1, r2, r5
 663 0240 CB00     		lsls	r3, r1, #3
 664 0242 3649     		ldr	r1, .L52
 665 0244 01EB0308 		add	r8, r1, r3
 666 0248 B8F83410 		ldrh	r1, [r8, #52]
 667 024c 354A     		ldr	r2, .L52+8
 668 024e 1344     		add	r3, r3, r2
 669 0250 9986     		strh	r1, [r3, #52]	@ movhi
ARM GAS  C:\Users\scott\AppData\Local\Temp\ccZtjjlv.s 			page 17


 169:main.c        ****           last_registers[j][28] = registers[j][28];
 670              		.loc 1 169 0
 671 0252 B8F83620 		ldrh	r2, [r8, #54]
 672 0256 DA86     		strh	r2, [r3, #54]	@ movhi
 170:main.c        ****           CyDelay(100);
 673              		.loc 1 170 0
 674 0258 1E87     		strh	r6, [r3, #56]	@ movhi
 171:main.c        ****           sprintf(temp_message, "H|%03d|%06.2f|%05.2f|%05.2f|%c|%c\r\n", modbus_staleness,newTemp,r
 675              		.loc 1 171 0
 676 025a 6420     		movs	r0, #100
 677 025c FFF7FEFF 		bl	CyDelay
 678              	.LVL79:
 172:main.c        ****           Wemos_PutString(temp_message);  // send to mqtt later
 679              		.loc 1 172 0
 680 0260 B8F83460 		ldrh	r6, [r8, #52]
 681 0264 B8F83600 		ldrh	r0, [r8, #54]
 682 0268 304B     		ldr	r3, .L52+16
 683 026a 1B78     		ldrb	r3, [r3]	@ zero_extendqisi2
 684 026c 0793     		str	r3, [sp, #28]
 685 026e 05F13103 		add	r3, r5, #49
 686 0272 0693     		str	r3, [sp, #24]
 687 0274 FFF7FEFF 		bl	__aeabi_i2d
 688              	.LVL80:
 689 0278 0022     		movs	r2, #0
 690 027a 2E4B     		ldr	r3, .L52+24
 691 027c FFF7FEFF 		bl	__aeabi_ddiv
 692              	.LVL81:
 693 0280 CDE90401 		strd	r0, [sp, #16]
 694 0284 3046     		mov	r0, r6
 695 0286 FFF7FEFF 		bl	__aeabi_i2d
 696              	.LVL82:
 697 028a 0022     		movs	r2, #0
 698 028c 294B     		ldr	r3, .L52+24
 699 028e FFF7FEFF 		bl	__aeabi_ddiv
 700              	.LVL83:
 701 0292 CDE90201 		strd	r0, [sp, #8]
 702 0296 3846     		mov	r0, r7
 703 0298 FFF7FEFF 		bl	__aeabi_f2d
 704              	.LVL84:
 705 029c CDE90001 		strd	r0, [sp]
 706 02a0 5246     		mov	r2, r10
 707 02a2 2549     		ldr	r1, .L52+28
 708 02a4 0EA8     		add	r0, sp, #56
 709 02a6 FFF7FEFF 		bl	sprintf
 710              	.LVL85:
 173:main.c        ****         }
 711              		.loc 1 173 0
 712 02aa 0EA8     		add	r0, sp, #56
 713 02ac FFF7FEFF 		bl	Wemos_PutString
 714              	.LVL86:
 715              	.L43:
 178:main.c        ****       {
 716              		.loc 1 178 0
 717 02b0 C5EB0512 		rsb	r2, r5, r5, lsl #4
 718 02b4 D300     		lsls	r3, r2, #3
 719 02b6 194A     		ldr	r2, .L52
 720 02b8 1344     		add	r3, r3, r2
ARM GAS  C:\Users\scott\AppData\Local\Temp\ccZtjjlv.s 			page 18


 721 02ba 588F     		ldrh	r0, [r3, #58]
 722 02bc 28B3     		cbz	r0, .L38
 180:main.c        ****         {
 723              		.loc 1 180 0
 724 02be BBF1000F 		cmp	fp, #0
 725 02c2 07D1     		bne	.L45
 180:main.c        ****         {
 726              		.loc 1 180 0 is_stmt 0 discriminator 1
 727 02c4 C5EB0512 		rsb	r2, r5, r5, lsl #4
 728 02c8 D300     		lsls	r3, r2, #3
 729 02ca 164A     		ldr	r2, .L52+8
 730 02cc 1344     		add	r3, r3, r2
 731 02ce 5B8F     		ldrh	r3, [r3, #58]
 732 02d0 9842     		cmp	r0, r3
 733 02d2 1AD0     		beq	.L38
 734              	.L45:
 182:main.c        ****           printBinary((uint8_t)(registers[j][29] & 0xff), ts);
 735              		.loc 1 182 0 is_stmt 1
 736 02d4 C5EB0512 		rsb	r2, r5, r5, lsl #4
 737 02d8 D300     		lsls	r3, r2, #3
 738 02da 124A     		ldr	r2, .L52+8
 739 02dc 1344     		add	r3, r3, r2
 740 02de 5887     		strh	r0, [r3, #58]	@ movhi
 183:main.c        ****           sprintf(temp_message, "P|%03d|%s|%c|%c\r\n", modbus_staleness,ts,MODBUS_BASE_ADDR + j,myI
 741              		.loc 1 183 0
 742 02e0 0BA9     		add	r1, sp, #44
 743 02e2 C0B2     		uxtb	r0, r0
 744 02e4 FFF7FEFF 		bl	printBinary
 745              	.LVL87:
 184:main.c        ****           CyDelay(20);
 746              		.loc 1 184 0
 747 02e8 104B     		ldr	r3, .L52+16
 748 02ea 1B78     		ldrb	r3, [r3]	@ zero_extendqisi2
 749 02ec 0193     		str	r3, [sp, #4]
 750 02ee 3135     		adds	r5, r5, #49
 751 02f0 0095     		str	r5, [sp]
 752 02f2 0BAB     		add	r3, sp, #44
 753 02f4 5246     		mov	r2, r10
 754 02f6 1149     		ldr	r1, .L52+32
 755 02f8 0EA8     		add	r0, sp, #56
 756 02fa FFF7FEFF 		bl	sprintf
 757              	.LVL88:
 185:main.c        ****           Wemos_PutString(temp_message);  // send to mqtt later
 758              		.loc 1 185 0
 759 02fe 1420     		movs	r0, #20
 760 0300 FFF7FEFF 		bl	CyDelay
 761              	.LVL89:
 186:main.c        ****         }
 762              		.loc 1 186 0
 763 0304 0EA8     		add	r0, sp, #56
 764 0306 FFF7FEFF 		bl	Wemos_PutString
 765              	.LVL90:
 766              	.L38:
 136:main.c        ****   {
 767              		.loc 1 136 0 discriminator 2
 768 030a 0134     		adds	r4, r4, #1
 769              	.LVL91:
ARM GAS  C:\Users\scott\AppData\Local\Temp\ccZtjjlv.s 			page 19


 770 030c E4B2     		uxtb	r4, r4
 771              	.LVL92:
 772              	.L35:
 136:main.c        ****   {
 773              		.loc 1 136 0 is_stmt 0 discriminator 1
 774 030e 062C     		cmp	r4, #6
 775 0310 7FF68BAE 		bls	.L48
 194:main.c        **** //========================================================================================
 776              		.loc 1 194 0 is_stmt 1
 777 0314 2FB0     		add	sp, sp, #188
 778              		.cfi_def_cfa_offset 36
 779              		@ sp needed
 780 0316 BDE8F08F 		pop	{r4, r5, r6, r7, r8, r9, r10, fp, pc}
 781              	.LVL93:
 782              	.L53:
 783 031a 00BF     		.align	2
 784              	.L52:
 785 031c 00000000 		.word	registers
 786 0320 00005940 		.word	1079574528
 787 0324 00000000 		.word	last_registers
 788 0328 CDCC0C3F 		.word	1057803469
 789 032c 00000000 		.word	myId
 790 0330 00000000 		.word	.LC0
 791 0334 00002440 		.word	1076101120
 792 0338 24000000 		.word	.LC1
 793 033c 48000000 		.word	.LC2
 794              		.cfi_endproc
 795              	.LFE69:
 796              		.size	process_holding_registers, .-process_holding_registers
 797              		.global	__aeabi_dmul
 798              		.global	__aeabi_fcmpeq
 799              		.global	__aeabi_dcmplt
 800              		.global	__aeabi_dcmpgt
 801              		.global	__aeabi_dcmpeq
 802              		.section	.text.main,"ax",%progbits
 803              		.align	2
 804              		.global	main
 805              		.thumb
 806              		.thumb_func
 807              		.type	main, %function
 808              	main:
 809              	.LFB71:
 213:main.c        **** }
 214:main.c        **** 
 215:main.c        **** //========================================================================================
 216:main.c        **** //========================================================================================
 217:main.c        **** int main(void)
 218:main.c        **** {
 810              		.loc 1 218 0
 811              		.cfi_startproc
 812              		@ args = 0, pretend = 0, frame = 176
 813              		@ frame_needed = 0, uses_anonymous_args = 0
 814 0000 2DE9F04F 		push	{r4, r5, r6, r7, r8, r9, r10, fp, lr}
 815              		.cfi_def_cfa_offset 36
 816              		.cfi_offset 4, -36
 817              		.cfi_offset 5, -32
 818              		.cfi_offset 6, -28
ARM GAS  C:\Users\scott\AppData\Local\Temp\ccZtjjlv.s 			page 20


 819              		.cfi_offset 7, -24
 820              		.cfi_offset 8, -20
 821              		.cfi_offset 9, -16
 822              		.cfi_offset 10, -12
 823              		.cfi_offset 11, -8
 824              		.cfi_offset 14, -4
 825 0004 B5B0     		sub	sp, sp, #212
 826              		.cfi_def_cfa_offset 248
 219:main.c        ****   uint8_t i;
 220:main.c        ****   uint8_t forced;
 221:main.c        ****   char s[20];
 222:main.c        ****   char ts[128];
 223:main.c        ****   double f1;
 224:main.c        ****   uint32 ReadingResult;
 225:main.c        ****   uint32 Adc_result;
 226:main.c        ****   float fAdc;
 227:main.c        ****   float temperature;    // temperature of the DS18B20s directly connected to this device
 228:main.c        ****   ds18b20_devices devices;
 229:main.c        ****   one_wire_device address;
 230:main.c        **** 
 231:main.c        ****   // TODO Convert the switches to an id
 232:main.c        ****   myId = MY_ID;
 827              		.loc 1 232 0
 828 0006 BC4F     		ldr	r7, .L98+8
 829 0008 3023     		movs	r3, #48
 830 000a 3B70     		strb	r3, [r7]
 233:main.c        ****   wemos_pos = 0;
 831              		.loc 1 233 0
 832 000c BB4D     		ldr	r5, .L98+12
 833 000e 0024     		movs	r4, #0
 834 0010 2C70     		strb	r4, [r5]
 234:main.c        ****   rs485_pos = 0;
 835              		.loc 1 234 0
 836 0012 BB4B     		ldr	r3, .L98+16
 837 0014 1C70     		strb	r4, [r3]
 235:main.c        ****   Global_time = 0;
 838              		.loc 1 235 0
 839 0016 BB4E     		ldr	r6, .L98+20
 840 0018 3460     		str	r4, [r6]
 236:main.c        ****   rx_timed_out = 0;
 841              		.loc 1 236 0
 842 001a BB4B     		ldr	r3, .L98+24
 843 001c 1C70     		strb	r4, [r3]
 237:main.c        ****   sprintf(version,"%02d%02d%02d-%02d%02d", BUILD_YEAR - 2000, BUILD_MONTH, BUILD_DAY, BUILD_HOUR, B
 844              		.loc 1 237 0
 845 001e 2623     		movs	r3, #38
 846 0020 0293     		str	r3, [sp, #8]
 847 0022 0A23     		movs	r3, #10
 848 0024 0193     		str	r3, [sp, #4]
 849 0026 0F23     		movs	r3, #15
 850 0028 0093     		str	r3, [sp]
 851 002a 0223     		movs	r3, #2
 852 002c 1422     		movs	r2, #20
 853 002e B749     		ldr	r1, .L98+28
 854 0030 B748     		ldr	r0, .L98+32
 855 0032 FFF7FEFF 		bl	sprintf
 856              	.LVL94:
ARM GAS  C:\Users\scott\AppData\Local\Temp\ccZtjjlv.s 			page 21


 238:main.c        ****   CyDelay(6000); // Just take a short pause to let the wemos start
 857              		.loc 1 238 0
 858 0036 41F27070 		movw	r0, #6000
 859 003a FFF7FEFF 		bl	CyDelay
 860              	.LVL95:
 239:main.c        ****   myId = DIP_Read();
 861              		.loc 1 239 0
 862 003e FFF7FEFF 		bl	DIP_Read
 863              	.LVL96:
 240:main.c        ****   myId += 0x40;
 864              		.loc 1 240 0
 865 0042 4030     		adds	r0, r0, #64
 866 0044 3870     		strb	r0, [r7]
 241:main.c        ****   Modbus_begin();
 867              		.loc 1 241 0
 868 0046 FFF7FEFF 		bl	Modbus_begin
 869              	.LVL97:
 242:main.c        ****   Modbus_setTimeOut( 2000 ); // if there is no answer in 2 seconds, roll over
 870              		.loc 1 242 0
 871 004a 4FF4FA60 		mov	r0, #2000
 872 004e FFF7FEFF 		bl	Modbus_setTimeOut
 873              	.LVL98:
 243:main.c        ****   modbus_wait = Global_time + 10000;  // wait 10 seconds to do the first poll
 874              		.loc 1 243 0
 875 0052 3368     		ldr	r3, [r6]
 876 0054 03F51C53 		add	r3, r3, #9984
 877 0058 1033     		adds	r3, r3, #16
 878 005a AE4A     		ldr	r2, .L98+36
 879 005c 1360     		str	r3, [r2]
 244:main.c        ****   modbus_state = 0;
 880              		.loc 1 244 0
 881 005e AE4B     		ldr	r3, .L98+40
 882 0060 1C70     		strb	r4, [r3]
 245:main.c        ****   modbus_slave = 0;
 883              		.loc 1 245 0
 884 0062 AE4B     		ldr	r3, .L98+44
 885 0064 1C70     		strb	r4, [r3]
 246:main.c        **** 
 247:main.c        ****   CYGlobalIntDisable;//Disable interrupts to avoid triggering during setup.
 886              		.loc 1 247 0
 887              		.syntax unified
 888              	@ 247 "main.c" 1
 889 0066 72B6     		CPSID   i
 890              	@ 0 "" 2
 248:main.c        ****   Timer_Start();
 891              		.loc 1 248 0
 892              		.thumb
 893              		.syntax unified
 894 0068 FFF7FEFF 		bl	Timer_Start
 895              	.LVL99:
 249:main.c        ****   Timer_Int_Start();
 896              		.loc 1 249 0
 897 006c FFF7FEFF 		bl	Timer_Int_Start
 898              	.LVL100:
 250:main.c        ****   Timer_Int_SetVector(Timer_ISR);
 899              		.loc 1 250 0
 900 0070 AB48     		ldr	r0, .L98+48
ARM GAS  C:\Users\scott\AppData\Local\Temp\ccZtjjlv.s 			page 22


 901 0072 FFF7FEFF 		bl	Timer_Int_SetVector
 902              	.LVL101:
 251:main.c        **** 
 252:main.c        ****   RS485_Start();              // all communications are done using RS485 for modbus
 903              		.loc 1 252 0
 904 0076 FFF7FEFF 		bl	RS485_Start
 905              	.LVL102:
 253:main.c        ****   Rx_Int_Start();             //Start the Interrupt.
 906              		.loc 1 253 0
 907 007a FFF7FEFF 		bl	Rx_Int_Start
 908              	.LVL103:
 254:main.c        ****   Rx_Int_SetVector(Rx_ISR);   //Set the Vector to the ISR.
 909              		.loc 1 254 0
 910 007e A948     		ldr	r0, .L98+52
 911 0080 FFF7FEFF 		bl	Rx_Int_SetVector
 912              	.LVL104:
 255:main.c        **** 
 256:main.c        ****   Rx_Timer_Int_SetVector(Rx_Timer_ISR);
 913              		.loc 1 256 0
 914 0084 A848     		ldr	r0, .L98+56
 915 0086 FFF7FEFF 		bl	Rx_Timer_Int_SetVector
 916              	.LVL105:
 257:main.c        **** 
 258:main.c        ****   CyGlobalIntEnable; /* Enable global interrupts. */
 917              		.loc 1 258 0
 918              		.syntax unified
 919              	@ 258 "main.c" 1
 920 008a 62B6     		CPSIE   i
 921              	@ 0 "" 2
 259:main.c        ****   Temp_CS_Write(0xff);    // turn all CS lines off
 922              		.loc 1 259 0
 923              		.thumb
 924              		.syntax unified
 925 008c FF20     		movs	r0, #255
 926 008e FFF7FEFF 		bl	Temp_CS_Write
 927              	.LVL106:
 260:main.c        ****   Temp_CLK_Write(1);      // set the clock high
 928              		.loc 1 260 0
 929 0092 0120     		movs	r0, #1
 930 0094 FFF7FEFF 		bl	Temp_CLK_Write
 931              	.LVL107:
 261:main.c        **** 
 262:main.c        ****   Wemos_Start();              // all communications are done via serial to the Wemos
 932              		.loc 1 262 0
 933 0098 FFF7FEFF 		bl	Wemos_Start
 934              	.LVL108:
 263:main.c        ****   Wemos_Rx_Int_Start();             //Start the Interrupt.
 935              		.loc 1 263 0
 936 009c FFF7FEFF 		bl	Wemos_Rx_Int_Start
 937              	.LVL109:
 264:main.c        ****   Wemos_Rx_Int_SetVector(Wemos_Rx_ISR);   //Set the Vector to the ISR.
 938              		.loc 1 264 0
 939 00a0 A248     		ldr	r0, .L98+60
 940 00a2 FFF7FEFF 		bl	Wemos_Rx_Int_SetVector
 941              	.LVL110:
 265:main.c        **** 
 266:main.c        ****   wemos_pos = 0;
ARM GAS  C:\Users\scott\AppData\Local\Temp\ccZtjjlv.s 			page 23


 942              		.loc 1 266 0
 943 00a6 2C70     		strb	r4, [r5]
 267:main.c        ****   Wemos_ClearRxBuffer();
 944              		.loc 1 267 0
 945 00a8 FFF7FEFF 		bl	Wemos_ClearRxBuffer
 946              	.LVL111:
 268:main.c        **** 
 269:main.c        ****   AMux_Start();
 947              		.loc 1 269 0
 948 00ac FFF7FEFF 		bl	AMux_Start
 949              	.LVL112:
 270:main.c        ****   ADC_Start();
 950              		.loc 1 270 0
 951 00b0 FFF7FEFF 		bl	ADC_Start
 952              	.LVL113:
 271:main.c        **** 
 272:main.c        ****   CyDelay(5000);
 953              		.loc 1 272 0
 954 00b4 41F28830 		movw	r0, #5000
 955 00b8 FFF7FEFF 		bl	CyDelay
 956              	.LVL114:
 957              	.L55:
 273:main.c        ****   //=============================================
 274:main.c        ****   // Everything up to this point was setup
 275:main.c        ****   // The normal processing occurs after this point
 276:main.c        ****   //=============================================
 277:main.c        ****   for(;;)     // this program loops forever
 278:main.c        ****   {
 279:main.c        ****     // check to see if both the escape character and the requested id is in the receive buffer
 280:main.c        ****     if (esc && wemos_pos)
 958              		.loc 1 280 0
 959 00bc 9C4B     		ldr	r3, .L98+64
 960 00be 1B78     		ldrb	r3, [r3]	@ zero_extendqisi2
 961 00c0 002B     		cmp	r3, #0
 962 00c2 00F0DD81 		beq	.L57
 963              		.loc 1 280 0 is_stmt 0 discriminator 1
 964 00c6 8D4B     		ldr	r3, .L98+12
 965 00c8 1B78     		ldrb	r3, [r3]	@ zero_extendqisi2
 966 00ca 002B     		cmp	r3, #0
 967 00cc 00F0D881 		beq	.L57
 281:main.c        ****     {   // going into this routine means we got an escape character, and at least one other charact
 282:main.c        ****       esc = 0;                    //reset the escape flag
 968              		.loc 1 282 0 is_stmt 1
 969 00d0 0022     		movs	r2, #0
 970 00d2 9749     		ldr	r1, .L98+64
 971 00d4 0A70     		strb	r2, [r1]
 283:main.c        ****       wemos_buffer[wemos_pos] = 0;    //terminate the input at the end of the data
 972              		.loc 1 283 0
 973 00d6 9749     		ldr	r1, .L98+68
 974 00d8 CA54     		strb	r2, [r1, r3]
 284:main.c        ****       wemos_pos = 0;
 975              		.loc 1 284 0
 976 00da 884B     		ldr	r3, .L98+12
 977 00dc 1A70     		strb	r2, [r3]
 285:main.c        ****       if (wemos_buffer[0] == '1' || wemos_buffer[0] == '2')  // process requests
 978              		.loc 1 285 0
 979 00de 0B78     		ldrb	r3, [r1]	@ zero_extendqisi2
ARM GAS  C:\Users\scott\AppData\Local\Temp\ccZtjjlv.s 			page 24


 980 00e0 313B     		subs	r3, r3, #49
 981 00e2 DBB2     		uxtb	r3, r3
 982 00e4 012B     		cmp	r3, #1
 983 00e6 00F2CB81 		bhi	.L57
 286:main.c        ****       {
 287:main.c        ****         CyDelay(50);
 984              		.loc 1 287 0
 985 00ea 3220     		movs	r0, #50
 986 00ec FFF7FEFF 		bl	CyDelay
 987              	.LVL115:
 288:main.c        ****         LED_Write(1);           // light the led just to show we received a request for this id, fo
 988              		.loc 1 288 0
 989 00f0 0120     		movs	r0, #1
 990 00f2 FFF7FEFF 		bl	LED_Write
 991              	.LVL116:
 289:main.c        ****         one_wire_reset_pulse(); // do this for all of the DS18B20's
 992              		.loc 1 289 0
 993 00f6 FFF7FEFF 		bl	one_wire_reset_pulse
 994              	.LVL117:
 290:main.c        ****         // do this here because of timing, the DS18B20's can convert while other devices report
 291:main.c        ****         devices = ds18b20_get_devices(1);
 995              		.loc 1 291 0
 996 00fa 0121     		movs	r1, #1
 997 00fc 0DA8     		add	r0, sp, #52
 998 00fe FFF7FEFF 		bl	ds18b20_get_devices
 999              	.LVL118:
 292:main.c        ****         ds18b20_convert_temperature_all();
 1000              		.loc 1 292 0
 1001 0102 FFF7FEFF 		bl	ds18b20_convert_temperature_all
 1002              	.LVL119:
 293:main.c        **** 
 294:main.c        ****         sprintf(ts,"R|000|%s|%c\r\n",version,myId);
 1003              		.loc 1 294 0
 1004 0106 7C4B     		ldr	r3, .L98+8
 1005 0108 1B78     		ldrb	r3, [r3]	@ zero_extendqisi2
 1006 010a 814A     		ldr	r2, .L98+32
 1007 010c 8A49     		ldr	r1, .L98+72
 1008 010e 0FA8     		add	r0, sp, #60
 1009 0110 FFF7FEFF 		bl	sprintf
 1010              	.LVL120:
 295:main.c        ****         Wemos_PutString(ts);  // done just to clear everything
 1011              		.loc 1 295 0
 1012 0114 0FA8     		add	r0, sp, #60
 1013 0116 FFF7FEFF 		bl	Wemos_PutString
 1014              	.LVL121:
 296:main.c        ****         if (wemos_buffer[0] == '1') // A 1 just requests whatever has changed
 1015              		.loc 1 296 0
 1016 011a 864B     		ldr	r3, .L98+68
 1017 011c 1B78     		ldrb	r3, [r3]	@ zero_extendqisi2
 1018 011e 312B     		cmp	r3, #49
 1019 0120 05D1     		bne	.L58
 1020              	.LVL122:
 297:main.c        ****         {
 298:main.c        ****           forced = 0;
 299:main.c        ****           process_holding_registers(false);    // this queues up the changed data for mqtt
 1021              		.loc 1 299 0
 1022 0122 0020     		movs	r0, #0
ARM GAS  C:\Users\scott\AppData\Local\Temp\ccZtjjlv.s 			page 25


 1023 0124 FFF7FEFF 		bl	process_holding_registers
 1024              	.LVL123:
 298:main.c        ****           process_holding_registers(false);    // this queues up the changed data for mqtt
 1025              		.loc 1 298 0
 1026 0128 0023     		movs	r3, #0
 1027 012a 0993     		str	r3, [sp, #36]
 1028 012c 1CE0     		b	.L59
 1029              	.LVL124:
 1030              	.L58:
 300:main.c        ****         }  
 301:main.c        ****         else  // A 2 forces everthing to report, in case a change is missing
 302:main.c        ****         {
 303:main.c        ****           forced = 1;
 304:main.c        ****           process_holding_registers(true);    // this queues up all the data for mqtt
 1031              		.loc 1 304 0
 1032 012e 0120     		movs	r0, #1
 1033 0130 FFF7FEFF 		bl	process_holding_registers
 1034              	.LVL125:
 305:main.c        ****           for (i = 0; i < 8; i++)
 1035              		.loc 1 305 0
 1036 0134 0023     		movs	r3, #0
 1037 0136 0FE0     		b	.L60
 1038              	.LVL126:
 1039              	.L62:
 306:main.c        ****           {
 307:main.c        ****             last31855[i] = -20.0;
 1040              		.loc 1 307 0
 1041 0138 704A     		ldr	r2, .L98+12
 1042 013a 02EB8302 		add	r2, r2, r3, lsl #2
 1043 013e 7F49     		ldr	r1, .L98+76
 1044 0140 5160     		str	r1, [r2, #4]	@ float
 308:main.c        ****             lastDS18B20[i] = 0.0;
 1045              		.loc 1 308 0
 1046 0142 0021     		movs	r1, #0
 1047 0144 5162     		str	r1, [r2, #36]	@ float
 309:main.c        ****             if (i < 4)
 1048              		.loc 1 309 0
 1049 0146 032B     		cmp	r3, #3
 1050 0148 04D8     		bhi	.L61
 310:main.c        ****               last_Adc_result[i] = 0.01;  // this is a number it can never be
 1051              		.loc 1 310 0
 1052 014a 6C4A     		ldr	r2, .L98+12
 1053 014c 02EB8302 		add	r2, r2, r3, lsl #2
 1054 0150 7B49     		ldr	r1, .L98+80
 1055 0152 D164     		str	r1, [r2, #76]	@ float
 1056              	.L61:
 305:main.c        ****           {
 1057              		.loc 1 305 0 discriminator 2
 1058 0154 0133     		adds	r3, r3, #1
 1059              	.LVL127:
 1060 0156 DBB2     		uxtb	r3, r3
 1061              	.LVL128:
 1062              	.L60:
 305:main.c        ****           {
 1063              		.loc 1 305 0 is_stmt 0 discriminator 1
 1064 0158 072B     		cmp	r3, #7
 1065 015a EDD9     		bls	.L62
ARM GAS  C:\Users\scott\AppData\Local\Temp\ccZtjjlv.s 			page 26


 311:main.c        ****           }
 312:main.c        ****           lastPins = 0;
 1066              		.loc 1 312 0 is_stmt 1
 1067 015c 0022     		movs	r2, #0
 1068 015e 674B     		ldr	r3, .L98+12
 1069              	.LVL129:
 1070 0160 83F85C20 		strb	r2, [r3, #92]
 303:main.c        ****           process_holding_registers(true);    // this queues up all the data for mqtt
 1071              		.loc 1 303 0
 1072 0164 0123     		movs	r3, #1
 1073 0166 0993     		str	r3, [sp, #36]
 1074              	.LVL130:
 1075              	.L59:
 313:main.c        ****         }
 314:main.c        ****         i = DINP_Read() << DINP_WIDTH; // get the values from the digital pins
 1076              		.loc 1 314 0
 1077 0168 FFF7FEFF 		bl	DINP_Read
 1078              	.LVL131:
 1079 016c 0001     		lsls	r0, r0, #4
 1080 016e C4B2     		uxtb	r4, r0
 1081              	.LVL132:
 315:main.c        ****         printBinary(i,s);
 1082              		.loc 1 315 0
 1083 0170 2FA9     		add	r1, sp, #188
 1084 0172 2046     		mov	r0, r4
 1085 0174 FFF7FEFF 		bl	printBinary
 1086              	.LVL133:
 316:main.c        ****         s[DINP_WIDTH] = 0; // the WIDTH is the actual number of pins being looked at
 1087              		.loc 1 316 0
 1088 0178 0023     		movs	r3, #0
 1089 017a 8DF8C030 		strb	r3, [sp, #192]
 317:main.c        ****         sprintf(ts,"P|000|%s|%c\r\n",s,myId);    // report on the status of the air conditioners
 1090              		.loc 1 317 0
 1091 017e 5E4B     		ldr	r3, .L98+8
 1092 0180 1B78     		ldrb	r3, [r3]	@ zero_extendqisi2
 1093 0182 2FAA     		add	r2, sp, #188
 1094 0184 6F49     		ldr	r1, .L98+84
 1095 0186 0FA8     		add	r0, sp, #60
 1096 0188 FFF7FEFF 		bl	sprintf
 1097              	.LVL134:
 318:main.c        ****         if (forced || i != lastPins)
 1098              		.loc 1 318 0
 1099 018c 099B     		ldr	r3, [sp, #36]
 1100 018e 23B9     		cbnz	r3, .L63
 1101              		.loc 1 318 0 is_stmt 0 discriminator 1
 1102 0190 5A4B     		ldr	r3, .L98+12
 1103 0192 93F85C30 		ldrb	r3, [r3, #92]	@ zero_extendqisi2
 1104 0196 9C42     		cmp	r4, r3
 1105 0198 05D0     		beq	.L64
 1106              	.L63:
 319:main.c        ****         {
 320:main.c        ****           lastPins = i;
 1107              		.loc 1 320 0 is_stmt 1
 1108 019a 584B     		ldr	r3, .L98+12
 1109 019c 83F85C40 		strb	r4, [r3, #92]
 321:main.c        ****           Wemos_PutString(ts);
 1110              		.loc 1 321 0
ARM GAS  C:\Users\scott\AppData\Local\Temp\ccZtjjlv.s 			page 27


 1111 01a0 0FA8     		add	r0, sp, #60
 1112 01a2 FFF7FEFF 		bl	Wemos_PutString
 1113              	.LVL135:
 1114              	.L64:
 322:main.c        ****         }
 323:main.c        **** 
 324:main.c        ****         for (i = 0; i < 4; i++) // read the analog pins
 325:main.c        ****         {
 326:main.c        ****           AMux_Select(i); // pick which analog pin to read
 327:main.c        ****           CyDelay(20);
 328:main.c        ****           Adc_result = ADC_Read32();  // This function starts/stops and reads the conversion
 329:main.c        ****           if (Adc_result > 1000000 || Adc_result < 80000) // used to eliminate the extreme edges
 330:main.c        ****             Adc_result = 0;
 1115              		.loc 1 330 0 discriminator 1
 1116 01a6 0024     		movs	r4, #0
 1117              	.LVL136:
 1118 01a8 49E0     		b	.L65
 1119              	.LVL137:
 1120              	.L70:
 326:main.c        ****           CyDelay(20);
 1121              		.loc 1 326 0
 1122 01aa 2046     		mov	r0, r4
 1123 01ac FFF7FEFF 		bl	AMux_Select
 1124              	.LVL138:
 327:main.c        ****           Adc_result = ADC_Read32();  // This function starts/stops and reads the conversion
 1125              		.loc 1 327 0
 1126 01b0 1420     		movs	r0, #20
 1127 01b2 FFF7FEFF 		bl	CyDelay
 1128              	.LVL139:
 328:main.c        ****           if (Adc_result > 1000000 || Adc_result < 80000) // used to eliminate the extreme edges
 1129              		.loc 1 328 0
 1130 01b6 FFF7FEFF 		bl	ADC_Read32
 1131              	.LVL140:
 1132 01ba 0546     		mov	r5, r0
 1133              	.LVL141:
 329:main.c        ****             Adc_result = 0;
 1134              		.loc 1 329 0
 1135 01bc A0F59C33 		sub	r3, r0, #79872
 1136 01c0 803B     		subs	r3, r3, #128
 1137 01c2 614A     		ldr	r2, .L98+88
 1138 01c4 9342     		cmp	r3, r2
 1139 01c6 00D9     		bls	.L66
 1140              		.loc 1 330 0
 1141 01c8 0025     		movs	r5, #0
 1142              	.L66:
 1143              	.LVL142:
 331:main.c        ****           fAdc = round((ADC_CountsTo_Volts(Adc_result) * 1.052) * 10) / 10;
 1144              		.loc 1 331 0
 1145 01ca 2846     		mov	r0, r5
 1146 01cc FFF7FEFF 		bl	ADC_CountsTo_Volts
 1147              	.LVL143:
 1148 01d0 FFF7FEFF 		bl	__aeabi_f2d
 1149              	.LVL144:
 1150 01d4 46A3     		adr	r3, .L98
 1151 01d6 D3E90023 		ldrd	r2, [r3]
 1152 01da FFF7FEFF 		bl	__aeabi_dmul
 1153              	.LVL145:
ARM GAS  C:\Users\scott\AppData\Local\Temp\ccZtjjlv.s 			page 28


 1154 01de 0022     		movs	r2, #0
 1155 01e0 5A4B     		ldr	r3, .L98+92
 1156 01e2 FFF7FEFF 		bl	__aeabi_dmul
 1157              	.LVL146:
 1158 01e6 FFF7FEFF 		bl	round
 1159              	.LVL147:
 1160 01ea 0022     		movs	r2, #0
 1161 01ec 574B     		ldr	r3, .L98+92
 1162 01ee FFF7FEFF 		bl	__aeabi_ddiv
 1163              	.LVL148:
 1164 01f2 FFF7FEFF 		bl	__aeabi_d2f
 1165              	.LVL149:
 1166 01f6 0646     		mov	r6, r0
 1167              	.LVL150:
 332:main.c        ****           if (forced || last_Adc_result[i] != fAdc) // only show what has changed
 1168              		.loc 1 332 0
 1169 01f8 099B     		ldr	r3, [sp, #36]
 1170 01fa 33B9     		cbnz	r3, .L67
 1171              		.loc 1 332 0 is_stmt 0 discriminator 1
 1172 01fc 3F4B     		ldr	r3, .L98+12
 1173 01fe 03EB8403 		add	r3, r3, r4, lsl #2
 1174 0202 D96C     		ldr	r1, [r3, #76]	@ float
 1175 0204 FFF7FEFF 		bl	__aeabi_fcmpeq
 1176              	.LVL151:
 1177 0208 B8B9     		cbnz	r0, .L68
 1178              	.L67:
 333:main.c        ****           {
 334:main.c        ****             sprintf(ts,"A|000|%06.2lf|%06lu|%d|%c\r\n",fAdc,Adc_result,i,myId);
 1179              		.loc 1 334 0 is_stmt 1
 1180 020a 3046     		mov	r0, r6
 1181 020c FFF7FEFF 		bl	__aeabi_f2d
 1182              	.LVL152:
 1183 0210 394B     		ldr	r3, .L98+8
 1184 0212 1B78     		ldrb	r3, [r3]	@ zero_extendqisi2
 1185 0214 0293     		str	r3, [sp, #8]
 1186 0216 0194     		str	r4, [sp, #4]
 1187 0218 0095     		str	r5, [sp]
 1188 021a 0246     		mov	r2, r0
 1189 021c 0B46     		mov	r3, r1
 1190 021e 4C49     		ldr	r1, .L98+96
 1191 0220 0FA8     		add	r0, sp, #60
 1192 0222 FFF7FEFF 		bl	sprintf
 1193              	.LVL153:
 335:main.c        ****             CyDelay(20);
 1194              		.loc 1 335 0
 1195 0226 1420     		movs	r0, #20
 1196 0228 FFF7FEFF 		bl	CyDelay
 1197              	.LVL154:
 336:main.c        ****             Wemos_PutString(ts);
 1198              		.loc 1 336 0
 1199 022c 0FA8     		add	r0, sp, #60
 1200 022e FFF7FEFF 		bl	Wemos_PutString
 1201              	.LVL155:
 337:main.c        ****             last_Adc_result[i] = fAdc;
 1202              		.loc 1 337 0
 1203 0232 324B     		ldr	r3, .L98+12
 1204 0234 03EB8403 		add	r3, r3, r4, lsl #2
ARM GAS  C:\Users\scott\AppData\Local\Temp\ccZtjjlv.s 			page 29


 1205 0238 DE64     		str	r6, [r3, #76]	@ float
 1206              	.L68:
 324:main.c        ****         {
 1207              		.loc 1 324 0 discriminator 2
 1208 023a 0134     		adds	r4, r4, #1
 1209              	.LVL156:
 1210 023c E4B2     		uxtb	r4, r4
 1211              	.LVL157:
 1212              	.L65:
 324:main.c        ****         {
 1213              		.loc 1 324 0 is_stmt 0 discriminator 1
 1214 023e 032C     		cmp	r4, #3
 1215 0240 B3D9     		bls	.L70
 1216 0242 0024     		movs	r4, #0
 1217              	.LVL158:
 1218 0244 BBE0     		b	.L71
 1219              	.LVL159:
 1220              	.L82:
 338:main.c        ****           }
 339:main.c        ****         }
 340:main.c        **** 
 341:main.c        ****         for (i = 0; i < 8; i++)     // get the temperatures from up to 8 devices
 342:main.c        ****         {
 343:main.c        ****           ReadingResult = read_max31855(i);
 1221              		.loc 1 343 0 is_stmt 1
 1222 0246 2046     		mov	r0, r4
 1223 0248 FFF7FEFF 		bl	read_max31855
 1224              	.LVL160:
 1225 024c 0546     		mov	r5, r0
 1226              	.LVL161:
 344:main.c        ****           if (!(ReadingResult & 0x07))  // is there a thermocouple attached?
 1227              		.loc 1 344 0
 1228 024e 10F0070F 		tst	r0, #7
 1229 0252 40F08580 		bne	.L72
 345:main.c        ****           {
 346:main.c        ****             f1 = max31855_Celsius(i); // pass all temperature values in celsius
 1230              		.loc 1 346 0
 1231 0256 2046     		mov	r0, r4
 1232              	.LVL162:
 1233 0258 FFF7FEFF 		bl	max31855_Celsius
 1234              	.LVL163:
 1235 025c 0646     		mov	r6, r0
 1236 025e 0F46     		mov	r7, r1
 1237              	.LVL164:
 347:main.c        ****             if (f1 < 100 && f1 > -30 && f1 != 0.0)  // account for bad readings
 1238              		.loc 1 347 0
 1239 0260 0022     		movs	r2, #0
 1240 0262 3C4B     		ldr	r3, .L98+100
 1241 0264 FFF7FEFF 		bl	__aeabi_dcmplt
 1242              	.LVL165:
 1243 0268 0028     		cmp	r0, #0
 1244 026a 00F0A680 		beq	.L73
 1245              		.loc 1 347 0 is_stmt 0 discriminator 1
 1246 026e 0022     		movs	r2, #0
 1247 0270 394B     		ldr	r3, .L98+104
 1248 0272 3046     		mov	r0, r6
 1249 0274 3946     		mov	r1, r7
ARM GAS  C:\Users\scott\AppData\Local\Temp\ccZtjjlv.s 			page 30


 1250 0276 FFF7FEFF 		bl	__aeabi_dcmpgt
 1251              	.LVL166:
 1252 027a 0028     		cmp	r0, #0
 1253 027c 00F09D80 		beq	.L73
 1254              		.loc 1 347 0 discriminator 2
 1255 0280 0022     		movs	r2, #0
 1256 0282 0023     		movs	r3, #0
 1257 0284 3046     		mov	r0, r6
 1258 0286 3946     		mov	r1, r7
 1259 0288 FFF7FEFF 		bl	__aeabi_dcmpeq
 1260              	.LVL167:
 1261 028c 0028     		cmp	r0, #0
 1262 028e 40F09480 		bne	.L73
 348:main.c        ****             {
 349:main.c        ****               sprintf(ts,"M|000|%06.2lf|%d|%c\r\n",f1,i,myId);
 1263              		.loc 1 349 0 is_stmt 1
 1264 0292 2546     		mov	r5, r4
 1265              	.LVL168:
 1266 0294 184B     		ldr	r3, .L98+8
 1267 0296 1B78     		ldrb	r3, [r3]	@ zero_extendqisi2
 1268 0298 0193     		str	r3, [sp, #4]
 1269 029a 0094     		str	r4, [sp]
 1270 029c 3246     		mov	r2, r6
 1271 029e 3B46     		mov	r3, r7
 1272 02a0 2E49     		ldr	r1, .L98+108
 1273 02a2 0FA8     		add	r0, sp, #60
 1274 02a4 FFF7FEFF 		bl	sprintf
 1275              	.LVL169:
 350:main.c        ****               if (forced || checkDiff(f1,last31855[i],0.5))
 1276              		.loc 1 350 0
 1277 02a8 099B     		ldr	r3, [sp, #36]
 1278 02aa 73B9     		cbnz	r3, .L77
 1279              		.loc 1 350 0 is_stmt 0 discriminator 1
 1280 02ac 134B     		ldr	r3, .L98+12
 1281 02ae 03EB8403 		add	r3, r3, r4, lsl #2
 1282 02b2 D3F80480 		ldr	r8, [r3, #4]	@ float
 1283 02b6 3046     		mov	r0, r6
 1284 02b8 3946     		mov	r1, r7
 1285 02ba FFF7FEFF 		bl	__aeabi_d2f
 1286              	.LVL170:
 1287 02be 4FF07C52 		mov	r2, #1056964608
 1288 02c2 4146     		mov	r1, r8
 1289 02c4 FFF7FEFF 		bl	checkDiff
 1290              	.LVL171:
 1291 02c8 68B1     		cbz	r0, .L78
 1292              	.L77:
 351:main.c        ****               {
 352:main.c        ****                 last31855[i] = f1;
 1293              		.loc 1 352 0 is_stmt 1
 1294 02ca 0C4B     		ldr	r3, .L98+12
 1295 02cc 03EB8505 		add	r5, r3, r5, lsl #2
 1296 02d0 3046     		mov	r0, r6
 1297 02d2 3946     		mov	r1, r7
 1298 02d4 FFF7FEFF 		bl	__aeabi_d2f
 1299              	.LVL172:
 1300 02d8 6860     		str	r0, [r5, #4]	@ float
 353:main.c        ****                 CyDelay(20);
ARM GAS  C:\Users\scott\AppData\Local\Temp\ccZtjjlv.s 			page 31


 1301              		.loc 1 353 0
 1302 02da 1420     		movs	r0, #20
 1303 02dc FFF7FEFF 		bl	CyDelay
 1304              	.LVL173:
 354:main.c        ****                 Wemos_PutString(ts);
 1305              		.loc 1 354 0
 1306 02e0 0FA8     		add	r0, sp, #60
 1307 02e2 FFF7FEFF 		bl	Wemos_PutString
 1308              	.LVL174:
 1309              	.L78:
 355:main.c        ****               }
 356:main.c        ****               CyDelay(50);
 1310              		.loc 1 356 0
 1311 02e6 3220     		movs	r0, #50
 1312 02e8 FFF7FEFF 		bl	CyDelay
 1313              	.LVL175:
 1314 02ec 65E0     		b	.L73
 1315              	.L99:
 1316 02ee 00BF     		.align	3
 1317              	.L98:
 1318 02f0 A245B6F3 		.word	-206158430
 1319 02f4 FDD4F03F 		.word	1072747773
 1320 02f8 00000000 		.word	myId
 1321 02fc 00000000 		.word	.LANCHOR0
 1322 0300 00000000 		.word	rs485_pos
 1323 0304 00000000 		.word	Global_time
 1324 0308 00000000 		.word	rx_timed_out
 1325 030c 5C000000 		.word	.LC3
 1326 0310 00000000 		.word	version
 1327 0314 00000000 		.word	modbus_wait
 1328 0318 00000000 		.word	modbus_state
 1329 031c 00000000 		.word	modbus_slave
 1330 0320 00000000 		.word	Timer_ISR
 1331 0324 00000000 		.word	Rx_ISR
 1332 0328 00000000 		.word	Rx_Timer_ISR
 1333 032c 00000000 		.word	Wemos_Rx_ISR
 1334 0330 00000000 		.word	esc
 1335 0334 00000000 		.word	wemos_buffer
 1336 0338 74000000 		.word	.LC4
 1337 033c 0000A0C1 		.word	-1046478848
 1338 0340 0AD7233C 		.word	1008981770
 1339 0344 84000000 		.word	.LC5
 1340 0348 C0090E00 		.word	920000
 1341 034c 00002440 		.word	1076101120
 1342 0350 94000000 		.word	.LC6
 1343 0354 00005940 		.word	1079574528
 1344 0358 00003EC0 		.word	-1069678592
 1345 035c B0000000 		.word	.LC7
 1346              	.LVL176:
 1347              	.L72:
 357:main.c        ****             }
 358:main.c        ****           }
 359:main.c        ****           else
 360:main.c        ****           {
 361:main.c        ****             if ((ReadingResult & 0xff) != 0xff)
 1348              		.loc 1 361 0
 1349 0360 C3B2     		uxtb	r3, r0
ARM GAS  C:\Users\scott\AppData\Local\Temp\ccZtjjlv.s 			page 32


 1350 0362 FF2B     		cmp	r3, #255
 1351 0364 29D0     		beq	.L73
 362:main.c        ****             {
 363:main.c        ****               if (ReadingResult & 0x01)
 1352              		.loc 1 363 0
 1353 0366 10F0010F 		tst	r0, #1
 1354 036a 09D0     		beq	.L79
 364:main.c        ****               {
 365:main.c        ****                 sprintf(ts,"E|000|Fault - Open Connection, no thermocouple|%d|%c\r\n",i,myId);
 1355              		.loc 1 365 0
 1356 036c 844B     		ldr	r3, .L100
 1357 036e 1B78     		ldrb	r3, [r3]	@ zero_extendqisi2
 1358 0370 2246     		mov	r2, r4
 1359 0372 8449     		ldr	r1, .L100+4
 1360 0374 0FA8     		add	r0, sp, #60
 1361              	.LVL177:
 1362 0376 FFF7FEFF 		bl	sprintf
 1363              	.LVL178:
 366:main.c        ****                 Wemos_PutString(ts);
 1364              		.loc 1 366 0
 1365 037a 0FA8     		add	r0, sp, #60
 1366 037c FFF7FEFF 		bl	Wemos_PutString
 1367              	.LVL179:
 1368              	.L79:
 367:main.c        ****               }
 368:main.c        ****               if (ReadingResult & 0x02)
 1369              		.loc 1 368 0
 1370 0380 15F0020F 		tst	r5, #2
 1371 0384 09D0     		beq	.L80
 369:main.c        ****               {
 370:main.c        ****                 sprintf(ts,"E|000|Fault - Short to ground on thermocouple|%d|%c\r\n",i,myId);
 1372              		.loc 1 370 0
 1373 0386 7E4B     		ldr	r3, .L100
 1374 0388 1B78     		ldrb	r3, [r3]	@ zero_extendqisi2
 1375 038a 2246     		mov	r2, r4
 1376 038c 7E49     		ldr	r1, .L100+8
 1377 038e 0FA8     		add	r0, sp, #60
 1378 0390 FFF7FEFF 		bl	sprintf
 1379              	.LVL180:
 371:main.c        ****                 Wemos_PutString(ts);
 1380              		.loc 1 371 0
 1381 0394 0FA8     		add	r0, sp, #60
 1382 0396 FFF7FEFF 		bl	Wemos_PutString
 1383              	.LVL181:
 1384              	.L80:
 372:main.c        ****               }
 373:main.c        ****               if (ReadingResult & 0x04)
 1385              		.loc 1 373 0
 1386 039a 15F0040F 		tst	r5, #4
 1387 039e 09D0     		beq	.L81
 374:main.c        ****               {
 375:main.c        ****                 sprintf(ts,"E|000|Fault - Short to VCC on thermocouple|%d|%c\r\n",i,myId);
 1388              		.loc 1 375 0
 1389 03a0 774B     		ldr	r3, .L100
 1390 03a2 1B78     		ldrb	r3, [r3]	@ zero_extendqisi2
 1391 03a4 2246     		mov	r2, r4
 1392 03a6 7949     		ldr	r1, .L100+12
ARM GAS  C:\Users\scott\AppData\Local\Temp\ccZtjjlv.s 			page 33


 1393 03a8 0FA8     		add	r0, sp, #60
 1394 03aa FFF7FEFF 		bl	sprintf
 1395              	.LVL182:
 376:main.c        ****                 Wemos_PutString(ts);
 1396              		.loc 1 376 0
 1397 03ae 0FA8     		add	r0, sp, #60
 1398 03b0 FFF7FEFF 		bl	Wemos_PutString
 1399              	.LVL183:
 1400              	.L81:
 377:main.c        ****               }
 378:main.c        ****               CyDelay(50);
 1401              		.loc 1 378 0
 1402 03b4 3220     		movs	r0, #50
 1403 03b6 FFF7FEFF 		bl	CyDelay
 1404              	.LVL184:
 1405              	.L73:
 341:main.c        ****         {
 1406              		.loc 1 341 0 discriminator 2
 1407 03ba 0134     		adds	r4, r4, #1
 1408              	.LVL185:
 1409 03bc E4B2     		uxtb	r4, r4
 1410              	.LVL186:
 1411              	.L71:
 341:main.c        ****         {
 1412              		.loc 1 341 0 is_stmt 0 discriminator 1
 1413 03be 072C     		cmp	r4, #7
 1414 03c0 7FF641AF 		bls	.L82
 1415 03c4 0024     		movs	r4, #0
 1416              	.LVL187:
 1417 03c6 48E0     		b	.L83
 1418              	.LVL188:
 1419              	.L86:
 379:main.c        ****             }
 380:main.c        ****           }
 381:main.c        ****         }
 382:main.c        **** 
 383:main.c        ****         for (i = 0; i < devices.size; ++i) // get the temperatures from all of the DS18B20s that re
 384:main.c        ****         {
 385:main.c        ****           temperature = ds18b20_read_temperature(devices.devices[i]);
 1420              		.loc 1 385 0 is_stmt 1
 1421 03c8 0E9E     		ldr	r6, [sp, #56]
 1422 03ca 06EBC406 		add	r6, r6, r4, lsl #3
 1423 03ce 3068     		ldr	r0, [r6]	@ unaligned
 1424 03d0 7168     		ldr	r1, [r6, #4]	@ unaligned
 1425 03d2 FFF7FEFF 		bl	ds18b20_read_temperature
 1426              	.LVL189:
 1427 03d6 0546     		mov	r5, r0
 1428              	.LVL190:
 386:main.c        **** 
 387:main.c        ****           address = devices.devices[i];
 1429              		.loc 1 387 0
 1430 03d8 0BAB     		add	r3, sp, #44
 1431 03da 3068     		ldr	r0, [r6]	@ unaligned
 1432              	.LVL191:
 1433 03dc 7168     		ldr	r1, [r6, #4]	@ unaligned
 1434 03de 03C3     		stmia	r3!, {r0, r1}
 388:main.c        ****           sprintf(ts,"T|000|%06.2lf|%02x%02x%02x%02x%02x%02x|%c\r\n",
ARM GAS  C:\Users\scott\AppData\Local\Temp\ccZtjjlv.s 			page 34


 389:main.c        ****               temperature,address.address[2],address.address[3],
 1435              		.loc 1 389 0
 1436 03e0 9DF82E60 		ldrb	r6, [sp, #46]	@ zero_extendqisi2
 1437 03e4 9DF82F70 		ldrb	r7, [sp, #47]	@ zero_extendqisi2
 390:main.c        ****               address.address[4],address.address[5],address.address[6],
 1438              		.loc 1 390 0
 1439 03e8 9DF83080 		ldrb	r8, [sp, #48]	@ zero_extendqisi2
 1440 03ec 9DF83190 		ldrb	r9, [sp, #49]	@ zero_extendqisi2
 1441 03f0 9DF832A0 		ldrb	r10, [sp, #50]	@ zero_extendqisi2
 391:main.c        ****               address.address[7],myId);
 1442              		.loc 1 391 0
 1443 03f4 9DF833B0 		ldrb	fp, [sp, #51]	@ zero_extendqisi2
 388:main.c        ****           sprintf(ts,"T|000|%06.2lf|%02x%02x%02x%02x%02x%02x|%c\r\n",
 1444              		.loc 1 388 0
 1445 03f8 2846     		mov	r0, r5
 1446 03fa FFF7FEFF 		bl	__aeabi_f2d
 1447              	.LVL192:
 1448 03fe 604B     		ldr	r3, .L100
 1449 0400 1B78     		ldrb	r3, [r3]	@ zero_extendqisi2
 1450 0402 0693     		str	r3, [sp, #24]
 1451 0404 CDF814B0 		str	fp, [sp, #20]
 1452 0408 CDF810A0 		str	r10, [sp, #16]
 1453 040c CDF80C90 		str	r9, [sp, #12]
 1454 0410 CDF80880 		str	r8, [sp, #8]
 1455 0414 0197     		str	r7, [sp, #4]
 1456 0416 0096     		str	r6, [sp]
 1457 0418 0246     		mov	r2, r0
 1458 041a 0B46     		mov	r3, r1
 1459 041c 5C49     		ldr	r1, .L100+16
 1460 041e 0FA8     		add	r0, sp, #60
 1461 0420 FFF7FEFF 		bl	sprintf
 1462              	.LVL193:
 392:main.c        ****           if (forced || checkDiff(temperature,lastDS18B20[i],0.5))
 1463              		.loc 1 392 0
 1464 0424 099B     		ldr	r3, [sp, #36]
 1465 0426 4BB9     		cbnz	r3, .L84
 1466              		.loc 1 392 0 is_stmt 0 discriminator 1
 1467 0428 5A4B     		ldr	r3, .L100+20
 1468 042a 03EB8403 		add	r3, r3, r4, lsl #2
 1469 042e 4FF07C52 		mov	r2, #1056964608
 1470 0432 596A     		ldr	r1, [r3, #36]	@ float
 1471 0434 2846     		mov	r0, r5
 1472 0436 FFF7FEFF 		bl	checkDiff
 1473              	.LVL194:
 1474 043a 48B1     		cbz	r0, .L85
 1475              	.L84:
 393:main.c        ****           {
 394:main.c        ****             CyDelay(20);
 1476              		.loc 1 394 0 is_stmt 1
 1477 043c 1420     		movs	r0, #20
 1478 043e FFF7FEFF 		bl	CyDelay
 1479              	.LVL195:
 395:main.c        ****             Wemos_PutString(ts);
 1480              		.loc 1 395 0
 1481 0442 0FA8     		add	r0, sp, #60
 1482 0444 FFF7FEFF 		bl	Wemos_PutString
 1483              	.LVL196:
ARM GAS  C:\Users\scott\AppData\Local\Temp\ccZtjjlv.s 			page 35


 396:main.c        ****             lastDS18B20[i] = temperature;
 1484              		.loc 1 396 0
 1485 0448 524B     		ldr	r3, .L100+20
 1486 044a 03EB8403 		add	r3, r3, r4, lsl #2
 1487 044e 5D62     		str	r5, [r3, #36]	@ float
 1488              	.L85:
 397:main.c        ****           }
 398:main.c        ****           CyDelay(50);
 1489              		.loc 1 398 0 discriminator 2
 1490 0450 3220     		movs	r0, #50
 1491 0452 FFF7FEFF 		bl	CyDelay
 1492              	.LVL197:
 383:main.c        ****         {
 1493              		.loc 1 383 0 discriminator 2
 1494 0456 0134     		adds	r4, r4, #1
 1495              	.LVL198:
 1496 0458 E4B2     		uxtb	r4, r4
 1497              	.LVL199:
 1498              	.L83:
 383:main.c        ****         {
 1499              		.loc 1 383 0 is_stmt 0 discriminator 1
 1500 045a 9DF83430 		ldrb	r3, [sp, #52]	@ zero_extendqisi2
 1501 045e 9C42     		cmp	r4, r3
 1502 0460 B2D3     		bcc	.L86
 399:main.c        ****         }
 400:main.c        ****         CyDelay(20);
 1503              		.loc 1 400 0 is_stmt 1
 1504 0462 1420     		movs	r0, #20
 1505 0464 FFF7FEFF 		bl	CyDelay
 1506              	.LVL200:
 401:main.c        ****         Wemos_PutString("DONE\r\n");  // Nothing more to send
 1507              		.loc 1 401 0
 1508 0468 4B48     		ldr	r0, .L100+24
 1509 046a FFF7FEFF 		bl	Wemos_PutString
 1510              	.LVL201:
 402:main.c        ****         wemos_buffer[0] = 0;  // Clear the received character buffer
 1511              		.loc 1 402 0
 1512 046e 0024     		movs	r4, #0
 1513              	.LVL202:
 1514 0470 4A4B     		ldr	r3, .L100+28
 1515 0472 1C70     		strb	r4, [r3]
 1516              	.LVL203:
 403:main.c        ****         forced = 0;
 404:main.c        ****         CyDelay(50);
 1517              		.loc 1 404 0
 1518 0474 3220     		movs	r0, #50
 1519 0476 FFF7FEFF 		bl	CyDelay
 1520              	.LVL204:
 405:main.c        ****         LED_Write(0);   // turn the communications indicator light off
 1521              		.loc 1 405 0
 1522 047a 2046     		mov	r0, r4
 1523 047c FFF7FEFF 		bl	LED_Write
 1524              	.LVL205:
 1525              	.L57:
 406:main.c        ****       }
 407:main.c        ****     } // end of communicating with wemos
 408:main.c        ****     if (esc && (Global_time - esc_time > 2000))  // give it 2 seconds for a character to follow the
ARM GAS  C:\Users\scott\AppData\Local\Temp\ccZtjjlv.s 			page 36


 1526              		.loc 1 408 0
 1527 0480 474B     		ldr	r3, .L100+32
 1528 0482 1B78     		ldrb	r3, [r3]	@ zero_extendqisi2
 1529 0484 B3B1     		cbz	r3, .L87
 1530              		.loc 1 408 0 is_stmt 0 discriminator 1
 1531 0486 474B     		ldr	r3, .L100+36
 1532 0488 1B68     		ldr	r3, [r3]
 1533 048a 474A     		ldr	r2, .L100+40
 1534 048c 1268     		ldr	r2, [r2]
 1535 048e 9B1A     		subs	r3, r3, r2
 1536 0490 B3F5FA6F 		cmp	r3, #2000
 1537 0494 0ED9     		bls	.L87
 409:main.c        ****     {
 410:main.c        ****       esc = 0;  // reset the esc flag, since it should have been followed by the id within 2 second
 1538              		.loc 1 410 0 is_stmt 1
 1539 0496 0024     		movs	r4, #0
 1540 0498 414B     		ldr	r3, .L100+32
 1541 049a 1C70     		strb	r4, [r3]
 411:main.c        ****       wemos_pos = 0;
 1542              		.loc 1 411 0
 1543 049c 3D4B     		ldr	r3, .L100+20
 1544 049e 1C70     		strb	r4, [r3]
 412:main.c        ****       wemos_buffer[0] = 0;
 1545              		.loc 1 412 0
 1546 04a0 3E4B     		ldr	r3, .L100+28
 1547 04a2 1C70     		strb	r4, [r3]
 413:main.c        ****       Wemos_PutString("E|000|esc timed out\r\n");
 1548              		.loc 1 413 0
 1549 04a4 4148     		ldr	r0, .L100+44
 1550 04a6 FFF7FEFF 		bl	Wemos_PutString
 1551              	.LVL206:
 414:main.c        ****       Wemos_ClearRxBuffer();
 1552              		.loc 1 414 0
 1553 04aa FFF7FEFF 		bl	Wemos_ClearRxBuffer
 1554              	.LVL207:
 415:main.c        ****       LED_Write(0);
 1555              		.loc 1 415 0
 1556 04ae 2046     		mov	r0, r4
 1557 04b0 FFF7FEFF 		bl	LED_Write
 1558              	.LVL208:
 1559              	.L87:
 416:main.c        ****     }
 417:main.c        ****     switch( modbus_state )
 1560              		.loc 1 417 0
 1561 04b4 3E4B     		ldr	r3, .L100+48
 1562 04b6 1B78     		ldrb	r3, [r3]	@ zero_extendqisi2
 1563 04b8 012B     		cmp	r3, #1
 1564 04ba 0ED0     		beq	.L88
 1565 04bc 13B1     		cbz	r3, .L89
 1566 04be 022B     		cmp	r3, #2
 1567 04c0 3CD0     		beq	.L90
 1568 04c2 FBE5     		b	.L55
 1569              	.L89:
 418:main.c        ****     {
 419:main.c        ****       case 0:
 420:main.c        ****         if (Global_time > modbus_wait)
 1570              		.loc 1 420 0
ARM GAS  C:\Users\scott\AppData\Local\Temp\ccZtjjlv.s 			page 37


 1571 04c4 374A     		ldr	r2, .L100+36
 1572 04c6 1168     		ldr	r1, [r2]
 1573 04c8 3A4A     		ldr	r2, .L100+52
 1574 04ca 1268     		ldr	r2, [r2]
 1575 04cc 9142     		cmp	r1, r2
 1576 04ce 7FF6F5AD 		bls	.L55
 421:main.c        ****         {
 422:main.c        ****           modbus_state++; // wait state
 1577              		.loc 1 422 0
 1578 04d2 0133     		adds	r3, r3, #1
 1579 04d4 364A     		ldr	r2, .L100+48
 1580 04d6 1370     		strb	r3, [r2]
 1581 04d8 F0E5     		b	.L55
 1582              	.L88:
 423:main.c        ****         }
 424:main.c        ****         break;
 425:main.c        ****       case 1:
 426:main.c        ****         LED_Write(1);   // turn the communications indicator light on
 1583              		.loc 1 426 0
 1584 04da 0120     		movs	r0, #1
 1585 04dc FFF7FEFF 		bl	LED_Write
 1586              	.LVL209:
 427:main.c        ****         for (i = 0; i < 60; i++)
 1587              		.loc 1 427 0
 1588 04e0 0022     		movs	r2, #0
 1589 04e2 0BE0     		b	.L91
 1590              	.LVL210:
 1591              	.L92:
 428:main.c        ****           registers[modbus_slave][i] = 0;
 1592              		.loc 1 428 0 discriminator 3
 1593 04e4 344B     		ldr	r3, .L100+56
 1594 04e6 1B78     		ldrb	r3, [r3]	@ zero_extendqisi2
 1595 04e8 C3EB0313 		rsb	r3, r3, r3, lsl #4
 1596 04ec 02EB8303 		add	r3, r2, r3, lsl #2
 1597 04f0 0020     		movs	r0, #0
 1598 04f2 3249     		ldr	r1, .L100+60
 1599 04f4 21F81300 		strh	r0, [r1, r3, lsl #1]	@ movhi
 427:main.c        ****         for (i = 0; i < 60; i++)
 1600              		.loc 1 427 0 discriminator 3
 1601 04f8 0132     		adds	r2, r2, #1
 1602              	.LVL211:
 1603 04fa D2B2     		uxtb	r2, r2
 1604              	.LVL212:
 1605              	.L91:
 427:main.c        ****         for (i = 0; i < 60; i++)
 1606              		.loc 1 427 0 is_stmt 0 discriminator 1
 1607 04fc 3B2A     		cmp	r2, #59
 1608 04fe F1D9     		bls	.L92
 429:main.c        ****         telegram.u8id = MODBUS_BASE_ADDR + modbus_slave; // slave address
 1609              		.loc 1 429 0 is_stmt 1
 1610 0500 2D4C     		ldr	r4, .L100+56
 1611 0502 2278     		ldrb	r2, [r4]	@ zero_extendqisi2
 1612              	.LVL213:
 1613 0504 2E4B     		ldr	r3, .L100+64
 1614 0506 02F13101 		add	r1, r2, #49
 1615 050a 1970     		strb	r1, [r3]
 430:main.c        ****         telegram.u8fct = 3; // function code (this one is registers read)
ARM GAS  C:\Users\scott\AppData\Local\Temp\ccZtjjlv.s 			page 38


 1616              		.loc 1 430 0
 1617 050c 0321     		movs	r1, #3
 1618 050e 5970     		strb	r1, [r3, #1]
 431:main.c        ****         telegram.u16RegAdd = 0; // start address in slave
 1619              		.loc 1 431 0
 1620 0510 0021     		movs	r1, #0
 1621 0512 5980     		strh	r1, [r3, #2]	@ movhi
 432:main.c        ****         telegram.u16CoilsNo = 40; // number of elements (coils or registers) to read
 1622              		.loc 1 432 0
 1623 0514 2821     		movs	r1, #40
 1624 0516 9980     		strh	r1, [r3, #4]	@ movhi
 433:main.c        ****         telegram.au16reg = &registers[modbus_slave][0]; // pointer to a memory array in the Arduino
 1625              		.loc 1 433 0
 1626 0518 C2EB0212 		rsb	r2, r2, r2, lsl #4
 1627 051c 2749     		ldr	r1, .L100+60
 1628 051e 01EBC202 		add	r2, r1, r2, lsl #3
 1629 0522 9A60     		str	r2, [r3, #8]
 434:main.c        ****         Modbus_query( telegram ); // send query (only once)
 1630              		.loc 1 434 0
 1631 0524 93E80700 		ldmia	r3, {r0, r1, r2}
 1632 0528 FFF7FEFF 		bl	Modbus_query
 1633              	.LVL214:
 435:main.c        ****         modbus_state++;   // now looking for responses
 1634              		.loc 1 435 0
 1635 052c 204A     		ldr	r2, .L100+48
 1636 052e 1378     		ldrb	r3, [r2]	@ zero_extendqisi2
 1637 0530 0133     		adds	r3, r3, #1
 1638 0532 1370     		strb	r3, [r2]
 436:main.c        ****         modbus_slave++;   // set up for the next slave
 1639              		.loc 1 436 0
 1640 0534 2378     		ldrb	r3, [r4]	@ zero_extendqisi2
 1641 0536 0133     		adds	r3, r3, #1
 1642 0538 2370     		strb	r3, [r4]
 437:main.c        ****         break;
 1643              		.loc 1 437 0
 1644 053a BFE5     		b	.L55
 1645              	.L90:
 438:main.c        ****       case 2:
 439:main.c        ****         Modbus_poll(); // check incoming messages
 1646              		.loc 1 439 0
 1647 053c FFF7FEFF 		bl	Modbus_poll
 1648              	.LVL215:
 440:main.c        ****         if (Modbus_getState() == COM_IDLE)  // COM_IDLE is after we've received our response
 1649              		.loc 1 440 0
 1650 0540 FFF7FEFF 		bl	Modbus_getState
 1651              	.LVL216:
 1652 0544 0028     		cmp	r0, #0
 1653 0546 7FF4B9AD 		bne	.L55
 441:main.c        ****         {
 442:main.c        ****           modbus_state = 0;
 1654              		.loc 1 442 0
 1655 054a 0022     		movs	r2, #0
 1656 054c 184B     		ldr	r3, .L100+48
 1657 054e 1A70     		strb	r2, [r3]
 443:main.c        ****           if (modbus_slave > (MODBUS_COUNT - 1))
 1658              		.loc 1 443 0
 1659 0550 194B     		ldr	r3, .L100+56
ARM GAS  C:\Users\scott\AppData\Local\Temp\ccZtjjlv.s 			page 39


 1660 0552 1B78     		ldrb	r3, [r3]	@ zero_extendqisi2
 1661 0554 062B     		cmp	r3, #6
 1662 0556 7FF6B1AD 		bls	.L55
 444:main.c        ****           {
 445:main.c        ****             last_modbus_time = Global_time / 1000;  // how many seconds since the last modbus read 
 1663              		.loc 1 445 0
 1664 055a 124B     		ldr	r3, .L100+36
 1665 055c 1B68     		ldr	r3, [r3]
 1666 055e 194A     		ldr	r2, .L100+68
 1667 0560 A2FB0312 		umull	r1, r2, r2, r3
 1668 0564 9209     		lsrs	r2, r2, #6
 1669 0566 1849     		ldr	r1, .L100+72
 1670 0568 0A80     		strh	r2, [r1]	@ movhi
 446:main.c        ****             modbus_wait = Global_time + TIME_BETWEEN_POLLING;  // reset for the next loop
 1671              		.loc 1 446 0
 1672 056a 03F59023 		add	r3, r3, #294912
 1673 056e 5833     		adds	r3, r3, #88
 1674 0570 104A     		ldr	r2, .L100+52
 1675 0572 1360     		str	r3, [r2]
 447:main.c        ****             modbus_slave = 0; // setup for the next time we wake up
 1676              		.loc 1 447 0
 1677 0574 104B     		ldr	r3, .L100+56
 1678 0576 1870     		strb	r0, [r3]
 448:main.c        ****             LED_Write(0);   // Turn the light back off
 1679              		.loc 1 448 0
 1680 0578 FFF7FEFF 		bl	LED_Write
 1681              	.LVL217:
 1682 057c 9EE5     		b	.L55
 1683              	.L101:
 1684 057e 00BF     		.align	2
 1685              	.L100:
 1686 0580 00000000 		.word	myId
 1687 0584 C8000000 		.word	.LC8
 1688 0588 00010000 		.word	.LC9
 1689 058c 38010000 		.word	.LC10
 1690 0590 6C010000 		.word	.LC11
 1691 0594 00000000 		.word	.LANCHOR0
 1692 0598 98010000 		.word	.LC12
 1693 059c 00000000 		.word	wemos_buffer
 1694 05a0 00000000 		.word	esc
 1695 05a4 00000000 		.word	Global_time
 1696 05a8 00000000 		.word	esc_time
 1697 05ac A0010000 		.word	.LC13
 1698 05b0 00000000 		.word	modbus_state
 1699 05b4 00000000 		.word	modbus_wait
 1700 05b8 00000000 		.word	modbus_slave
 1701 05bc 00000000 		.word	registers
 1702 05c0 00000000 		.word	telegram
 1703 05c4 D34D6210 		.word	274877907
 1704 05c8 00000000 		.word	last_modbus_time
 1705              		.cfi_endproc
 1706              	.LFE71:
 1707              		.size	main, .-main
 1708              		.comm	telegram,12,4
 1709              		.global	lastPins
 1710              		.global	lastDS18B20
 1711              		.global	last31855
ARM GAS  C:\Users\scott\AppData\Local\Temp\ccZtjjlv.s 			page 40


 1712              		.global	last_Adc_result
 1713              		.comm	temp_regs,80,4
 1714              		.comm	modbus_wait,4,4
 1715              		.comm	modbus_slave,1,1
 1716              		.comm	modbus_state,1,1
 1717              		.comm	last_registers,840,4
 1718              		.comm	registers,840,4
 1719              		.comm	version,12,4
 1720              		.comm	esc_time,4,4
 1721              		.comm	last_modbus_time,2,2
 1722              		.comm	Global_time,4,4
 1723              		.comm	esc,1,1
 1724              		.comm	rs485_pos,1,1
 1725              		.global	wemos_pos
 1726              		.comm	slave_id,1,1
 1727              		.comm	rx_timed_out,1,1
 1728              		.comm	myId,1,1
 1729              		.comm	rs485_buffer,256,4
 1730              		.comm	wemos_buffer,256,4
 1731              		.section	.rodata.str1.4,"aMS",%progbits,1
 1732              		.align	2
 1733              	.LC0:
 1734 0000 547C2530 		.ascii	"T|%03d|%06.2f|%04x%04x%04x|%c|%c\015\012\000"
 1734      33647C25 
 1734      30362E32 
 1734      667C2530 
 1734      34782530 
 1735 0023 00       		.space	1
 1736              	.LC1:
 1737 0024 487C2530 		.ascii	"H|%03d|%06.2f|%05.2f|%05.2f|%c|%c\015\012\000"
 1737      33647C25 
 1737      30362E32 
 1737      667C2530 
 1737      352E3266 
 1738              	.LC2:
 1739 0048 507C2530 		.ascii	"P|%03d|%s|%c|%c\015\012\000"
 1739      33647C25 
 1739      737C2563 
 1739      7C25630D 
 1739      0A00
 1740 005a 0000     		.space	2
 1741              	.LC3:
 1742 005c 25303264 		.ascii	"%02d%02d%02d-%02d%02d\000"
 1742      25303264 
 1742      25303264 
 1742      2D253032 
 1742      64253032 
 1743 0072 0000     		.space	2
 1744              	.LC4:
 1745 0074 527C3030 		.ascii	"R|000|%s|%c\015\012\000"
 1745      307C2573 
 1745      7C25630D 
 1745      0A00
 1746 0082 0000     		.space	2
 1747              	.LC5:
 1748 0084 507C3030 		.ascii	"P|000|%s|%c\015\012\000"
 1748      307C2573 
ARM GAS  C:\Users\scott\AppData\Local\Temp\ccZtjjlv.s 			page 41


 1748      7C25630D 
 1748      0A00
 1749 0092 0000     		.space	2
 1750              	.LC6:
 1751 0094 417C3030 		.ascii	"A|000|%06.2lf|%06lu|%d|%c\015\012\000"
 1751      307C2530 
 1751      362E326C 
 1751      667C2530 
 1751      366C757C 
 1752              	.LC7:
 1753 00b0 4D7C3030 		.ascii	"M|000|%06.2lf|%d|%c\015\012\000"
 1753      307C2530 
 1753      362E326C 
 1753      667C2564 
 1753      7C25630D 
 1754 00c6 0000     		.space	2
 1755              	.LC8:
 1756 00c8 457C3030 		.ascii	"E|000|Fault - Open Connection, no thermocouple|%d|%"
 1756      307C4661 
 1756      756C7420 
 1756      2D204F70 
 1756      656E2043 
 1757 00fb 630D0A00 		.ascii	"c\015\012\000"
 1758 00ff 00       		.space	1
 1759              	.LC9:
 1760 0100 457C3030 		.ascii	"E|000|Fault - Short to ground on thermocouple|%d|%c"
 1760      307C4661 
 1760      756C7420 
 1760      2D205368 
 1760      6F727420 
 1761 0133 0D0A00   		.ascii	"\015\012\000"
 1762 0136 0000     		.space	2
 1763              	.LC10:
 1764 0138 457C3030 		.ascii	"E|000|Fault - Short to VCC on thermocouple|%d|%c\015"
 1764      307C4661 
 1764      756C7420 
 1764      2D205368 
 1764      6F727420 
 1765 0169 0A00     		.ascii	"\012\000"
 1766 016b 00       		.space	1
 1767              	.LC11:
 1768 016c 547C3030 		.ascii	"T|000|%06.2lf|%02x%02x%02x%02x%02x%02x|%c\015\012\000"
 1768      307C2530 
 1768      362E326C 
 1768      667C2530 
 1768      32782530 
 1769              	.LC12:
 1770 0198 444F4E45 		.ascii	"DONE\015\012\000"
 1770      0D0A00
 1771 019f 00       		.space	1
 1772              	.LC13:
 1773 01a0 457C3030 		.ascii	"E|000|esc timed out\015\012\000"
 1773      307C6573 
 1773      63207469 
 1773      6D656420 
 1773      6F75740D 
 1774              		.bss
ARM GAS  C:\Users\scott\AppData\Local\Temp\ccZtjjlv.s 			page 42


 1775              		.align	2
 1776              		.set	.LANCHOR0,. + 0
 1777              		.type	wemos_pos, %object
 1778              		.size	wemos_pos, 1
 1779              	wemos_pos:
 1780 0000 00       		.space	1
 1781 0001 000000   		.space	3
 1782              		.type	last31855, %object
 1783              		.size	last31855, 32
 1784              	last31855:
 1785 0004 00000000 		.space	32
 1785      00000000 
 1785      00000000 
 1785      00000000 
 1785      00000000 
 1786              		.type	lastDS18B20, %object
 1787              		.size	lastDS18B20, 40
 1788              	lastDS18B20:
 1789 0024 00000000 		.space	40
 1789      00000000 
 1789      00000000 
 1789      00000000 
 1789      00000000 
 1790              		.type	last_Adc_result, %object
 1791              		.size	last_Adc_result, 16
 1792              	last_Adc_result:
 1793 004c 00000000 		.space	16
 1793      00000000 
 1793      00000000 
 1793      00000000 
 1794              		.type	lastPins, %object
 1795              		.size	lastPins, 1
 1796              	lastPins:
 1797 005c 00       		.space	1
 1798              		.text
 1799              	.Letext0:
 1800              		.file 2 "c:\\program files (x86)\\cypress\\psoc creator\\4.2\\psoc creator\\import\\gnu\\arm\\5.4.
 1801              		.file 3 "c:\\program files (x86)\\cypress\\psoc creator\\4.2\\psoc creator\\import\\gnu\\arm\\5.4.
 1802              		.file 4 "Generated_Source\\PSoC5/cytypes.h"
 1803              		.file 5 "../one_wire.h"
 1804              		.file 6 "../ds18b20.h"
 1805              		.file 7 "../ModbusRtu.h"
 1806              		.file 8 "Generated_Source\\PSoC5/core_cm3.h"
 1807              		.file 9 "Generated_Source\\PSoC5/Timer_Int.h"
 1808              		.file 10 "Generated_Source\\PSoC5/Rx_Timer.h"
 1809              		.file 11 "Generated_Source\\PSoC5/Rx_Timer_Int.h"
 1810              		.file 12 "Generated_Source\\PSoC5/RS485.h"
 1811              		.file 13 "Generated_Source\\PSoC5/Wemos.h"
 1812              		.file 14 "Generated_Source\\PSoC5/LED.h"
 1813              		.file 15 "Generated_Source\\PSoC5/CyLib.h"
 1814              		.file 16 "c:\\program files (x86)\\cypress\\psoc creator\\4.2\\psoc creator\\import\\gnu\\arm\\5.4
 1815              		.file 17 "Generated_Source\\PSoC5/DIP.h"
 1816              		.file 18 "Generated_Source\\PSoC5/Timer.h"
 1817              		.file 19 "Generated_Source\\PSoC5/Rx_Int.h"
 1818              		.file 20 "Generated_Source\\PSoC5/Temp_CS.h"
 1819              		.file 21 "Generated_Source\\PSoC5/Temp_CLK.h"
 1820              		.file 22 "Generated_Source\\PSoC5/Wemos_Rx_Int.h"
ARM GAS  C:\Users\scott\AppData\Local\Temp\ccZtjjlv.s 			page 43


 1821              		.file 23 "Generated_Source\\PSoC5/AMux.h"
 1822              		.file 24 "Generated_Source\\PSoC5/ADC.h"
 1823              		.file 25 "Generated_Source\\PSoC5/DINP.h"
 1824              		.file 26 "c:\\program files (x86)\\cypress\\psoc creator\\4.2\\psoc creator\\import\\gnu\\arm\\5.4
 1825              		.file 27 "../max31855.h"