ARM GAS  C:\Users\scott\AppData\Local\Temp\cc9wzVNc.s 			page 1


   1              		.syntax unified
   2              		.cpu cortex-m3
   3              		.fpu softvfp
   4              		.eabi_attribute 20, 1
   5              		.eabi_attribute 21, 1
   6              		.eabi_attribute 23, 3
   7              		.eabi_attribute 24, 1
   8              		.eabi_attribute 25, 1
   9              		.eabi_attribute 26, 1
  10              		.eabi_attribute 30, 1
  11              		.eabi_attribute 34, 1
  12              		.eabi_attribute 18, 4
  13              		.thumb
  14              		.syntax unified
  15              		.file	"max31855.c"
  16              		.text
  17              	.Ltext0:
  18              		.cfi_sections	.debug_frame
  19              		.section	.text.read_max31855,"ax",%progbits
  20              		.align	2
  21              		.global	read_max31855
  22              		.thumb
  23              		.thumb_func
  24              		.type	read_max31855, %function
  25              	read_max31855:
  26              	.LFB64:
  27              		.file 1 "..\\max31855.c"
   1:..\max31855.c **** #include "project.h"
   2:..\max31855.c **** #include <stdio.h>
   3:..\max31855.c **** #include <stdlib.h>
   4:..\max31855.c **** #include "max31855.h"
   5:..\max31855.c **** 
   6:..\max31855.c **** uint32_t read_max31855(uint8_t chip)
   7:..\max31855.c **** {
  28              		.loc 1 7 0
  29              		.cfi_startproc
  30              		@ args = 0, pretend = 0, frame = 0
  31              		@ frame_needed = 0, uses_anonymous_args = 0
  32              	.LVL0:
  33 0000 38B5     		push	{r3, r4, r5, lr}
  34              		.cfi_def_cfa_offset 16
  35              		.cfi_offset 3, -16
  36              		.cfi_offset 4, -12
  37              		.cfi_offset 5, -8
  38              		.cfi_offset 14, -4
  39              	.LVL1:
   8:..\max31855.c ****     int i;
   9:..\max31855.c ****     uint8_t chip_bit;
  10:..\max31855.c ****     uint32_t d;
  11:..\max31855.c **** 
  12:..\max31855.c ****     d = 0;
  13:..\max31855.c ****     chip_bit = ~(1<<chip);
  40              		.loc 1 13 0
  41 0002 0123     		movs	r3, #1
  42 0004 03FA00F0 		lsl	r0, r3, r0
  43              	.LVL2:
  44 0008 C043     		mvns	r0, r0
ARM GAS  C:\Users\scott\AppData\Local\Temp\cc9wzVNc.s 			page 2


  45              	.LVL3:
  14:..\max31855.c ****     Temp_CS_Write(chip_bit);
  46              		.loc 1 14 0
  47 000a C0B2     		uxtb	r0, r0
  48 000c FFF7FEFF 		bl	Temp_CS_Write
  49              	.LVL4:
  15:..\max31855.c **** 
  16:..\max31855.c ****     CyDelayUs(250);
  50              		.loc 1 16 0
  51 0010 FA20     		movs	r0, #250
  52 0012 FFF7FEFF 		bl	CyDelayUs
  53              	.LVL5:
  17:..\max31855.c ****     // software SPI
  18:..\max31855.c ****     Temp_CLK_Write(0);
  54              		.loc 1 18 0
  55 0016 0020     		movs	r0, #0
  56 0018 FFF7FEFF 		bl	Temp_CLK_Write
  57              	.LVL6:
  19:..\max31855.c ****     CyDelayUs(3);
  58              		.loc 1 19 0
  59 001c 0320     		movs	r0, #3
  60 001e FFF7FEFF 		bl	CyDelayUs
  61              	.LVL7:
  12:..\max31855.c ****     chip_bit = ~(1<<chip);
  62              		.loc 1 12 0
  63 0022 0025     		movs	r5, #0
  20:..\max31855.c ****     for (i=31; i>=0; i--) {
  64              		.loc 1 20 0
  65 0024 1F24     		movs	r4, #31
  66 0026 12E0     		b	.L2
  67              	.LVL8:
  68              	.L4:
  21:..\max31855.c ****         Temp_CLK_Write(0);
  69              		.loc 1 21 0
  70 0028 0020     		movs	r0, #0
  71 002a FFF7FEFF 		bl	Temp_CLK_Write
  72              	.LVL9:
  22:..\max31855.c ****         CyDelayUs(1);
  73              		.loc 1 22 0
  74 002e 0120     		movs	r0, #1
  75 0030 FFF7FEFF 		bl	CyDelayUs
  76              	.LVL10:
  23:..\max31855.c ****         d <<= 1;
  77              		.loc 1 23 0
  78 0034 6D00     		lsls	r5, r5, #1
  79              	.LVL11:
  24:..\max31855.c ****         if (MAX31855_MISO_Read())
  80              		.loc 1 24 0
  81 0036 FFF7FEFF 		bl	MAX31855_MISO_Read
  82              	.LVL12:
  83 003a 08B1     		cbz	r0, .L3
  25:..\max31855.c ****         {
  26:..\max31855.c ****             d |= 1;
  84              		.loc 1 26 0
  85 003c 45F00105 		orr	r5, r5, #1
  86              	.LVL13:
  87              	.L3:
ARM GAS  C:\Users\scott\AppData\Local\Temp\cc9wzVNc.s 			page 3


  27:..\max31855.c ****         }
  28:..\max31855.c **** 
  29:..\max31855.c ****         Temp_CLK_Write(1);
  88              		.loc 1 29 0 discriminator 2
  89 0040 0120     		movs	r0, #1
  90 0042 FFF7FEFF 		bl	Temp_CLK_Write
  91              	.LVL14:
  30:..\max31855.c ****         CyDelayUs(3);
  92              		.loc 1 30 0 discriminator 2
  93 0046 0320     		movs	r0, #3
  94 0048 FFF7FEFF 		bl	CyDelayUs
  95              	.LVL15:
  20:..\max31855.c ****         Temp_CLK_Write(0);
  96              		.loc 1 20 0 discriminator 2
  97 004c 013C     		subs	r4, r4, #1
  98              	.LVL16:
  99              	.L2:
  20:..\max31855.c ****         Temp_CLK_Write(0);
 100              		.loc 1 20 0 is_stmt 0 discriminator 1
 101 004e 002C     		cmp	r4, #0
 102 0050 EADA     		bge	.L4
  31:..\max31855.c ****     }
  32:..\max31855.c **** 
  33:..\max31855.c ****     Temp_CS_Write(0xff);
 103              		.loc 1 33 0 is_stmt 1
 104 0052 FF20     		movs	r0, #255
 105 0054 FFF7FEFF 		bl	Temp_CS_Write
 106              	.LVL17:
  34:..\max31855.c ****     return d;
  35:..\max31855.c **** }
 107              		.loc 1 35 0
 108 0058 2846     		mov	r0, r5
 109 005a 38BD     		pop	{r3, r4, r5, pc}
 110              		.cfi_endproc
 111              	.LFE64:
 112              		.size	read_max31855, .-read_max31855
 113              		.global	__aeabi_i2d
 114              		.global	__aeabi_dmul
 115              		.section	.text.max31855_Celsius,"ax",%progbits
 116              		.align	2
 117              		.global	max31855_Celsius
 118              		.thumb
 119              		.thumb_func
 120              		.type	max31855_Celsius, %function
 121              	max31855_Celsius:
 122              	.LFB65:
  36:..\max31855.c **** 
  37:..\max31855.c **** double max31855_Celsius(uint8_t chip)
  38:..\max31855.c **** {
 123              		.loc 1 38 0
 124              		.cfi_startproc
 125              		@ args = 0, pretend = 0, frame = 0
 126              		@ frame_needed = 0, uses_anonymous_args = 0
 127              	.LVL18:
 128 0000 08B5     		push	{r3, lr}
 129              		.cfi_def_cfa_offset 8
 130              		.cfi_offset 3, -8
ARM GAS  C:\Users\scott\AppData\Local\Temp\cc9wzVNc.s 			page 4


 131              		.cfi_offset 14, -4
  39:..\max31855.c ****     int32_t v;
  40:..\max31855.c **** 
  41:..\max31855.c ****     v = read_max31855(chip);
 132              		.loc 1 41 0
 133 0002 FFF7FEFF 		bl	read_max31855
 134              	.LVL19:
  42:..\max31855.c ****     if (v & 0x05)
 135              		.loc 1 42 0
 136 0006 10F0050F 		tst	r0, #5
 137 000a 04D0     		beq	.L7
  43:..\max31855.c ****     {
  44:..\max31855.c ****     // uh oh, a serious problem!
  45:..\max31855.c ****         return (v & 0x07);
 138              		.loc 1 45 0
 139 000c 00F00700 		and	r0, r0, #7
 140              	.LVL20:
 141 0010 FFF7FEFF 		bl	__aeabi_i2d
 142              	.LVL21:
 143 0014 08BD     		pop	{r3, pc}
 144              	.LVL22:
 145              	.L7:
  46:..\max31855.c ****     }
  47:..\max31855.c **** 
  48:..\max31855.c ****     if (v & 0x80000000)
 146              		.loc 1 48 0
 147 0016 0028     		cmp	r0, #0
 148 0018 05DA     		bge	.L9
  49:..\max31855.c ****     {
  50:..\max31855.c ****         // Negative value, drop the lower 18 bits and explicitly extend sign bits.
  51:..\max31855.c ****         v = 0xFFFFC000 | ((v >> 18) & 0x00003FFFF);
 149              		.loc 1 51 0
 150 001a 8014     		asrs	r0, r0, #18
 151              	.LVL23:
 152 001c 6FEA8040 		mvn	r0, r0, lsl #18
 153 0020 6FEA9040 		mvn	r0, r0, lsr #18
 154              	.LVL24:
 155 0024 00E0     		b	.L10
 156              	.L9:
  52:..\max31855.c ****     }
  53:..\max31855.c ****     else
  54:..\max31855.c ****     {
  55:..\max31855.c ****         // Positive value, just drop the lower 18 bits.
  56:..\max31855.c ****         v >>= 18;
 157              		.loc 1 56 0
 158 0026 8014     		asrs	r0, r0, #18
 159              	.LVL25:
 160              	.L10:
  57:..\max31855.c ****     }
  58:..\max31855.c ****     double centigrade = v;
 161              		.loc 1 58 0
 162 0028 FFF7FEFF 		bl	__aeabi_i2d
 163              	.LVL26:
  59:..\max31855.c ****     // LSB = 0.25 degrees C
  60:..\max31855.c ****     centigrade *= 0.25;
 164              		.loc 1 60 0
 165 002c 0022     		movs	r2, #0
ARM GAS  C:\Users\scott\AppData\Local\Temp\cc9wzVNc.s 			page 5


 166 002e 024B     		ldr	r3, .L12
 167 0030 FFF7FEFF 		bl	__aeabi_dmul
 168              	.LVL27:
  61:..\max31855.c ****     return centigrade;
  62:..\max31855.c **** }
 169              		.loc 1 62 0
 170 0034 08BD     		pop	{r3, pc}
 171              	.L13:
 172 0036 00BF     		.align	2
 173              	.L12:
 174 0038 0000D03F 		.word	1070596096
 175              		.cfi_endproc
 176              	.LFE65:
 177              		.size	max31855_Celsius, .-max31855_Celsius
 178              		.global	__aeabi_d2f
 179              		.global	__aeabi_f2d
 180              		.global	__aeabi_fadd
 181              		.section	.text.max31855_Farenheit,"ax",%progbits
 182              		.align	2
 183              		.global	max31855_Farenheit
 184              		.thumb
 185              		.thumb_func
 186              		.type	max31855_Farenheit, %function
 187              	max31855_Farenheit:
 188              	.LFB66:
  63:..\max31855.c **** double max31855_Farenheit(uint8_t chip)
  64:..\max31855.c **** {
 189              		.loc 1 64 0
 190              		.cfi_startproc
 191              		@ args = 0, pretend = 0, frame = 0
 192              		@ frame_needed = 0, uses_anonymous_args = 0
 193              	.LVL28:
 194 0000 08B5     		push	{r3, lr}
 195              		.cfi_def_cfa_offset 8
 196              		.cfi_offset 3, -8
 197              		.cfi_offset 14, -4
  65:..\max31855.c ****     float f = max31855_Celsius(chip);
 198              		.loc 1 65 0
 199 0002 FFF7FEFF 		bl	max31855_Celsius
 200              	.LVL29:
 201 0006 FFF7FEFF 		bl	__aeabi_d2f
 202              	.LVL30:
  66:..\max31855.c ****     f *= 1.8;
 203              		.loc 1 66 0
 204 000a FFF7FEFF 		bl	__aeabi_f2d
 205              	.LVL31:
 206 000e 08A3     		adr	r3, .L16
 207 0010 D3E90023 		ldrd	r2, [r3]
 208 0014 FFF7FEFF 		bl	__aeabi_dmul
 209              	.LVL32:
 210 0018 FFF7FEFF 		bl	__aeabi_d2f
 211              	.LVL33:
  67:..\max31855.c ****     f += 32;
 212              		.loc 1 67 0
 213 001c 4FF08441 		mov	r1, #1107296256
 214 0020 FFF7FEFF 		bl	__aeabi_fadd
 215              	.LVL34:
ARM GAS  C:\Users\scott\AppData\Local\Temp\cc9wzVNc.s 			page 6


  68:..\max31855.c ****     return f;
 216              		.loc 1 68 0
 217 0024 FFF7FEFF 		bl	__aeabi_f2d
 218              	.LVL35:
  69:..\max31855.c **** }
 219              		.loc 1 69 0
 220 0028 08BD     		pop	{r3, pc}
 221              	.L17:
 222 002a 00BFAFF3 		.align	3
 222      0080
 223              	.L16:
 224 0030 CDCCCCCC 		.word	-858993459
 225 0034 CCCCFC3F 		.word	1073532108
 226              		.cfi_endproc
 227              	.LFE66:
 228              		.size	max31855_Farenheit, .-max31855_Farenheit
 229              		.global	__aeabi_ui2d
 230              		.global	__aeabi_ui2f
 231              		.global	__aeabi_i2f
 232              		.global	__aeabi_fmul
 233              		.global	__aeabi_fcmpeq
 234              		.section	.text.max31855_Internal,"ax",%progbits
 235              		.align	2
 236              		.global	max31855_Internal
 237              		.thumb
 238              		.thumb_func
 239              		.type	max31855_Internal, %function
 240              	max31855_Internal:
 241              	.LFB67:
  70:..\max31855.c **** 
  71:..\max31855.c **** double max31855_Internal(uint8_t chip)
  72:..\max31855.c **** {
 242              		.loc 1 72 0
 243              		.cfi_startproc
 244              		@ args = 0, pretend = 0, frame = 0
 245              		@ frame_needed = 0, uses_anonymous_args = 0
 246              	.LVL36:
 247 0000 10B5     		push	{r4, lr}
 248              		.cfi_def_cfa_offset 8
 249              		.cfi_offset 4, -8
 250              		.cfi_offset 14, -4
  73:..\max31855.c ****     uint32_t v;
  74:..\max31855.c ****     float internal;
  75:..\max31855.c **** 
  76:..\max31855.c ****     v = read_max31855(chip);
 251              		.loc 1 76 0
 252 0002 FFF7FEFF 		bl	read_max31855
 253              	.LVL37:
  77:..\max31855.c ****     if (v & 0x07)
 254              		.loc 1 77 0
 255 0006 10F00703 		ands	r3, r0, #7
 256 000a 03D0     		beq	.L19
  78:..\max31855.c ****     {
  79:..\max31855.c ****         return (v & 0x07);
 257              		.loc 1 79 0
 258 000c 1846     		mov	r0, r3
 259              	.LVL38:
ARM GAS  C:\Users\scott\AppData\Local\Temp\cc9wzVNc.s 			page 7


 260 000e FFF7FEFF 		bl	__aeabi_ui2d
 261              	.LVL39:
 262 0012 10BD     		pop	{r4, pc}
 263              	.LVL40:
 264              	.L19:
  80:..\max31855.c ****     }
  81:..\max31855.c ****     // ignore bottom 4 bits - they're just thermocouple data
  82:..\max31855.c ****     v >>= 4;
 265              		.loc 1 82 0
 266 0014 0409     		lsrs	r4, r0, #4
 267              	.LVL41:
  83:..\max31855.c **** 
  84:..\max31855.c ****     // pull the bottom 11 bits off
  85:..\max31855.c ****     internal = v & 0x7FF;
 268              		.loc 1 85 0
 269 0016 C4F30A00 		ubfx	r0, r4, #0, #11
 270 001a FFF7FEFF 		bl	__aeabi_ui2f
 271              	.LVL42:
  86:..\max31855.c ****     // check sign bit!
  87:..\max31855.c ****     if (v & 0x800)
 272              		.loc 1 87 0
 273 001e 14F4006F 		tst	r4, #2048
 274 0022 05D0     		beq	.L21
 275              	.LVL43:
 276              	.LBB2:
  88:..\max31855.c ****     {
  89:..\max31855.c ****         // Convert to negative value by extending sign and casting to signed type.
  90:..\max31855.c ****         int16_t tmp = 0xF800 | (v & 0x7FF);
  91:..\max31855.c ****         internal = tmp;
 277              		.loc 1 91 0
 278 0024 6FEA4450 		mvn	r0, r4, lsl #21
 279              	.LVL44:
 280 0028 6FEA5050 		mvn	r0, r0, lsr #21
 281 002c FFF7FEFF 		bl	__aeabi_i2f
 282              	.LVL45:
 283              	.L21:
 284              	.LBE2:
  92:..\max31855.c ****     }
  93:..\max31855.c ****     internal *= 0.0625; // LSB = 0.0625 degrees
 285              		.loc 1 93 0
 286 0030 4FF07651 		mov	r1, #1031798784
 287 0034 FFF7FEFF 		bl	__aeabi_fmul
 288              	.LVL46:
  94:..\max31855.c ****     internal *= 1.8;
 289              		.loc 1 94 0
 290 0038 FFF7FEFF 		bl	__aeabi_f2d
 291              	.LVL47:
 292 003c 0AA3     		adr	r3, .L25
 293 003e D3E90023 		ldrd	r2, [r3]
 294 0042 FFF7FEFF 		bl	__aeabi_dmul
 295              	.LVL48:
 296 0046 FFF7FEFF 		bl	__aeabi_d2f
 297              	.LVL49:
  95:..\max31855.c ****     internal += 32;
 298              		.loc 1 95 0
 299 004a 4FF08441 		mov	r1, #1107296256
 300 004e FFF7FEFF 		bl	__aeabi_fadd
ARM GAS  C:\Users\scott\AppData\Local\Temp\cc9wzVNc.s 			page 8


 301              	.LVL50:
 302 0052 0446     		mov	r4, r0
 303              	.LVL51:
  96:..\max31855.c ****     if (internal == 32)
 304              		.loc 1 96 0
 305 0054 4FF08441 		mov	r1, #1107296256
 306 0058 FFF7FEFF 		bl	__aeabi_fcmpeq
 307              	.LVL52:
 308 005c 00B1     		cbz	r0, .L22
  97:..\max31855.c ****         internal = 0;
 309              		.loc 1 97 0
 310 005e 0024     		movs	r4, #0
 311              	.LVL53:
 312              	.L22:
  98:..\max31855.c ****     return internal;
 313              		.loc 1 98 0
 314 0060 2046     		mov	r0, r4
 315 0062 FFF7FEFF 		bl	__aeabi_f2d
 316              	.LVL54:
  99:..\max31855.c **** }
 317              		.loc 1 99 0
 318 0066 10BD     		pop	{r4, pc}
 319              	.LVL55:
 320              	.L26:
 321              		.align	3
 322              	.L25:
 323 0068 CDCCCCCC 		.word	-858993459
 324 006c CCCCFC3F 		.word	1073532108
 325              		.cfi_endproc
 326              	.LFE67:
 327              		.size	max31855_Internal, .-max31855_Internal
 328              		.text
 329              	.Letext0:
 330              		.file 2 "c:\\program files (x86)\\cypress\\psoc creator\\4.2\\psoc creator\\import\\gnu\\arm\\5.4.
 331              		.file 3 "c:\\program files (x86)\\cypress\\psoc creator\\4.2\\psoc creator\\import\\gnu\\arm\\5.4.
 332              		.file 4 "Generated_Source\\PSoC5/Temp_CS.h"
 333              		.file 5 "Generated_Source\\PSoC5/CyLib.h"
 334              		.file 6 "Generated_Source\\PSoC5/Temp_CLK.h"
 335              		.file 7 "Generated_Source\\PSoC5/MAX31855_MISO.h"
 336              		.file 8 "Generated_Source\\PSoC5/core_cm3.h"