ARM GAS  C:\Users\scott\AppData\Local\Temp\cclyZCPR.s 			page 1


   1              		.syntax unified
   2              		.cpu cortex-m3
   3              		.fpu softvfp
   4              		.eabi_attribute 20, 1
   5              		.eabi_attribute 21, 1
   6              		.eabi_attribute 23, 3
   7              		.eabi_attribute 24, 1
   8              		.eabi_attribute 25, 1
   9              		.eabi_attribute 26, 1
  10              		.eabi_attribute 30, 1
  11              		.eabi_attribute 34, 1
  12              		.eabi_attribute 18, 4
  13              		.thumb
  14              		.syntax unified
  15              		.file	"ModbusRtu.c"
  16              		.text
  17              	.Ltext0:
  18              		.cfi_sections	.debug_frame
  19              		.section	.text.makeWord,"ax",%progbits
  20              		.align	2
  21              		.global	makeWord
  22              		.thumb
  23              		.thumb_func
  24              		.type	makeWord, %function
  25              	makeWord:
  26              	.LFB63:
  27              		.file 1 "..\\ModbusRtu.c"
   1:..\ModbusRtu.c **** #include "ModbusRtu.h"
   2:..\ModbusRtu.c **** 
   3:..\ModbusRtu.c **** extern uint32 Global_time;
   4:..\ModbusRtu.c **** //extern uint8_t rs485_pos;
   5:..\ModbusRtu.c **** //extern uint8_t rs485_buffer[];
   6:..\ModbusRtu.c **** 
   7:..\ModbusRtu.c **** /* _____PUBLIC FUNCTIONS_____________________________________________________ */
   8:..\ModbusRtu.c ****     uint8_t u8id; //!< 0=master, 1..247=slave number
   9:..\ModbusRtu.c ****     uint8_t u8serno; //!< serial port: 0-Serial, 1..3-Serial1..Serial3; 4: use software serial
  10:..\ModbusRtu.c ****     uint8_t u8txenpin; //!< flow control pin: 0=USB or RS-232 mode, >0=RS-485 mode
  11:..\ModbusRtu.c ****     uint8_t u8state;
  12:..\ModbusRtu.c ****     uint8_t u8lastError;
  13:..\ModbusRtu.c ****     uint8_t au8Buffer[MAX_BUFFER];
  14:..\ModbusRtu.c ****     uint8_t u8BufferSize;
  15:..\ModbusRtu.c ****     uint8_t u8lastRec;
  16:..\ModbusRtu.c ****     uint16_t *au16regs;
  17:..\ModbusRtu.c ****     uint16_t u16InCnt, u16OutCnt, u16errCnt;
  18:..\ModbusRtu.c ****     uint16_t u16timeOut;
  19:..\ModbusRtu.c ****     uint32_t u32time, u32timeOut, u32overTime;
  20:..\ModbusRtu.c ****     uint8_t u8regsize;
  21:..\ModbusRtu.c **** const unsigned char fctsupported[] =
  22:..\ModbusRtu.c **** {
  23:..\ModbusRtu.c ****     MB_FC_READ_COILS,
  24:..\ModbusRtu.c ****     MB_FC_READ_DISCRETE_INPUT,
  25:..\ModbusRtu.c ****     MB_FC_READ_REGISTERS,
  26:..\ModbusRtu.c ****     MB_FC_READ_INPUT_REGISTER,
  27:..\ModbusRtu.c ****     MB_FC_WRITE_COIL,
  28:..\ModbusRtu.c ****     MB_FC_WRITE_REGISTER,
  29:..\ModbusRtu.c ****     MB_FC_WRITE_MULTIPLE_COILS,
  30:..\ModbusRtu.c ****     MB_FC_WRITE_MULTIPLE_REGISTERS
ARM GAS  C:\Users\scott\AppData\Local\Temp\cclyZCPR.s 			page 2


  31:..\ModbusRtu.c **** };
  32:..\ModbusRtu.c **** 
  33:..\ModbusRtu.c **** 
  34:..\ModbusRtu.c **** uint16_t makeWord(uint8_t h, uint8_t l) 
  35:..\ModbusRtu.c **** { 
  28              		.loc 1 35 0
  29              		.cfi_startproc
  30              		@ args = 0, pretend = 0, frame = 0
  31              		@ frame_needed = 0, uses_anonymous_args = 0
  32              		@ link register save eliminated.
  33              	.LVL0:
  36:..\ModbusRtu.c ****     return (h << 8) | l; 
  37:..\ModbusRtu.c **** }
  34              		.loc 1 37 0
  35 0000 41EA0020 		orr	r0, r1, r0, lsl #8
  36              	.LVL1:
  37 0004 7047     		bx	lr
  38              		.cfi_endproc
  39              	.LFE63:
  40              		.size	makeWord, .-makeWord
  41 0006 00BF     		.section	.text.Modbus_begin,"ax",%progbits
  42              		.align	2
  43              		.global	Modbus_begin
  44              		.thumb
  45              		.thumb_func
  46              		.type	Modbus_begin, %function
  47              	Modbus_begin:
  48              	.LFB64:
  38:..\ModbusRtu.c **** 
  39:..\ModbusRtu.c **** /**
  40:..\ModbusRtu.c ****  * @brief
  41:..\ModbusRtu.c ****  * Initialize class object.
  42:..\ModbusRtu.c ****  *
  43:..\ModbusRtu.c ****  * Sets up the serial port using specified baud rate.
  44:..\ModbusRtu.c ****  * Call once class has been instantiated, typically within setup().
  45:..\ModbusRtu.c ****  *
  46:..\ModbusRtu.c ****  * @see http://arduino.cc/en/Serial/Begin#.Uy4CJ6aKlHY
  47:..\ModbusRtu.c ****  * @param speed   baud rate, in standard increments (300..115200)
  48:..\ModbusRtu.c ****  * @ingroup setup
  49:..\ModbusRtu.c ****  */
  50:..\ModbusRtu.c **** void Modbus_begin()
  51:..\ModbusRtu.c **** {
  49              		.loc 1 51 0
  50              		.cfi_startproc
  51              		@ args = 0, pretend = 0, frame = 0
  52              		@ frame_needed = 0, uses_anonymous_args = 0
  53              		@ link register save eliminated.
  52:..\ModbusRtu.c ****     u8lastRec = u8BufferSize = 0;
  54              		.loc 1 52 0
  55 0000 0023     		movs	r3, #0
  56 0002 054A     		ldr	r2, .L3
  57 0004 1370     		strb	r3, [r2]
  58 0006 054A     		ldr	r2, .L3+4
  59 0008 1370     		strb	r3, [r2]
  53:..\ModbusRtu.c ****     u16InCnt = u16OutCnt = u16errCnt = 0;
  60              		.loc 1 53 0
  61 000a 054A     		ldr	r2, .L3+8
ARM GAS  C:\Users\scott\AppData\Local\Temp\cclyZCPR.s 			page 3


  62 000c 1380     		strh	r3, [r2]	@ movhi
  63 000e 054A     		ldr	r2, .L3+12
  64 0010 1380     		strh	r3, [r2]	@ movhi
  65 0012 054A     		ldr	r2, .L3+16
  66 0014 1380     		strh	r3, [r2]	@ movhi
  67 0016 7047     		bx	lr
  68              	.L4:
  69              		.align	2
  70              	.L3:
  71 0018 00000000 		.word	u8BufferSize
  72 001c 00000000 		.word	u8lastRec
  73 0020 00000000 		.word	u16errCnt
  74 0024 00000000 		.word	u16OutCnt
  75 0028 00000000 		.word	u16InCnt
  76              		.cfi_endproc
  77              	.LFE64:
  78              		.size	Modbus_begin, .-Modbus_begin
  79              		.section	.text.Modbus_getTimeOutState,"ax",%progbits
  80              		.align	2
  81              		.global	Modbus_getTimeOutState
  82              		.thumb
  83              		.thumb_func
  84              		.type	Modbus_getTimeOutState, %function
  85              	Modbus_getTimeOutState:
  86              	.LFB65:
  54:..\ModbusRtu.c **** }
  55:..\ModbusRtu.c **** 
  56:..\ModbusRtu.c **** /**
  57:..\ModbusRtu.c ****  * @brief
  58:..\ModbusRtu.c ****  * Return communication Watchdog state.
  59:..\ModbusRtu.c ****  * It could be usefull to reset outputs if the watchdog is fired.
  60:..\ModbusRtu.c ****  *
  61:..\ModbusRtu.c ****  * @return TRUE if Global_time > u32timeOut
  62:..\ModbusRtu.c ****  * @ingroup loop
  63:..\ModbusRtu.c ****  */
  64:..\ModbusRtu.c **** _Bool Modbus_getTimeOutState()
  65:..\ModbusRtu.c **** {
  87              		.loc 1 65 0
  88              		.cfi_startproc
  89              		@ args = 0, pretend = 0, frame = 0
  90              		@ frame_needed = 0, uses_anonymous_args = 0
  91              		@ link register save eliminated.
  66:..\ModbusRtu.c ****     return ((unsigned long)(Global_time -u32timeOut) > (unsigned long)u16timeOut);
  92              		.loc 1 66 0
  93 0000 054B     		ldr	r3, .L6
  94 0002 1B68     		ldr	r3, [r3]
  95 0004 054A     		ldr	r2, .L6+4
  96 0006 1068     		ldr	r0, [r2]
  97 0008 1B1A     		subs	r3, r3, r0
  98 000a 054A     		ldr	r2, .L6+8
  99 000c 1088     		ldrh	r0, [r2]
  67:..\ModbusRtu.c **** }
 100              		.loc 1 67 0
 101 000e 8342     		cmp	r3, r0
 102 0010 94BF     		ite	ls
 103 0012 0020     		movls	r0, #0
 104 0014 0120     		movhi	r0, #1
ARM GAS  C:\Users\scott\AppData\Local\Temp\cclyZCPR.s 			page 4


 105 0016 7047     		bx	lr
 106              	.L7:
 107              		.align	2
 108              	.L6:
 109 0018 00000000 		.word	Global_time
 110 001c 00000000 		.word	u32timeOut
 111 0020 00000000 		.word	u16timeOut
 112              		.cfi_endproc
 113              	.LFE65:
 114              		.size	Modbus_getTimeOutState, .-Modbus_getTimeOutState
 115              		.section	.text.Modbus_getLastError,"ax",%progbits
 116              		.align	2
 117              		.global	Modbus_getLastError
 118              		.thumb
 119              		.thumb_func
 120              		.type	Modbus_getLastError, %function
 121              	Modbus_getLastError:
 122              	.LFB66:
  68:..\ModbusRtu.c **** 
  69:..\ModbusRtu.c **** /**
  70:..\ModbusRtu.c ****  * Get the last error in the protocol processor
  71:..\ModbusRtu.c ****  *
  72:..\ModbusRtu.c ****  * @returnreturn   NO_REPLY = 255      Time-out
  73:..\ModbusRtu.c ****  * @return   EXC_FUNC_CODE = 1   Function code not available
  74:..\ModbusRtu.c ****  * @return   EXC_ADDR_RANGE = 2  Address beyond available space for Modbus registers
  75:..\ModbusRtu.c ****  * @return   EXC_REGS_QUANT = 3  Coils or registers number beyond the available space
  76:..\ModbusRtu.c ****  * @ingroup buffer
  77:..\ModbusRtu.c ****  */
  78:..\ModbusRtu.c **** uint8_t Modbus_getLastError()
  79:..\ModbusRtu.c **** {
 123              		.loc 1 79 0
 124              		.cfi_startproc
 125              		@ args = 0, pretend = 0, frame = 0
 126              		@ frame_needed = 0, uses_anonymous_args = 0
 127              		@ link register save eliminated.
  80:..\ModbusRtu.c ****     return u8lastError;
  81:..\ModbusRtu.c **** }
 128              		.loc 1 81 0
 129 0000 014B     		ldr	r3, .L9
 130 0002 1878     		ldrb	r0, [r3]	@ zero_extendqisi2
 131 0004 7047     		bx	lr
 132              	.L10:
 133 0006 00BF     		.align	2
 134              	.L9:
 135 0008 00000000 		.word	u8lastError
 136              		.cfi_endproc
 137              	.LFE66:
 138              		.size	Modbus_getLastError, .-Modbus_getLastError
 139              		.section	.text.Modbus_init,"ax",%progbits
 140              		.align	2
 141              		.global	Modbus_init
 142              		.thumb
 143              		.thumb_func
 144              		.type	Modbus_init, %function
 145              	Modbus_init:
 146              	.LFB69:
  82:..\ModbusRtu.c **** 
ARM GAS  C:\Users\scott\AppData\Local\Temp\cclyZCPR.s 			page 5


  83:..\ModbusRtu.c **** /**
  84:..\ModbusRtu.c ****  * @brief
  85:..\ModbusRtu.c ****  * *** Only Modbus Master ***
  86:..\ModbusRtu.c ****  * Generate a query to an slave with a modbus_t telegram structure
  87:..\ModbusRtu.c ****  * The Master must be in COM_IDLE mode. After it, its state would be COM_WAITING.
  88:..\ModbusRtu.c ****  * This method has to be called only in loop() section.
  89:..\ModbusRtu.c ****  *
  90:..\ModbusRtu.c ****  * @see modbus_t
  91:..\ModbusRtu.c ****  * @param modbus_t  modbus telegram structure (id, fct, ...)
  92:..\ModbusRtu.c ****  * @ingroup loop
  93:..\ModbusRtu.c ****  * @todo finish function 15
  94:..\ModbusRtu.c ****  */
  95:..\ModbusRtu.c **** int8_t Modbus_query( modbus_t telegram )
  96:..\ModbusRtu.c **** {
  97:..\ModbusRtu.c ****     uint8_t u8regsno, u8bytesno;
  98:..\ModbusRtu.c ****     if (u8id!=0) return -2;
  99:..\ModbusRtu.c ****     if (u8state != COM_IDLE) return -1;
 100:..\ModbusRtu.c **** 
 101:..\ModbusRtu.c ****     if ((telegram.u8id==0) || (telegram.u8id>247)) return -3;
 102:..\ModbusRtu.c **** 
 103:..\ModbusRtu.c ****     au16regs = telegram.au16reg;
 104:..\ModbusRtu.c **** 
 105:..\ModbusRtu.c ****     // telegram header
 106:..\ModbusRtu.c ****     au8Buffer[ ID ]         = telegram.u8id;
 107:..\ModbusRtu.c ****     au8Buffer[ FUNC ]       = telegram.u8fct;
 108:..\ModbusRtu.c ****     au8Buffer[ ADD_HI ]     = highByte(telegram.u16RegAdd );
 109:..\ModbusRtu.c ****     au8Buffer[ ADD_LO ]     = lowByte( telegram.u16RegAdd );
 110:..\ModbusRtu.c **** 
 111:..\ModbusRtu.c ****     switch( telegram.u8fct )
 112:..\ModbusRtu.c ****     {
 113:..\ModbusRtu.c ****     case MB_FC_READ_COILS:
 114:..\ModbusRtu.c ****     case MB_FC_READ_DISCRETE_INPUT:
 115:..\ModbusRtu.c ****     case MB_FC_READ_REGISTERS:
 116:..\ModbusRtu.c ****     case MB_FC_READ_INPUT_REGISTER:
 117:..\ModbusRtu.c ****         au8Buffer[ NB_HI ]      = highByte(telegram.u16CoilsNo );
 118:..\ModbusRtu.c ****         au8Buffer[ NB_LO ]      = lowByte( telegram.u16CoilsNo );
 119:..\ModbusRtu.c ****         u8BufferSize = 6;
 120:..\ModbusRtu.c ****         break;
 121:..\ModbusRtu.c ****     case MB_FC_WRITE_COIL:
 122:..\ModbusRtu.c ****         au8Buffer[ NB_HI ]      = ((au16regs[0] > 0) ? 0xff : 0);
 123:..\ModbusRtu.c ****         au8Buffer[ NB_LO ]      = 0;
 124:..\ModbusRtu.c ****         u8BufferSize = 6;
 125:..\ModbusRtu.c ****         break;
 126:..\ModbusRtu.c ****     case MB_FC_WRITE_REGISTER:
 127:..\ModbusRtu.c ****         au8Buffer[ NB_HI ]      = highByte(au16regs[0]);
 128:..\ModbusRtu.c ****         au8Buffer[ NB_LO ]      = lowByte(au16regs[0]);
 129:..\ModbusRtu.c ****         u8BufferSize = 6;
 130:..\ModbusRtu.c ****         break;
 131:..\ModbusRtu.c ****     case MB_FC_WRITE_MULTIPLE_COILS: // TODO: implement "sending coils"
 132:..\ModbusRtu.c ****         u8regsno = telegram.u16CoilsNo / 16;
 133:..\ModbusRtu.c ****         u8bytesno = u8regsno * 2;
 134:..\ModbusRtu.c ****         if ((telegram.u16CoilsNo % 16) != 0)
 135:..\ModbusRtu.c ****         {
 136:..\ModbusRtu.c ****             u8bytesno++;
 137:..\ModbusRtu.c ****             u8regsno++;
 138:..\ModbusRtu.c ****         }
 139:..\ModbusRtu.c **** 
ARM GAS  C:\Users\scott\AppData\Local\Temp\cclyZCPR.s 			page 6


 140:..\ModbusRtu.c ****         au8Buffer[ NB_HI ]      = highByte(telegram.u16CoilsNo );
 141:..\ModbusRtu.c ****         au8Buffer[ NB_LO ]      = lowByte( telegram.u16CoilsNo );
 142:..\ModbusRtu.c ****         au8Buffer[ BYTE_CNT ]    = u8bytesno;
 143:..\ModbusRtu.c ****         u8BufferSize = 7;
 144:..\ModbusRtu.c **** 
 145:..\ModbusRtu.c ****         for (uint16_t i = 0; i < u8bytesno; i++)
 146:..\ModbusRtu.c ****         {
 147:..\ModbusRtu.c ****             if(i%2)
 148:..\ModbusRtu.c ****             {
 149:..\ModbusRtu.c ****                 au8Buffer[ u8BufferSize ] = lowByte( au16regs[ i/2 ] );
 150:..\ModbusRtu.c ****             }
 151:..\ModbusRtu.c ****             else
 152:..\ModbusRtu.c ****             {
 153:..\ModbusRtu.c ****                 au8Buffer[ u8BufferSize ] = highByte( au16regs[ i/2] );
 154:..\ModbusRtu.c ****             }
 155:..\ModbusRtu.c ****             u8BufferSize++;
 156:..\ModbusRtu.c ****         }
 157:..\ModbusRtu.c ****         break;
 158:..\ModbusRtu.c **** 
 159:..\ModbusRtu.c ****     case MB_FC_WRITE_MULTIPLE_REGISTERS:
 160:..\ModbusRtu.c ****         au8Buffer[ NB_HI ]      = highByte(telegram.u16CoilsNo );
 161:..\ModbusRtu.c ****         au8Buffer[ NB_LO ]      = lowByte( telegram.u16CoilsNo );
 162:..\ModbusRtu.c ****         au8Buffer[ BYTE_CNT ]    = (uint8_t) ( telegram.u16CoilsNo * 2 );
 163:..\ModbusRtu.c ****         u8BufferSize = 7;
 164:..\ModbusRtu.c **** 
 165:..\ModbusRtu.c ****         for (uint16_t i=0; i< telegram.u16CoilsNo; i++)
 166:..\ModbusRtu.c ****         {
 167:..\ModbusRtu.c ****             au8Buffer[ u8BufferSize ] = highByte( au16regs[ i ] );
 168:..\ModbusRtu.c ****             u8BufferSize++;
 169:..\ModbusRtu.c ****             au8Buffer[ u8BufferSize ] = lowByte( au16regs[ i ] );
 170:..\ModbusRtu.c ****             u8BufferSize++;
 171:..\ModbusRtu.c ****         }
 172:..\ModbusRtu.c ****         break;
 173:..\ModbusRtu.c ****     }
 174:..\ModbusRtu.c **** 
 175:..\ModbusRtu.c ****     RS485_ClearTxBuffer();
 176:..\ModbusRtu.c ****     Modbus_sendTxBuffer();
 177:..\ModbusRtu.c ****     u8state = COM_WAITING;
 178:..\ModbusRtu.c ****     u8lastError = 0;
 179:..\ModbusRtu.c ****     return 0;
 180:..\ModbusRtu.c **** }
 181:..\ModbusRtu.c **** 
 182:..\ModbusRtu.c **** /**
 183:..\ModbusRtu.c ****  * @brief *** Only for Modbus Master ***
 184:..\ModbusRtu.c ****  * This method checks if there is any incoming answer if pending.
 185:..\ModbusRtu.c ****  * If there is no answer, it would change Master state to COM_IDLE.
 186:..\ModbusRtu.c ****  * This method must be called only at loop section.
 187:..\ModbusRtu.c ****  * Avoid any delay() function.
 188:..\ModbusRtu.c ****  *
 189:..\ModbusRtu.c ****  * Any incoming data would be redirected to au16regs pointer,
 190:..\ModbusRtu.c ****  * as defined in its modbus_t query telegram.
 191:..\ModbusRtu.c ****  *
 192:..\ModbusRtu.c ****  * @params	nothing
 193:..\ModbusRtu.c ****  * @return errors counter
 194:..\ModbusRtu.c ****  * @ingroup loop
 195:..\ModbusRtu.c ****  */
 196:..\ModbusRtu.c **** int8_t Modbus_poll()
ARM GAS  C:\Users\scott\AppData\Local\Temp\cclyZCPR.s 			page 7


 197:..\ModbusRtu.c **** {
 198:..\ModbusRtu.c ****     // check if there is any incoming frame
 199:..\ModbusRtu.c **** 	uint8_t u8current;
 200:..\ModbusRtu.c ****   u8current = RS485_GetRxBufferSize();
 201:..\ModbusRtu.c ****   if ((unsigned long)(Global_time -u32timeOut) > (unsigned long)u16timeOut)
 202:..\ModbusRtu.c ****   {
 203:..\ModbusRtu.c ****     u8state = COM_IDLE;
 204:..\ModbusRtu.c ****     u8lastError = NO_REPLY;
 205:..\ModbusRtu.c ****     u16errCnt++;
 206:..\ModbusRtu.c ****     return 0;
 207:..\ModbusRtu.c ****   }
 208:..\ModbusRtu.c **** 
 209:..\ModbusRtu.c ****   if (u8current == 0) return 0;
 210:..\ModbusRtu.c **** 
 211:..\ModbusRtu.c ****   // check T35 after frame end or still no frame end
 212:..\ModbusRtu.c ****   if (u8current != u8lastRec)
 213:..\ModbusRtu.c ****   {
 214:..\ModbusRtu.c ****     u8lastRec = u8current;
 215:..\ModbusRtu.c ****     u32time = Global_time;
 216:..\ModbusRtu.c ****     return 0;
 217:..\ModbusRtu.c ****   }
 218:..\ModbusRtu.c ****   if ((unsigned long)(Global_time -u32time) < (unsigned long)T35) return 0;
 219:..\ModbusRtu.c **** 
 220:..\ModbusRtu.c ****   // transfer Serial buffer frame to auBuffer
 221:..\ModbusRtu.c ****   u8lastRec = 0;
 222:..\ModbusRtu.c ****   int8_t i8state = Modbus_getRxBuffer();
 223:..\ModbusRtu.c ****   if (i8state < 6) //7 was incorrect for functions 1 and 2 the smallest frame could be 6 bytes long
 224:..\ModbusRtu.c ****   {
 225:..\ModbusRtu.c ****     u8state = COM_IDLE;
 226:..\ModbusRtu.c ****     u16errCnt++;
 227:..\ModbusRtu.c ****     return i8state;
 228:..\ModbusRtu.c ****   }
 229:..\ModbusRtu.c **** 
 230:..\ModbusRtu.c ****   // validate message: id, CRC, FCT, exception
 231:..\ModbusRtu.c ****   uint8_t u8exception = Modbus_validateAnswer();
 232:..\ModbusRtu.c ****   if (u8exception != 0)
 233:..\ModbusRtu.c ****   {
 234:..\ModbusRtu.c ****     u8state = COM_IDLE;
 235:..\ModbusRtu.c ****     return u8exception;
 236:..\ModbusRtu.c ****   }
 237:..\ModbusRtu.c **** 
 238:..\ModbusRtu.c ****   // process answer
 239:..\ModbusRtu.c ****   switch( au8Buffer[ FUNC ] )
 240:..\ModbusRtu.c ****   {
 241:..\ModbusRtu.c ****     case MB_FC_READ_COILS:
 242:..\ModbusRtu.c ****     case MB_FC_READ_DISCRETE_INPUT:
 243:..\ModbusRtu.c ****         // call get_FC1 to transfer the incoming message to au16regs buffer
 244:..\ModbusRtu.c ****         Modbus_get_FC1( );
 245:..\ModbusRtu.c ****         break;
 246:..\ModbusRtu.c ****     case MB_FC_READ_INPUT_REGISTER:
 247:..\ModbusRtu.c ****     case MB_FC_READ_REGISTERS :
 248:..\ModbusRtu.c ****         // call get_FC3 to transfer the incoming message to au16regs buffer
 249:..\ModbusRtu.c ****         Modbus_get_FC3( );
 250:..\ModbusRtu.c ****         break;
 251:..\ModbusRtu.c ****     case MB_FC_WRITE_COIL:
 252:..\ModbusRtu.c ****     case MB_FC_WRITE_REGISTER :
 253:..\ModbusRtu.c ****     case MB_FC_WRITE_MULTIPLE_COILS:
ARM GAS  C:\Users\scott\AppData\Local\Temp\cclyZCPR.s 			page 8


 254:..\ModbusRtu.c ****     case MB_FC_WRITE_MULTIPLE_REGISTERS :
 255:..\ModbusRtu.c ****         // nothing to do
 256:..\ModbusRtu.c ****         break;
 257:..\ModbusRtu.c ****     default:
 258:..\ModbusRtu.c ****         break;
 259:..\ModbusRtu.c ****   }
 260:..\ModbusRtu.c ****   u8state = COM_IDLE;
 261:..\ModbusRtu.c ****   return u8BufferSize;
 262:..\ModbusRtu.c **** }
 263:..\ModbusRtu.c **** 
 264:..\ModbusRtu.c **** /* _____PRIVATE FUNCTIONS_____________________________________________________ */
 265:..\ModbusRtu.c **** 
 266:..\ModbusRtu.c **** 
 267:..\ModbusRtu.c **** void Modbus_init()
 268:..\ModbusRtu.c **** {
 147              		.loc 1 268 0
 148              		.cfi_startproc
 149              		@ args = 0, pretend = 0, frame = 0
 150              		@ frame_needed = 0, uses_anonymous_args = 0
 151              		@ link register save eliminated.
 269:..\ModbusRtu.c ****     u8id = 0;
 152              		.loc 1 269 0
 153 0000 0023     		movs	r3, #0
 154 0002 074A     		ldr	r2, .L12
 155 0004 1370     		strb	r3, [r2]
 270:..\ModbusRtu.c ****     u8serno = 4;
 156              		.loc 1 270 0
 157 0006 0421     		movs	r1, #4
 158 0008 064A     		ldr	r2, .L12+4
 159 000a 1170     		strb	r1, [r2]
 271:..\ModbusRtu.c ****     u8txenpin = 0;
 160              		.loc 1 271 0
 161 000c 064A     		ldr	r2, .L12+8
 162 000e 1370     		strb	r3, [r2]
 272:..\ModbusRtu.c ****     u16timeOut = 1000;
 163              		.loc 1 272 0
 164 0010 4FF47A71 		mov	r1, #1000
 165 0014 054A     		ldr	r2, .L12+12
 166 0016 1180     		strh	r1, [r2]	@ movhi
 273:..\ModbusRtu.c ****     u32overTime = 0;
 167              		.loc 1 273 0
 168 0018 054A     		ldr	r2, .L12+16
 169 001a 1360     		str	r3, [r2]
 170 001c 7047     		bx	lr
 171              	.L13:
 172 001e 00BF     		.align	2
 173              	.L12:
 174 0020 00000000 		.word	u8id
 175 0024 00000000 		.word	u8serno
 176 0028 00000000 		.word	u8txenpin
 177 002c 00000000 		.word	u16timeOut
 178 0030 00000000 		.word	u32overTime
 179              		.cfi_endproc
 180              	.LFE69:
 181              		.size	Modbus_init, .-Modbus_init
 182              		.section	.text.Modbus_getRxBuffer,"ax",%progbits
 183              		.align	2
ARM GAS  C:\Users\scott\AppData\Local\Temp\cclyZCPR.s 			page 9


 184              		.global	Modbus_getRxBuffer
 185              		.thumb
 186              		.thumb_func
 187              		.type	Modbus_getRxBuffer, %function
 188              	Modbus_getRxBuffer:
 189              	.LFB70:
 274:..\ModbusRtu.c **** }
 275:..\ModbusRtu.c **** 
 276:..\ModbusRtu.c **** /**
 277:..\ModbusRtu.c ****  * @brief
 278:..\ModbusRtu.c ****  * This method moves Serial buffer data to the Modbus au8Buffer.
 279:..\ModbusRtu.c ****  *
 280:..\ModbusRtu.c ****  * @return buffer size if OK, ERR_BUFF_OVERFLOW if u8BufferSize >= MAX_BUFFER
 281:..\ModbusRtu.c ****  * @ingroup buffer
 282:..\ModbusRtu.c ****  */
 283:..\ModbusRtu.c **** int8_t Modbus_getRxBuffer()
 284:..\ModbusRtu.c **** {
 190              		.loc 1 284 0
 191              		.cfi_startproc
 192              		@ args = 0, pretend = 0, frame = 0
 193              		@ frame_needed = 0, uses_anonymous_args = 0
 194 0000 70B5     		push	{r4, r5, r6, lr}
 195              		.cfi_def_cfa_offset 16
 196              		.cfi_offset 4, -16
 197              		.cfi_offset 5, -12
 198              		.cfi_offset 6, -8
 199              		.cfi_offset 14, -4
 200              	.LVL2:
 285:..\ModbusRtu.c ****   _Bool bBuffOverflow = false;
 286:..\ModbusRtu.c **** 
 287:..\ModbusRtu.c ****   u8BufferSize = 0;
 201              		.loc 1 287 0
 202 0002 0026     		movs	r6, #0
 203 0004 134B     		ldr	r3, .L22
 204 0006 1E70     		strb	r6, [r3]
 288:..\ModbusRtu.c ****   while (RS485_GetRxBufferSize() > 0) // something has been received
 205              		.loc 1 288 0
 206 0008 10E0     		b	.L15
 207              	.LVL3:
 208              	.L17:
 289:..\ModbusRtu.c ****   {
 290:..\ModbusRtu.c ****     au8Buffer[u8BufferSize] = RS485_GetByte() & 0xff; // get a byte
 209              		.loc 1 290 0
 210 000a 124C     		ldr	r4, .L22
 211 000c 2578     		ldrb	r5, [r4]	@ zero_extendqisi2
 212 000e FFF7FEFF 		bl	RS485_GetByte
 213              	.LVL4:
 214 0012 114B     		ldr	r3, .L22+4
 215 0014 5855     		strb	r0, [r3, r5]
 291:..\ModbusRtu.c ****     Wemos_PutChar(au8Buffer[u8BufferSize]);
 216              		.loc 1 291 0
 217 0016 2278     		ldrb	r2, [r4]	@ zero_extendqisi2
 218 0018 985C     		ldrb	r0, [r3, r2]	@ zero_extendqisi2
 219 001a FFF7FEFF 		bl	Wemos_PutChar
 220              	.LVL5:
 292:..\ModbusRtu.c ****     u8BufferSize++;
 221              		.loc 1 292 0
ARM GAS  C:\Users\scott\AppData\Local\Temp\cclyZCPR.s 			page 10


 222 001e 2378     		ldrb	r3, [r4]	@ zero_extendqisi2
 223 0020 0133     		adds	r3, r3, #1
 224 0022 DBB2     		uxtb	r3, r3
 225 0024 2370     		strb	r3, [r4]
 293:..\ModbusRtu.c ****     if (u8BufferSize >= MAX_BUFFER)
 226              		.loc 1 293 0
 227 0026 FD2B     		cmp	r3, #253
 228 0028 00D9     		bls	.L15
 294:..\ModbusRtu.c ****       bBuffOverflow = true;
 229              		.loc 1 294 0
 230 002a 0126     		movs	r6, #1
 231              	.LVL6:
 232              	.L15:
 288:..\ModbusRtu.c ****   {
 233              		.loc 1 288 0
 234 002c FFF7FEFF 		bl	RS485_GetRxBufferSize
 235              	.LVL7:
 236 0030 0028     		cmp	r0, #0
 237 0032 EAD1     		bne	.L17
 295:..\ModbusRtu.c ****   }
 296:..\ModbusRtu.c **** //    memcpy(au8Buffer,rs485_buffer,rs485_pos);
 297:..\ModbusRtu.c **** //    u8BufferSize = rs485_pos;
 298:..\ModbusRtu.c **** //    rs485_pos = 0;
 299:..\ModbusRtu.c **** //    if (u8BufferSize >= MAX_BUFFER) bBuffOverflow = true;
 300:..\ModbusRtu.c ****   u16InCnt++;
 238              		.loc 1 300 0
 239 0034 094A     		ldr	r2, .L22+8
 240 0036 1388     		ldrh	r3, [r2]
 241 0038 0133     		adds	r3, r3, #1
 242 003a 1380     		strh	r3, [r2]	@ movhi
 301:..\ModbusRtu.c **** 
 302:..\ModbusRtu.c ****   if (bBuffOverflow)
 243              		.loc 1 302 0
 244 003c 36B1     		cbz	r6, .L18
 303:..\ModbusRtu.c ****   {
 304:..\ModbusRtu.c ****       u16errCnt++;
 245              		.loc 1 304 0
 246 003e 084A     		ldr	r2, .L22+12
 247 0040 1388     		ldrh	r3, [r2]
 248 0042 0133     		adds	r3, r3, #1
 249 0044 1380     		strh	r3, [r2]	@ movhi
 305:..\ModbusRtu.c ****       return ERR_BUFF_OVERFLOW;
 250              		.loc 1 305 0
 251 0046 6FF00200 		mvn	r0, #2
 252 004a 70BD     		pop	{r4, r5, r6, pc}
 253              	.LVL8:
 254              	.L18:
 306:..\ModbusRtu.c ****   }
 307:..\ModbusRtu.c ****   return u8BufferSize;
 255              		.loc 1 307 0
 256 004c 014B     		ldr	r3, .L22
 257 004e 93F90000 		ldrsb	r0, [r3]
 308:..\ModbusRtu.c **** }
 258              		.loc 1 308 0
 259 0052 70BD     		pop	{r4, r5, r6, pc}
 260              	.LVL9:
 261              	.L23:
ARM GAS  C:\Users\scott\AppData\Local\Temp\cclyZCPR.s 			page 11


 262              		.align	2
 263              	.L22:
 264 0054 00000000 		.word	u8BufferSize
 265 0058 00000000 		.word	au8Buffer
 266 005c 00000000 		.word	u16InCnt
 267 0060 00000000 		.word	u16errCnt
 268              		.cfi_endproc
 269              	.LFE70:
 270              		.size	Modbus_getRxBuffer, .-Modbus_getRxBuffer
 271              		.section	.text.Modbus_calcCRC,"ax",%progbits
 272              		.align	2
 273              		.global	Modbus_calcCRC
 274              		.thumb
 275              		.thumb_func
 276              		.type	Modbus_calcCRC, %function
 277              	Modbus_calcCRC:
 278              	.LFB72:
 309:..\ModbusRtu.c **** 
 310:..\ModbusRtu.c **** /**
 311:..\ModbusRtu.c ****  * @brief
 312:..\ModbusRtu.c ****  * This method transmits au8Buffer to Serial line.
 313:..\ModbusRtu.c ****  * Only if u8txenpin != 0, there is a flow handling in order to keep
 314:..\ModbusRtu.c ****  * the RS485 transceiver in output state as long as the message is being sent.
 315:..\ModbusRtu.c ****  * This is done with UCSRxA register.
 316:..\ModbusRtu.c ****  * The CRC is appended to the buffer before starting to send it.
 317:..\ModbusRtu.c ****  *
 318:..\ModbusRtu.c ****  * @param nothing
 319:..\ModbusRtu.c ****  * @return nothing
 320:..\ModbusRtu.c ****  * @ingroup buffer
 321:..\ModbusRtu.c ****  */
 322:..\ModbusRtu.c **** void Modbus_sendTxBuffer()
 323:..\ModbusRtu.c **** {
 324:..\ModbusRtu.c ****     // append CRC to message
 325:..\ModbusRtu.c ****     uint16_t u16crc = Modbus_calcCRC( u8BufferSize );
 326:..\ModbusRtu.c ****     au8Buffer[ u8BufferSize ] = u16crc >> 8;
 327:..\ModbusRtu.c ****     u8BufferSize++;
 328:..\ModbusRtu.c ****     au8Buffer[ u8BufferSize ] = u16crc & 0x00ff;
 329:..\ModbusRtu.c ****     u8BufferSize++;
 330:..\ModbusRtu.c ****     RS485_En_Write(1); // the built-in component tx_en doesn't seem to work properly
 331:..\ModbusRtu.c ****     CyDelay(20);
 332:..\ModbusRtu.c ****     RS485_PutArray(au8Buffer, u8BufferSize );
 333:..\ModbusRtu.c ****     CyDelay(50);
 334:..\ModbusRtu.c ****     RS485_En_Write(0); // turn the tn_en line back off
 335:..\ModbusRtu.c ****     u8BufferSize = 0;
 336:..\ModbusRtu.c **** 
 337:..\ModbusRtu.c ****     // set time-out for master
 338:..\ModbusRtu.c ****     u32timeOut = Global_time;
 339:..\ModbusRtu.c **** 
 340:..\ModbusRtu.c ****     // increase message counter
 341:..\ModbusRtu.c ****     u16OutCnt++;
 342:..\ModbusRtu.c **** }
 343:..\ModbusRtu.c **** 
 344:..\ModbusRtu.c **** /**
 345:..\ModbusRtu.c ****  * @brief
 346:..\ModbusRtu.c ****  * This method calculates CRC
 347:..\ModbusRtu.c ****  *
 348:..\ModbusRtu.c ****  * @return uint16_t calculated CRC value for the message
ARM GAS  C:\Users\scott\AppData\Local\Temp\cclyZCPR.s 			page 12


 349:..\ModbusRtu.c ****  * @ingroup buffer
 350:..\ModbusRtu.c ****  */
 351:..\ModbusRtu.c **** uint16_t Modbus_calcCRC(uint8_t u8length)
 352:..\ModbusRtu.c **** {
 279              		.loc 1 352 0
 280              		.cfi_startproc
 281              		@ args = 0, pretend = 0, frame = 0
 282              		@ frame_needed = 0, uses_anonymous_args = 0
 283              		@ link register save eliminated.
 284              	.LVL10:
 285 0000 10B4     		push	{r4}
 286              		.cfi_def_cfa_offset 4
 287              		.cfi_offset 4, -4
 288              	.LVL11:
 289              	.LBB2:
 353:..\ModbusRtu.c ****     unsigned int temp, temp2, flag;
 354:..\ModbusRtu.c ****     temp = 0xFFFF;
 355:..\ModbusRtu.c ****     for (unsigned char i = 0; i < u8length; i++)
 290              		.loc 1 355 0
 291 0002 0024     		movs	r4, #0
 292              	.LBE2:
 354:..\ModbusRtu.c ****     for (unsigned char i = 0; i < u8length; i++)
 293              		.loc 1 354 0
 294 0004 4FF6FF73 		movw	r3, #65535
 295              	.LBB4:
 296              		.loc 1 355 0
 297 0008 12E0     		b	.L25
 298              	.LVL12:
 299              	.L29:
 356:..\ModbusRtu.c ****     {
 357:..\ModbusRtu.c ****         temp = temp ^ au8Buffer[i];
 300              		.loc 1 357 0
 301 000a 0D4A     		ldr	r2, .L31
 302 000c 125D     		ldrb	r2, [r2, r4]	@ zero_extendqisi2
 303 000e 5340     		eors	r3, r3, r2
 304              	.LVL13:
 305              	.LBB3:
 358:..\ModbusRtu.c ****         for (unsigned char j = 1; j <= 8; j++)
 306              		.loc 1 358 0
 307 0010 0122     		movs	r2, #1
 308 0012 09E0     		b	.L26
 309              	.LVL14:
 310              	.L28:
 359:..\ModbusRtu.c ****         {
 360:..\ModbusRtu.c ****             flag = temp & 0x0001;
 311              		.loc 1 360 0
 312 0014 03F00101 		and	r1, r3, #1
 313              	.LVL15:
 361:..\ModbusRtu.c ****             temp >>=1;
 314              		.loc 1 361 0
 315 0018 5B08     		lsrs	r3, r3, #1
 316              	.LVL16:
 362:..\ModbusRtu.c ****             if (flag)
 317              		.loc 1 362 0
 318 001a 19B1     		cbz	r1, .L27
 363:..\ModbusRtu.c ****                 temp ^= 0xA001;
 319              		.loc 1 363 0
ARM GAS  C:\Users\scott\AppData\Local\Temp\cclyZCPR.s 			page 13


 320 001c 83F42043 		eor	r3, r3, #40960
 321              	.LVL17:
 322 0020 83F00103 		eor	r3, r3, #1
 323              	.LVL18:
 324              	.L27:
 358:..\ModbusRtu.c ****         {
 325              		.loc 1 358 0 discriminator 2
 326 0024 0132     		adds	r2, r2, #1
 327              	.LVL19:
 328 0026 D2B2     		uxtb	r2, r2
 329              	.LVL20:
 330              	.L26:
 358:..\ModbusRtu.c ****         {
 331              		.loc 1 358 0 is_stmt 0 discriminator 1
 332 0028 082A     		cmp	r2, #8
 333 002a F3D9     		bls	.L28
 334              	.LBE3:
 355:..\ModbusRtu.c ****     {
 335              		.loc 1 355 0 is_stmt 1 discriminator 2
 336 002c 0134     		adds	r4, r4, #1
 337              	.LVL21:
 338 002e E4B2     		uxtb	r4, r4
 339              	.LVL22:
 340              	.L25:
 355:..\ModbusRtu.c ****     {
 341              		.loc 1 355 0 is_stmt 0 discriminator 1
 342 0030 8442     		cmp	r4, r0
 343 0032 EAD3     		bcc	.L29
 344              	.LVL23:
 345              	.LBE4:
 364:..\ModbusRtu.c ****         }
 365:..\ModbusRtu.c ****     }
 366:..\ModbusRtu.c ****     // Reverse byte order.
 367:..\ModbusRtu.c ****     temp2 = temp >> 8;
 368:..\ModbusRtu.c ****     temp = (temp << 8) | temp2;
 346              		.loc 1 368 0 is_stmt 1
 347 0034 1A02     		lsls	r2, r3, #8
 348 0036 42EA1320 		orr	r0, r2, r3, lsr #8
 349              	.LVL24:
 369:..\ModbusRtu.c ****     temp &= 0xFFFF;
 370:..\ModbusRtu.c ****     // the returned value is already swapped
 371:..\ModbusRtu.c ****     // crcLo byte is first & crcHi byte is last
 372:..\ModbusRtu.c ****     return temp;
 373:..\ModbusRtu.c **** }
 350              		.loc 1 373 0
 351 003a 80B2     		uxth	r0, r0
 352              	.LVL25:
 353 003c 10BC     		pop	{r4}
 354              		.cfi_restore 4
 355              		.cfi_def_cfa_offset 0
 356              	.LVL26:
 357 003e 7047     		bx	lr
 358              	.L32:
 359              		.align	2
 360              	.L31:
 361 0040 00000000 		.word	au8Buffer
 362              		.cfi_endproc
ARM GAS  C:\Users\scott\AppData\Local\Temp\cclyZCPR.s 			page 14


 363              	.LFE72:
 364              		.size	Modbus_calcCRC, .-Modbus_calcCRC
 365              		.section	.text.Modbus_sendTxBuffer,"ax",%progbits
 366              		.align	2
 367              		.global	Modbus_sendTxBuffer
 368              		.thumb
 369              		.thumb_func
 370              		.type	Modbus_sendTxBuffer, %function
 371              	Modbus_sendTxBuffer:
 372              	.LFB71:
 323:..\ModbusRtu.c ****     // append CRC to message
 373              		.loc 1 323 0
 374              		.cfi_startproc
 375              		@ args = 0, pretend = 0, frame = 0
 376              		@ frame_needed = 0, uses_anonymous_args = 0
 377 0000 70B5     		push	{r4, r5, r6, lr}
 378              		.cfi_def_cfa_offset 16
 379              		.cfi_offset 4, -16
 380              		.cfi_offset 5, -12
 381              		.cfi_offset 6, -8
 382              		.cfi_offset 14, -4
 325:..\ModbusRtu.c ****     au8Buffer[ u8BufferSize ] = u16crc >> 8;
 383              		.loc 1 325 0
 384 0002 144D     		ldr	r5, .L35
 385 0004 2C78     		ldrb	r4, [r5]	@ zero_extendqisi2
 386 0006 2046     		mov	r0, r4
 387 0008 FFF7FEFF 		bl	Modbus_calcCRC
 388              	.LVL27:
 326:..\ModbusRtu.c ****     u8BufferSize++;
 389              		.loc 1 326 0
 390 000c 124E     		ldr	r6, .L35+4
 391 000e 030A     		lsrs	r3, r0, #8
 392 0010 3355     		strb	r3, [r6, r4]
 327:..\ModbusRtu.c ****     au8Buffer[ u8BufferSize ] = u16crc & 0x00ff;
 393              		.loc 1 327 0
 394 0012 0134     		adds	r4, r4, #1
 395 0014 E4B2     		uxtb	r4, r4
 328:..\ModbusRtu.c ****     u8BufferSize++;
 396              		.loc 1 328 0
 397 0016 3055     		strb	r0, [r6, r4]
 329:..\ModbusRtu.c ****     RS485_En_Write(1); // the built-in component tx_en doesn't seem to work properly
 398              		.loc 1 329 0
 399 0018 0134     		adds	r4, r4, #1
 400 001a 2C70     		strb	r4, [r5]
 330:..\ModbusRtu.c ****     CyDelay(20);
 401              		.loc 1 330 0
 402 001c 0120     		movs	r0, #1
 403              	.LVL28:
 404 001e FFF7FEFF 		bl	RS485_En_Write
 405              	.LVL29:
 331:..\ModbusRtu.c ****     RS485_PutArray(au8Buffer, u8BufferSize );
 406              		.loc 1 331 0
 407 0022 1420     		movs	r0, #20
 408 0024 FFF7FEFF 		bl	CyDelay
 409              	.LVL30:
 332:..\ModbusRtu.c ****     CyDelay(50);
 410              		.loc 1 332 0
ARM GAS  C:\Users\scott\AppData\Local\Temp\cclyZCPR.s 			page 15


 411 0028 2978     		ldrb	r1, [r5]	@ zero_extendqisi2
 412 002a 3046     		mov	r0, r6
 413 002c FFF7FEFF 		bl	RS485_PutArray
 414              	.LVL31:
 333:..\ModbusRtu.c ****     RS485_En_Write(0); // turn the tn_en line back off
 415              		.loc 1 333 0
 416 0030 3220     		movs	r0, #50
 417 0032 FFF7FEFF 		bl	CyDelay
 418              	.LVL32:
 334:..\ModbusRtu.c ****     u8BufferSize = 0;
 419              		.loc 1 334 0
 420 0036 0020     		movs	r0, #0
 421 0038 FFF7FEFF 		bl	RS485_En_Write
 422              	.LVL33:
 335:..\ModbusRtu.c **** 
 423              		.loc 1 335 0
 424 003c 0023     		movs	r3, #0
 425 003e 2B70     		strb	r3, [r5]
 338:..\ModbusRtu.c **** 
 426              		.loc 1 338 0
 427 0040 064B     		ldr	r3, .L35+8
 428 0042 1A68     		ldr	r2, [r3]
 429 0044 064B     		ldr	r3, .L35+12
 430 0046 1A60     		str	r2, [r3]
 341:..\ModbusRtu.c **** }
 431              		.loc 1 341 0
 432 0048 064A     		ldr	r2, .L35+16
 433 004a 1388     		ldrh	r3, [r2]
 434 004c 0133     		adds	r3, r3, #1
 435 004e 1380     		strh	r3, [r2]	@ movhi
 436 0050 70BD     		pop	{r4, r5, r6, pc}
 437              	.L36:
 438 0052 00BF     		.align	2
 439              	.L35:
 440 0054 00000000 		.word	u8BufferSize
 441 0058 00000000 		.word	au8Buffer
 442 005c 00000000 		.word	Global_time
 443 0060 00000000 		.word	u32timeOut
 444 0064 00000000 		.word	u16OutCnt
 445              		.cfi_endproc
 446              	.LFE71:
 447              		.size	Modbus_sendTxBuffer, .-Modbus_sendTxBuffer
 448              		.section	.text.Modbus_query,"ax",%progbits
 449              		.align	2
 450              		.global	Modbus_query
 451              		.thumb
 452              		.thumb_func
 453              		.type	Modbus_query, %function
 454              	Modbus_query:
 455              	.LFB67:
  96:..\ModbusRtu.c ****     uint8_t u8regsno, u8bytesno;
 456              		.loc 1 96 0
 457              		.cfi_startproc
 458              		@ args = 0, pretend = 0, frame = 16
 459              		@ frame_needed = 0, uses_anonymous_args = 0
 460 0000 70B5     		push	{r4, r5, r6, lr}
 461              		.cfi_def_cfa_offset 16
ARM GAS  C:\Users\scott\AppData\Local\Temp\cclyZCPR.s 			page 16


 462              		.cfi_offset 4, -16
 463              		.cfi_offset 5, -12
 464              		.cfi_offset 6, -8
 465              		.cfi_offset 14, -4
 466 0002 84B0     		sub	sp, sp, #16
 467              		.cfi_def_cfa_offset 32
 468 0004 04AB     		add	r3, sp, #16
 469 0006 03E90700 		stmdb	r3, {r0, r1, r2}
  98:..\ModbusRtu.c ****     if (u8state != COM_IDLE) return -1;
 470              		.loc 1 98 0
 471 000a 594B     		ldr	r3, .L58
 472 000c 1B78     		ldrb	r3, [r3]	@ zero_extendqisi2
 473 000e 002B     		cmp	r3, #0
 474 0010 40F0A380 		bne	.L54
  99:..\ModbusRtu.c **** 
 475              		.loc 1 99 0
 476 0014 574B     		ldr	r3, .L58+4
 477 0016 1C78     		ldrb	r4, [r3]	@ zero_extendqisi2
 478 0018 002C     		cmp	r4, #0
 479 001a 40F0A180 		bne	.L55
 101:..\ModbusRtu.c **** 
 480              		.loc 1 101 0
 481 001e 9DF80400 		ldrb	r0, [sp, #4]	@ zero_extendqisi2
 482 0022 431E     		subs	r3, r0, #1
 483 0024 DBB2     		uxtb	r3, r3
 484 0026 F62B     		cmp	r3, #246
 485 0028 00F29D80 		bhi	.L56
 103:..\ModbusRtu.c **** 
 486              		.loc 1 103 0
 487 002c 0399     		ldr	r1, [sp, #12]
 488 002e 524B     		ldr	r3, .L58+8
 489 0030 1960     		str	r1, [r3]
 106:..\ModbusRtu.c ****     au8Buffer[ FUNC ]       = telegram.u8fct;
 490              		.loc 1 106 0
 491 0032 524A     		ldr	r2, .L58+12
 492 0034 1070     		strb	r0, [r2]
 107:..\ModbusRtu.c ****     au8Buffer[ ADD_HI ]     = highByte(telegram.u16RegAdd );
 493              		.loc 1 107 0
 494 0036 9DF80530 		ldrb	r3, [sp, #5]	@ zero_extendqisi2
 495 003a 5370     		strb	r3, [r2, #1]
 108:..\ModbusRtu.c ****     au8Buffer[ ADD_LO ]     = lowByte( telegram.u16RegAdd );
 496              		.loc 1 108 0
 497 003c BDF80600 		ldrh	r0, [sp, #6]
 498 0040 050A     		lsrs	r5, r0, #8
 499 0042 9570     		strb	r5, [r2, #2]
 109:..\ModbusRtu.c **** 
 500              		.loc 1 109 0
 501 0044 D070     		strb	r0, [r2, #3]
 111:..\ModbusRtu.c ****     {
 502              		.loc 1 111 0
 503 0046 013B     		subs	r3, r3, #1
 504 0048 0F2B     		cmp	r3, #15
 505 004a 7BD8     		bhi	.L39
 506 004c DFE803F0 		tbb	[pc, r3]
 507              	.L41:
 508 0050 08       		.byte	(.L40-.L41)/2
 509 0051 08       		.byte	(.L40-.L41)/2
ARM GAS  C:\Users\scott\AppData\Local\Temp\cclyZCPR.s 			page 17


 510 0052 08       		.byte	(.L40-.L41)/2
 511 0053 08       		.byte	(.L40-.L41)/2
 512 0054 12       		.byte	(.L42-.L41)/2
 513 0055 1D       		.byte	(.L43-.L41)/2
 514 0056 7A       		.byte	(.L39-.L41)/2
 515 0057 7A       		.byte	(.L39-.L41)/2
 516 0058 7A       		.byte	(.L39-.L41)/2
 517 0059 7A       		.byte	(.L39-.L41)/2
 518 005a 7A       		.byte	(.L39-.L41)/2
 519 005b 7A       		.byte	(.L39-.L41)/2
 520 005c 7A       		.byte	(.L39-.L41)/2
 521 005d 7A       		.byte	(.L39-.L41)/2
 522 005e 27       		.byte	(.L44-.L41)/2
 523 005f 59       		.byte	(.L45-.L41)/2
 524              		.p2align 1
 525              	.L40:
 117:..\ModbusRtu.c ****         au8Buffer[ NB_LO ]      = lowByte( telegram.u16CoilsNo );
 526              		.loc 1 117 0
 527 0060 BDF80820 		ldrh	r2, [sp, #8]
 528 0064 110A     		lsrs	r1, r2, #8
 529 0066 454B     		ldr	r3, .L58+12
 530 0068 1971     		strb	r1, [r3, #4]
 118:..\ModbusRtu.c ****         u8BufferSize = 6;
 531              		.loc 1 118 0
 532 006a 5A71     		strb	r2, [r3, #5]
 119:..\ModbusRtu.c ****         break;
 533              		.loc 1 119 0
 534 006c 0622     		movs	r2, #6
 535 006e 444B     		ldr	r3, .L58+16
 536 0070 1A70     		strb	r2, [r3]
 120:..\ModbusRtu.c ****     case MB_FC_WRITE_COIL:
 537              		.loc 1 120 0
 538 0072 67E0     		b	.L39
 539              	.L42:
 122:..\ModbusRtu.c ****         au8Buffer[ NB_LO ]      = 0;
 540              		.loc 1 122 0
 541 0074 0B88     		ldrh	r3, [r1]
 542 0076 03B1     		cbz	r3, .L46
 543 0078 FF24     		movs	r4, #255
 544              	.L46:
 122:..\ModbusRtu.c ****         au8Buffer[ NB_LO ]      = 0;
 545              		.loc 1 122 0 is_stmt 0 discriminator 4
 546 007a 404B     		ldr	r3, .L58+12
 547 007c 1C71     		strb	r4, [r3, #4]
 123:..\ModbusRtu.c ****         u8BufferSize = 6;
 548              		.loc 1 123 0 is_stmt 1 discriminator 4
 549 007e 0022     		movs	r2, #0
 550 0080 5A71     		strb	r2, [r3, #5]
 124:..\ModbusRtu.c ****         break;
 551              		.loc 1 124 0 discriminator 4
 552 0082 0622     		movs	r2, #6
 553 0084 3E4B     		ldr	r3, .L58+16
 554 0086 1A70     		strb	r2, [r3]
 125:..\ModbusRtu.c ****     case MB_FC_WRITE_REGISTER:
 555              		.loc 1 125 0 discriminator 4
 556 0088 5CE0     		b	.L39
 557              	.L43:
ARM GAS  C:\Users\scott\AppData\Local\Temp\cclyZCPR.s 			page 18


 127:..\ModbusRtu.c ****         au8Buffer[ NB_LO ]      = lowByte(au16regs[0]);
 558              		.loc 1 127 0
 559 008a 0B88     		ldrh	r3, [r1]
 560 008c 1B0A     		lsrs	r3, r3, #8
 561 008e 3B4A     		ldr	r2, .L58+12
 562 0090 1371     		strb	r3, [r2, #4]
 128:..\ModbusRtu.c ****         u8BufferSize = 6;
 563              		.loc 1 128 0
 564 0092 0B78     		ldrb	r3, [r1]	@ zero_extendqisi2
 565 0094 5371     		strb	r3, [r2, #5]
 129:..\ModbusRtu.c ****         break;
 566              		.loc 1 129 0
 567 0096 0622     		movs	r2, #6
 568 0098 394B     		ldr	r3, .L58+16
 569 009a 1A70     		strb	r2, [r3]
 130:..\ModbusRtu.c ****     case MB_FC_WRITE_MULTIPLE_COILS: // TODO: implement "sending coils"
 570              		.loc 1 130 0
 571 009c 52E0     		b	.L39
 572              	.L44:
 132:..\ModbusRtu.c ****         u8bytesno = u8regsno * 2;
 573              		.loc 1 132 0
 574 009e BDF80830 		ldrh	r3, [sp, #8]
 575 00a2 C3F30714 		ubfx	r4, r3, #4, #8
 576              	.LVL34:
 133:..\ModbusRtu.c ****         if ((telegram.u16CoilsNo % 16) != 0)
 577              		.loc 1 133 0
 578 00a6 6400     		lsls	r4, r4, #1
 579 00a8 E4B2     		uxtb	r4, r4
 580              	.LVL35:
 134:..\ModbusRtu.c ****         {
 581              		.loc 1 134 0
 582 00aa 13F00F0F 		tst	r3, #15
 583 00ae 01D0     		beq	.L47
 136:..\ModbusRtu.c ****             u8regsno++;
 584              		.loc 1 136 0
 585 00b0 0134     		adds	r4, r4, #1
 586              	.LVL36:
 587 00b2 E4B2     		uxtb	r4, r4
 588              	.LVL37:
 589              	.L47:
 140:..\ModbusRtu.c ****         au8Buffer[ NB_LO ]      = lowByte( telegram.u16CoilsNo );
 590              		.loc 1 140 0
 591 00b4 180A     		lsrs	r0, r3, #8
 592 00b6 314A     		ldr	r2, .L58+12
 593 00b8 1071     		strb	r0, [r2, #4]
 141:..\ModbusRtu.c ****         au8Buffer[ BYTE_CNT ]    = u8bytesno;
 594              		.loc 1 141 0
 595 00ba 5371     		strb	r3, [r2, #5]
 142:..\ModbusRtu.c ****         u8BufferSize = 7;
 596              		.loc 1 142 0
 597 00bc 9471     		strb	r4, [r2, #6]
 143:..\ModbusRtu.c **** 
 598              		.loc 1 143 0
 599 00be 0722     		movs	r2, #7
 600 00c0 2F4B     		ldr	r3, .L58+16
 601 00c2 1A70     		strb	r2, [r3]
 602              	.LVL38:
ARM GAS  C:\Users\scott\AppData\Local\Temp\cclyZCPR.s 			page 19


 603              	.LBB5:
 145:..\ModbusRtu.c ****         {
 604              		.loc 1 145 0
 605 00c4 0023     		movs	r3, #0
 606 00c6 18E0     		b	.L48
 607              	.LVL39:
 608              	.L51:
 147:..\ModbusRtu.c ****             {
 609              		.loc 1 147 0
 610 00c8 13F0010F 		tst	r3, #1
 611 00cc 07D0     		beq	.L49
 149:..\ModbusRtu.c ****             }
 612              		.loc 1 149 0
 613 00ce 2C4A     		ldr	r2, .L58+16
 614 00d0 1278     		ldrb	r2, [r2]	@ zero_extendqisi2
 615 00d2 5808     		lsrs	r0, r3, #1
 616 00d4 11F81050 		ldrb	r5, [r1, r0, lsl #1]	@ zero_extendqisi2
 617 00d8 2848     		ldr	r0, .L58+12
 618 00da 8554     		strb	r5, [r0, r2]
 619 00dc 07E0     		b	.L50
 620              	.L49:
 153:..\ModbusRtu.c ****             }
 621              		.loc 1 153 0
 622 00de 284A     		ldr	r2, .L58+16
 623 00e0 1078     		ldrb	r0, [r2]	@ zero_extendqisi2
 624 00e2 5A08     		lsrs	r2, r3, #1
 625 00e4 31F81220 		ldrh	r2, [r1, r2, lsl #1]
 626 00e8 120A     		lsrs	r2, r2, #8
 627 00ea 244D     		ldr	r5, .L58+12
 628 00ec 2A54     		strb	r2, [r5, r0]
 629              	.L50:
 155:..\ModbusRtu.c ****         }
 630              		.loc 1 155 0 discriminator 2
 631 00ee 2448     		ldr	r0, .L58+16
 632 00f0 0278     		ldrb	r2, [r0]	@ zero_extendqisi2
 633 00f2 0132     		adds	r2, r2, #1
 634 00f4 0270     		strb	r2, [r0]
 145:..\ModbusRtu.c ****         {
 635              		.loc 1 145 0 discriminator 2
 636 00f6 0133     		adds	r3, r3, #1
 637              	.LVL40:
 638 00f8 9BB2     		uxth	r3, r3
 639              	.LVL41:
 640              	.L48:
 145:..\ModbusRtu.c ****         {
 641              		.loc 1 145 0 is_stmt 0 discriminator 1
 642 00fa A2B2     		uxth	r2, r4
 643 00fc 9342     		cmp	r3, r2
 644 00fe E3D3     		bcc	.L51
 645 0100 20E0     		b	.L39
 646              	.LVL42:
 647              	.L45:
 648              	.LBE5:
 160:..\ModbusRtu.c ****         au8Buffer[ NB_LO ]      = lowByte( telegram.u16CoilsNo );
 649              		.loc 1 160 0 is_stmt 1
 650 0102 BDF80860 		ldrh	r6, [sp, #8]
 651 0106 330A     		lsrs	r3, r6, #8
ARM GAS  C:\Users\scott\AppData\Local\Temp\cclyZCPR.s 			page 20


 652 0108 1C4A     		ldr	r2, .L58+12
 653 010a 1371     		strb	r3, [r2, #4]
 161:..\ModbusRtu.c ****         au8Buffer[ BYTE_CNT ]    = (uint8_t) ( telegram.u16CoilsNo * 2 );
 654              		.loc 1 161 0
 655 010c F3B2     		uxtb	r3, r6
 656 010e 5371     		strb	r3, [r2, #5]
 162:..\ModbusRtu.c ****         u8BufferSize = 7;
 657              		.loc 1 162 0
 658 0110 5B00     		lsls	r3, r3, #1
 659 0112 9371     		strb	r3, [r2, #6]
 163:..\ModbusRtu.c **** 
 660              		.loc 1 163 0
 661 0114 0722     		movs	r2, #7
 662 0116 1A4B     		ldr	r3, .L58+16
 663 0118 1A70     		strb	r2, [r3]
 664              	.LVL43:
 665              	.LBB6:
 165:..\ModbusRtu.c ****         {
 666              		.loc 1 165 0
 667 011a 0022     		movs	r2, #0
 668 011c 10E0     		b	.L52
 669              	.LVL44:
 670              	.L53:
 167:..\ModbusRtu.c ****             u8BufferSize++;
 671              		.loc 1 167 0 discriminator 3
 672 011e 1848     		ldr	r0, .L58+16
 673 0120 0378     		ldrb	r3, [r0]	@ zero_extendqisi2
 674 0122 31F81240 		ldrh	r4, [r1, r2, lsl #1]
 675 0126 240A     		lsrs	r4, r4, #8
 676 0128 144D     		ldr	r5, .L58+12
 677 012a EC54     		strb	r4, [r5, r3]
 168:..\ModbusRtu.c ****             au8Buffer[ u8BufferSize ] = lowByte( au16regs[ i ] );
 678              		.loc 1 168 0 discriminator 3
 679 012c 0133     		adds	r3, r3, #1
 680 012e DBB2     		uxtb	r3, r3
 681 0130 0370     		strb	r3, [r0]
 169:..\ModbusRtu.c ****             u8BufferSize++;
 682              		.loc 1 169 0 discriminator 3
 683 0132 11F81240 		ldrb	r4, [r1, r2, lsl #1]	@ zero_extendqisi2
 684 0136 EC54     		strb	r4, [r5, r3]
 170:..\ModbusRtu.c ****         }
 685              		.loc 1 170 0 discriminator 3
 686 0138 0133     		adds	r3, r3, #1
 687 013a 0370     		strb	r3, [r0]
 165:..\ModbusRtu.c ****         {
 688              		.loc 1 165 0 discriminator 3
 689 013c 0132     		adds	r2, r2, #1
 690              	.LVL45:
 691 013e 92B2     		uxth	r2, r2
 692              	.LVL46:
 693              	.L52:
 165:..\ModbusRtu.c ****         {
 694              		.loc 1 165 0 is_stmt 0 discriminator 1
 695 0140 B242     		cmp	r2, r6
 696 0142 ECD3     		bcc	.L53
 697              	.LVL47:
 698              	.L39:
ARM GAS  C:\Users\scott\AppData\Local\Temp\cclyZCPR.s 			page 21


 699              	.LBE6:
 175:..\ModbusRtu.c ****     Modbus_sendTxBuffer();
 700              		.loc 1 175 0 is_stmt 1
 701 0144 FFF7FEFF 		bl	RS485_ClearTxBuffer
 702              	.LVL48:
 176:..\ModbusRtu.c ****     u8state = COM_WAITING;
 703              		.loc 1 176 0
 704 0148 FFF7FEFF 		bl	Modbus_sendTxBuffer
 705              	.LVL49:
 177:..\ModbusRtu.c ****     u8lastError = 0;
 706              		.loc 1 177 0
 707 014c 0122     		movs	r2, #1
 708 014e 094B     		ldr	r3, .L58+4
 709 0150 1A70     		strb	r2, [r3]
 178:..\ModbusRtu.c ****     return 0;
 710              		.loc 1 178 0
 711 0152 0020     		movs	r0, #0
 712 0154 0B4B     		ldr	r3, .L58+20
 713 0156 1870     		strb	r0, [r3]
 179:..\ModbusRtu.c **** }
 714              		.loc 1 179 0
 715 0158 07E0     		b	.L38
 716              	.L54:
  98:..\ModbusRtu.c ****     if (u8state != COM_IDLE) return -1;
 717              		.loc 1 98 0
 718 015a 6FF00100 		mvn	r0, #1
 719 015e 04E0     		b	.L38
 720              	.L55:
  99:..\ModbusRtu.c **** 
 721              		.loc 1 99 0
 722 0160 4FF0FF30 		mov	r0, #-1
 723 0164 01E0     		b	.L38
 724              	.L56:
 101:..\ModbusRtu.c **** 
 725              		.loc 1 101 0
 726 0166 6FF00200 		mvn	r0, #2
 727              	.L38:
 180:..\ModbusRtu.c **** 
 728              		.loc 1 180 0
 729 016a 04B0     		add	sp, sp, #16
 730              		.cfi_def_cfa_offset 16
 731              		@ sp needed
 732 016c 70BD     		pop	{r4, r5, r6, pc}
 733              	.L59:
 734 016e 00BF     		.align	2
 735              	.L58:
 736 0170 00000000 		.word	u8id
 737 0174 00000000 		.word	u8state
 738 0178 00000000 		.word	au16regs
 739 017c 00000000 		.word	au8Buffer
 740 0180 00000000 		.word	u8BufferSize
 741 0184 00000000 		.word	u8lastError
 742              		.cfi_endproc
 743              	.LFE67:
 744              		.size	Modbus_query, .-Modbus_query
 745              		.section	.text.Modbus_validateRequest,"ax",%progbits
 746              		.align	2
ARM GAS  C:\Users\scott\AppData\Local\Temp\cclyZCPR.s 			page 22


 747              		.global	Modbus_validateRequest
 748              		.thumb
 749              		.thumb_func
 750              		.type	Modbus_validateRequest, %function
 751              	Modbus_validateRequest:
 752              	.LFB73:
 374:..\ModbusRtu.c **** 
 375:..\ModbusRtu.c **** /**
 376:..\ModbusRtu.c ****  * @brief
 377:..\ModbusRtu.c ****  * This method validates slave incoming messages
 378:..\ModbusRtu.c ****  *
 379:..\ModbusRtu.c ****  * @return 0 if OK, EXCEPTION if anything fails
 380:..\ModbusRtu.c ****  * @ingroup buffer
 381:..\ModbusRtu.c ****  */
 382:..\ModbusRtu.c **** uint8_t Modbus_validateRequest()
 383:..\ModbusRtu.c **** {
 753              		.loc 1 383 0
 754              		.cfi_startproc
 755              		@ args = 0, pretend = 0, frame = 0
 756              		@ frame_needed = 0, uses_anonymous_args = 0
 757 0000 38B5     		push	{r3, r4, r5, lr}
 758              		.cfi_def_cfa_offset 16
 759              		.cfi_offset 3, -16
 760              		.cfi_offset 4, -12
 761              		.cfi_offset 5, -8
 762              		.cfi_offset 14, -4
 384:..\ModbusRtu.c ****     // check message crc vs calculated crc
 385:..\ModbusRtu.c ****     uint16_t u16MsgCRC =
 386:..\ModbusRtu.c ****         ((au8Buffer[u8BufferSize - 2] << 8)
 763              		.loc 1 386 0
 764 0002 414B     		ldr	r3, .L79
 765 0004 1B78     		ldrb	r3, [r3]	@ zero_extendqisi2
 766 0006 981E     		subs	r0, r3, #2
 767 0008 404A     		ldr	r2, .L79+4
 768 000a 145C     		ldrb	r4, [r2, r0]	@ zero_extendqisi2
 387:..\ModbusRtu.c ****          | au8Buffer[u8BufferSize - 1]); // combine the crc Low & High bytes
 769              		.loc 1 387 0
 770 000c 013B     		subs	r3, r3, #1
 771 000e D35C     		ldrb	r3, [r2, r3]	@ zero_extendqisi2
 385:..\ModbusRtu.c ****         ((au8Buffer[u8BufferSize - 2] << 8)
 772              		.loc 1 385 0
 773 0010 43EA0424 		orr	r4, r3, r4, lsl #8
 774              	.LVL50:
 388:..\ModbusRtu.c ****     if ( Modbus_calcCRC( u8BufferSize-2 ) != u16MsgCRC )
 775              		.loc 1 388 0
 776 0014 C0B2     		uxtb	r0, r0
 777 0016 FFF7FEFF 		bl	Modbus_calcCRC
 778              	.LVL51:
 779 001a 8442     		cmp	r4, r0
 780 001c 0ED0     		beq	.L71
 389:..\ModbusRtu.c ****     {
 390:..\ModbusRtu.c ****         u16errCnt ++;
 781              		.loc 1 390 0
 782 001e 3C4A     		ldr	r2, .L79+8
 783 0020 1388     		ldrh	r3, [r2]
 784 0022 0133     		adds	r3, r3, #1
 785 0024 1380     		strh	r3, [r2]	@ movhi
ARM GAS  C:\Users\scott\AppData\Local\Temp\cclyZCPR.s 			page 23


 391:..\ModbusRtu.c ****         return NO_REPLY;
 786              		.loc 1 391 0
 787 0026 FF20     		movs	r0, #255
 788 0028 38BD     		pop	{r3, r4, r5, pc}
 789              	.LVL52:
 790              	.L64:
 791              	.LBB7:
 392:..\ModbusRtu.c ****     }
 393:..\ModbusRtu.c **** 
 394:..\ModbusRtu.c ****     // check fct code
 395:..\ModbusRtu.c ****     _Bool isSupported = false;
 396:..\ModbusRtu.c ****     for (uint8_t i = 0; i< sizeof( fctsupported ); i++)
 397:..\ModbusRtu.c ****     {
 398:..\ModbusRtu.c ****         if (fctsupported[i] == au8Buffer[FUNC])
 792              		.loc 1 398 0
 793 002a 3A4A     		ldr	r2, .L79+12
 794 002c D15C     		ldrb	r1, [r2, r3]	@ zero_extendqisi2
 795 002e 374A     		ldr	r2, .L79+4
 796 0030 5278     		ldrb	r2, [r2, #1]	@ zero_extendqisi2
 797 0032 9142     		cmp	r1, r2
 798 0034 07D0     		beq	.L72
 396:..\ModbusRtu.c ****     {
 799              		.loc 1 396 0 discriminator 2
 800 0036 0133     		adds	r3, r3, #1
 801              	.LVL53:
 802 0038 DBB2     		uxtb	r3, r3
 803              	.LVL54:
 804 003a 00E0     		b	.L61
 805              	.LVL55:
 806              	.L71:
 807              	.LBE7:
 808 003c 0023     		movs	r3, #0
 809              	.L61:
 810              	.LVL56:
 811              	.LBB8:
 396:..\ModbusRtu.c ****     {
 812              		.loc 1 396 0 is_stmt 0 discriminator 1
 813 003e 072B     		cmp	r3, #7
 814 0040 F3D9     		bls	.L64
 815              	.LBE8:
 395:..\ModbusRtu.c ****     for (uint8_t i = 0; i< sizeof( fctsupported ); i++)
 816              		.loc 1 395 0 is_stmt 1
 817 0042 0023     		movs	r3, #0
 818              	.LVL57:
 819              	.LBB9:
 820 0044 00E0     		b	.L63
 821              	.LVL58:
 822              	.L72:
 399:..\ModbusRtu.c ****         {
 400:..\ModbusRtu.c ****             isSupported = 1;
 823              		.loc 1 400 0
 824 0046 0123     		movs	r3, #1
 825              	.LVL59:
 826              	.L63:
 827              	.LBE9:
 401:..\ModbusRtu.c ****             break;
 402:..\ModbusRtu.c ****         }
ARM GAS  C:\Users\scott\AppData\Local\Temp\cclyZCPR.s 			page 24


 403:..\ModbusRtu.c ****     }
 404:..\ModbusRtu.c ****     if (!isSupported)
 828              		.loc 1 404 0
 829 0048 2BB9     		cbnz	r3, .L65
 405:..\ModbusRtu.c ****     {
 406:..\ModbusRtu.c ****         u16errCnt ++;
 830              		.loc 1 406 0
 831 004a 314A     		ldr	r2, .L79+8
 832 004c 1388     		ldrh	r3, [r2]
 833              	.LVL60:
 834 004e 0133     		adds	r3, r3, #1
 835 0050 1380     		strh	r3, [r2]	@ movhi
 407:..\ModbusRtu.c ****         return EXC_FUNC_CODE;
 836              		.loc 1 407 0
 837 0052 0120     		movs	r0, #1
 838 0054 38BD     		pop	{r3, r4, r5, pc}
 839              	.LVL61:
 840              	.L65:
 408:..\ModbusRtu.c ****     }
 409:..\ModbusRtu.c **** 
 410:..\ModbusRtu.c ****     // check start address & nb range
 411:..\ModbusRtu.c ****     uint16_t u16regs = 0;
 412:..\ModbusRtu.c ****     uint8_t u8regs;
 413:..\ModbusRtu.c ****     switch ( au8Buffer[ FUNC ] )
 841              		.loc 1 413 0
 842 0056 2D4B     		ldr	r3, .L79+4
 843              	.LVL62:
 844 0058 5B78     		ldrb	r3, [r3, #1]	@ zero_extendqisi2
 845 005a 013B     		subs	r3, r3, #1
 846 005c 0F2B     		cmp	r3, #15
 847 005e 49D8     		bhi	.L73
 848 0060 DFE803F0 		tbb	[pc, r3]
 849              	.L67:
 850 0064 08       		.byte	(.L66-.L67)/2
 851 0065 08       		.byte	(.L66-.L67)/2
 852 0066 36       		.byte	(.L68-.L67)/2
 853 0067 36       		.byte	(.L68-.L67)/2
 854 0068 1D       		.byte	(.L69-.L67)/2
 855 0069 2A       		.byte	(.L70-.L67)/2
 856 006a 48       		.byte	(.L73-.L67)/2
 857 006b 48       		.byte	(.L73-.L67)/2
 858 006c 48       		.byte	(.L73-.L67)/2
 859 006d 48       		.byte	(.L73-.L67)/2
 860 006e 48       		.byte	(.L73-.L67)/2
 861 006f 48       		.byte	(.L73-.L67)/2
 862 0070 48       		.byte	(.L73-.L67)/2
 863 0071 48       		.byte	(.L73-.L67)/2
 864 0072 08       		.byte	(.L66-.L67)/2
 865 0073 36       		.byte	(.L68-.L67)/2
 866              		.p2align 1
 867              	.L66:
 414:..\ModbusRtu.c ****     {
 415:..\ModbusRtu.c ****     case MB_FC_READ_COILS:
 416:..\ModbusRtu.c ****     case MB_FC_READ_DISCRETE_INPUT:
 417:..\ModbusRtu.c ****     case MB_FC_WRITE_MULTIPLE_COILS:
 418:..\ModbusRtu.c ****         u16regs = makeWord( au8Buffer[ ADD_HI ], au8Buffer[ ADD_LO ]) / 16;
 868              		.loc 1 418 0
ARM GAS  C:\Users\scott\AppData\Local\Temp\cclyZCPR.s 			page 25


 869 0074 254C     		ldr	r4, .L79+4
 870              	.LVL63:
 871 0076 E178     		ldrb	r1, [r4, #3]	@ zero_extendqisi2
 872 0078 A078     		ldrb	r0, [r4, #2]	@ zero_extendqisi2
 873 007a FFF7FEFF 		bl	makeWord
 874              	.LVL64:
 875 007e C0F30F15 		ubfx	r5, r0, #4, #16
 876              	.LVL65:
 419:..\ModbusRtu.c ****         u16regs += makeWord( au8Buffer[ NB_HI ], au8Buffer[ NB_LO ]) /16;
 877              		.loc 1 419 0
 878 0082 6179     		ldrb	r1, [r4, #5]	@ zero_extendqisi2
 879 0084 2079     		ldrb	r0, [r4, #4]	@ zero_extendqisi2
 880 0086 FFF7FEFF 		bl	makeWord
 881              	.LVL66:
 882 008a C0F30F10 		ubfx	r0, r0, #4, #16
 883 008e 2B18     		adds	r3, r5, r0
 884              	.LVL67:
 420:..\ModbusRtu.c ****         u8regs = (uint8_t) u16regs;
 885              		.loc 1 420 0
 886 0090 DBB2     		uxtb	r3, r3
 887              	.LVL68:
 421:..\ModbusRtu.c ****         if (u8regs > u8regsize) return EXC_ADDR_RANGE;
 888              		.loc 1 421 0
 889 0092 214A     		ldr	r2, .L79+16
 890 0094 1278     		ldrb	r2, [r2]	@ zero_extendqisi2
 891 0096 9342     		cmp	r3, r2
 892 0098 2ED9     		bls	.L74
 893 009a 0220     		movs	r0, #2
 894              	.LVL69:
 895 009c 38BD     		pop	{r3, r4, r5, pc}
 896              	.LVL70:
 897              	.L69:
 422:..\ModbusRtu.c ****         break;
 423:..\ModbusRtu.c ****     case MB_FC_WRITE_COIL:
 424:..\ModbusRtu.c ****         u16regs = makeWord( au8Buffer[ ADD_HI ], au8Buffer[ ADD_LO ]) / 16;
 898              		.loc 1 424 0
 899 009e 1B4B     		ldr	r3, .L79+4
 900 00a0 D978     		ldrb	r1, [r3, #3]	@ zero_extendqisi2
 901 00a2 9878     		ldrb	r0, [r3, #2]	@ zero_extendqisi2
 902 00a4 FFF7FEFF 		bl	makeWord
 903              	.LVL71:
 425:..\ModbusRtu.c ****         u8regs = (uint8_t) u16regs;
 904              		.loc 1 425 0
 905 00a8 C0F30710 		ubfx	r0, r0, #4, #8
 906              	.LVL72:
 426:..\ModbusRtu.c ****         if (u8regs > u8regsize) return EXC_ADDR_RANGE;
 907              		.loc 1 426 0
 908 00ac 1A4B     		ldr	r3, .L79+16
 909 00ae 1B78     		ldrb	r3, [r3]	@ zero_extendqisi2
 910 00b0 9842     		cmp	r0, r3
 911 00b2 23D9     		bls	.L75
 912 00b4 0220     		movs	r0, #2
 913              	.LVL73:
 914 00b6 38BD     		pop	{r3, r4, r5, pc}
 915              	.LVL74:
 916              	.L70:
 427:..\ModbusRtu.c ****         break;
ARM GAS  C:\Users\scott\AppData\Local\Temp\cclyZCPR.s 			page 26


 428:..\ModbusRtu.c ****     case MB_FC_WRITE_REGISTER :
 429:..\ModbusRtu.c ****         u16regs = makeWord( au8Buffer[ ADD_HI ], au8Buffer[ ADD_LO ]);
 917              		.loc 1 429 0
 918 00b8 144B     		ldr	r3, .L79+4
 919 00ba D978     		ldrb	r1, [r3, #3]	@ zero_extendqisi2
 920 00bc 9878     		ldrb	r0, [r3, #2]	@ zero_extendqisi2
 921 00be FFF7FEFF 		bl	makeWord
 922              	.LVL75:
 430:..\ModbusRtu.c ****         u8regs = (uint8_t) u16regs;
 923              		.loc 1 430 0
 924 00c2 C0B2     		uxtb	r0, r0
 925              	.LVL76:
 431:..\ModbusRtu.c ****         if (u8regs > u8regsize) return EXC_ADDR_RANGE;
 926              		.loc 1 431 0
 927 00c4 144B     		ldr	r3, .L79+16
 928 00c6 1B78     		ldrb	r3, [r3]	@ zero_extendqisi2
 929 00c8 9842     		cmp	r0, r3
 930 00ca 19D9     		bls	.L76
 931 00cc 0220     		movs	r0, #2
 932              	.LVL77:
 933 00ce 38BD     		pop	{r3, r4, r5, pc}
 934              	.LVL78:
 935              	.L68:
 432:..\ModbusRtu.c ****         break;
 433:..\ModbusRtu.c ****     case MB_FC_READ_REGISTERS :
 434:..\ModbusRtu.c ****     case MB_FC_READ_INPUT_REGISTER :
 435:..\ModbusRtu.c ****     case MB_FC_WRITE_MULTIPLE_REGISTERS :
 436:..\ModbusRtu.c ****         u16regs = makeWord( au8Buffer[ ADD_HI ], au8Buffer[ ADD_LO ]);
 936              		.loc 1 436 0
 937 00d0 0E4D     		ldr	r5, .L79+4
 938 00d2 E978     		ldrb	r1, [r5, #3]	@ zero_extendqisi2
 939 00d4 A878     		ldrb	r0, [r5, #2]	@ zero_extendqisi2
 940 00d6 FFF7FEFF 		bl	makeWord
 941              	.LVL79:
 942 00da 0446     		mov	r4, r0
 943              	.LVL80:
 437:..\ModbusRtu.c ****         u16regs += makeWord( au8Buffer[ NB_HI ], au8Buffer[ NB_LO ]);
 944              		.loc 1 437 0
 945 00dc 6979     		ldrb	r1, [r5, #5]	@ zero_extendqisi2
 946 00de 2879     		ldrb	r0, [r5, #4]	@ zero_extendqisi2
 947 00e0 FFF7FEFF 		bl	makeWord
 948              	.LVL81:
 949 00e4 2044     		add	r0, r0, r4
 950              	.LVL82:
 438:..\ModbusRtu.c ****         u8regs = (uint8_t) u16regs;
 951              		.loc 1 438 0
 952 00e6 C0B2     		uxtb	r0, r0
 953              	.LVL83:
 439:..\ModbusRtu.c ****         if (u8regs > u8regsize) return EXC_ADDR_RANGE;
 954              		.loc 1 439 0
 955 00e8 0B4B     		ldr	r3, .L79+16
 956 00ea 1B78     		ldrb	r3, [r3]	@ zero_extendqisi2
 957 00ec 9842     		cmp	r0, r3
 958 00ee 09D9     		bls	.L77
 959 00f0 0220     		movs	r0, #2
 960              	.LVL84:
 961 00f2 38BD     		pop	{r3, r4, r5, pc}
ARM GAS  C:\Users\scott\AppData\Local\Temp\cclyZCPR.s 			page 27


 962              	.LVL85:
 963              	.L73:
 440:..\ModbusRtu.c ****         break;
 441:..\ModbusRtu.c ****     }
 442:..\ModbusRtu.c ****     return 0; // OK, no exception code thrown
 964              		.loc 1 442 0
 965 00f4 0020     		movs	r0, #0
 966 00f6 38BD     		pop	{r3, r4, r5, pc}
 967              	.LVL86:
 968              	.L74:
 969 00f8 0020     		movs	r0, #0
 970              	.LVL87:
 971 00fa 38BD     		pop	{r3, r4, r5, pc}
 972              	.LVL88:
 973              	.L75:
 974 00fc 0020     		movs	r0, #0
 975              	.LVL89:
 976 00fe 38BD     		pop	{r3, r4, r5, pc}
 977              	.LVL90:
 978              	.L76:
 979 0100 0020     		movs	r0, #0
 980              	.LVL91:
 981 0102 38BD     		pop	{r3, r4, r5, pc}
 982              	.LVL92:
 983              	.L77:
 984 0104 0020     		movs	r0, #0
 985              	.LVL93:
 443:..\ModbusRtu.c **** }
 986              		.loc 1 443 0
 987 0106 38BD     		pop	{r3, r4, r5, pc}
 988              	.L80:
 989              		.align	2
 990              	.L79:
 991 0108 00000000 		.word	u8BufferSize
 992 010c 00000000 		.word	au8Buffer
 993 0110 00000000 		.word	u16errCnt
 994 0114 00000000 		.word	.LANCHOR0
 995 0118 00000000 		.word	u8regsize
 996              		.cfi_endproc
 997              	.LFE73:
 998              		.size	Modbus_validateRequest, .-Modbus_validateRequest
 999              		.section	.text.Modbus_validateAnswer,"ax",%progbits
 1000              		.align	2
 1001              		.global	Modbus_validateAnswer
 1002              		.thumb
 1003              		.thumb_func
 1004              		.type	Modbus_validateAnswer, %function
 1005              	Modbus_validateAnswer:
 1006              	.LFB74:
 444:..\ModbusRtu.c **** 
 445:..\ModbusRtu.c **** /**
 446:..\ModbusRtu.c ****  * @brief
 447:..\ModbusRtu.c ****  * This method validates master incoming messages
 448:..\ModbusRtu.c ****  *
 449:..\ModbusRtu.c ****  * @return 0 if OK, EXCEPTION if anything fails
 450:..\ModbusRtu.c ****  * @ingroup buffer
 451:..\ModbusRtu.c ****  */
ARM GAS  C:\Users\scott\AppData\Local\Temp\cclyZCPR.s 			page 28


 452:..\ModbusRtu.c **** uint8_t Modbus_validateAnswer()
 453:..\ModbusRtu.c **** {
 1007              		.loc 1 453 0
 1008              		.cfi_startproc
 1009              		@ args = 0, pretend = 0, frame = 0
 1010              		@ frame_needed = 0, uses_anonymous_args = 0
 1011 0000 10B5     		push	{r4, lr}
 1012              		.cfi_def_cfa_offset 8
 1013              		.cfi_offset 4, -8
 1014              		.cfi_offset 14, -4
 454:..\ModbusRtu.c ****     // check message crc vs calculated crc
 455:..\ModbusRtu.c ****     uint16_t u16MsgCRC =
 456:..\ModbusRtu.c ****         ((au8Buffer[u8BufferSize - 2] << 8)
 1015              		.loc 1 456 0
 1016 0002 1A4B     		ldr	r3, .L91
 1017 0004 1B78     		ldrb	r3, [r3]	@ zero_extendqisi2
 1018 0006 981E     		subs	r0, r3, #2
 1019 0008 194A     		ldr	r2, .L91+4
 1020 000a 145C     		ldrb	r4, [r2, r0]	@ zero_extendqisi2
 457:..\ModbusRtu.c ****          | au8Buffer[u8BufferSize - 1]); // combine the crc Low & High bytes
 1021              		.loc 1 457 0
 1022 000c 013B     		subs	r3, r3, #1
 1023 000e D35C     		ldrb	r3, [r2, r3]	@ zero_extendqisi2
 455:..\ModbusRtu.c ****         ((au8Buffer[u8BufferSize - 2] << 8)
 1024              		.loc 1 455 0
 1025 0010 43EA0424 		orr	r4, r3, r4, lsl #8
 1026              	.LVL94:
 458:..\ModbusRtu.c ****     if ( Modbus_calcCRC( u8BufferSize-2 ) != u16MsgCRC )
 1027              		.loc 1 458 0
 1028 0014 C0B2     		uxtb	r0, r0
 1029 0016 FFF7FEFF 		bl	Modbus_calcCRC
 1030              	.LVL95:
 1031 001a 8442     		cmp	r4, r0
 1032 001c 05D0     		beq	.L82
 459:..\ModbusRtu.c ****     {
 460:..\ModbusRtu.c ****         u16errCnt ++;
 1033              		.loc 1 460 0
 1034 001e 154A     		ldr	r2, .L91+8
 1035 0020 1388     		ldrh	r3, [r2]
 1036 0022 0133     		adds	r3, r3, #1
 1037 0024 1380     		strh	r3, [r2]	@ movhi
 461:..\ModbusRtu.c ****         return NO_REPLY;
 1038              		.loc 1 461 0
 1039 0026 FF20     		movs	r0, #255
 1040 0028 10BD     		pop	{r4, pc}
 1041              	.LVL96:
 1042              	.L82:
 462:..\ModbusRtu.c ****     }
 463:..\ModbusRtu.c **** 
 464:..\ModbusRtu.c ****     // check exception
 465:..\ModbusRtu.c ****     if ((au8Buffer[ FUNC ] & 0x80) != 0)
 1043              		.loc 1 465 0
 1044 002a 114B     		ldr	r3, .L91+4
 1045 002c 5978     		ldrb	r1, [r3, #1]	@ zero_extendqisi2
 1046 002e 11F0800F 		tst	r1, #128
 1047 0032 0CD0     		beq	.L87
 466:..\ModbusRtu.c ****     {
ARM GAS  C:\Users\scott\AppData\Local\Temp\cclyZCPR.s 			page 29


 467:..\ModbusRtu.c ****         u16errCnt ++;
 1048              		.loc 1 467 0
 1049 0034 0F4A     		ldr	r2, .L91+8
 1050 0036 1388     		ldrh	r3, [r2]
 1051 0038 0133     		adds	r3, r3, #1
 1052 003a 1380     		strh	r3, [r2]	@ movhi
 468:..\ModbusRtu.c ****         return ERR_EXCEPTION;
 1053              		.loc 1 468 0
 1054 003c FB20     		movs	r0, #251
 1055 003e 10BD     		pop	{r4, pc}
 1056              	.LVL97:
 1057              	.L86:
 1058              	.LBB10:
 469:..\ModbusRtu.c ****     }
 470:..\ModbusRtu.c **** 
 471:..\ModbusRtu.c ****     // check fct code
 472:..\ModbusRtu.c ****     _Bool isSupported = false;
 473:..\ModbusRtu.c ****     for (uint8_t i = 0; i< sizeof( fctsupported ); i++)
 474:..\ModbusRtu.c ****     {
 475:..\ModbusRtu.c ****         if (fctsupported[i] == au8Buffer[FUNC])
 1059              		.loc 1 475 0
 1060 0040 0D4A     		ldr	r2, .L91+12
 1061 0042 D25C     		ldrb	r2, [r2, r3]	@ zero_extendqisi2
 1062 0044 9142     		cmp	r1, r2
 1063 0046 07D0     		beq	.L88
 473:..\ModbusRtu.c ****     {
 1064              		.loc 1 473 0 discriminator 2
 1065 0048 0133     		adds	r3, r3, #1
 1066              	.LVL98:
 1067 004a DBB2     		uxtb	r3, r3
 1068              	.LVL99:
 1069 004c 00E0     		b	.L84
 1070              	.LVL100:
 1071              	.L87:
 1072              	.LBE10:
 1073 004e 0023     		movs	r3, #0
 1074              	.L84:
 1075              	.LVL101:
 1076              	.LBB11:
 473:..\ModbusRtu.c ****     {
 1077              		.loc 1 473 0 is_stmt 0 discriminator 1
 1078 0050 072B     		cmp	r3, #7
 1079 0052 F5D9     		bls	.L86
 1080              	.LBE11:
 472:..\ModbusRtu.c ****     for (uint8_t i = 0; i< sizeof( fctsupported ); i++)
 1081              		.loc 1 472 0 is_stmt 1
 1082 0054 0023     		movs	r3, #0
 1083              	.LVL102:
 1084              	.LBB12:
 1085 0056 00E0     		b	.L85
 1086              	.LVL103:
 1087              	.L88:
 476:..\ModbusRtu.c ****         {
 477:..\ModbusRtu.c ****             isSupported = 1;
 1088              		.loc 1 477 0
 1089 0058 0123     		movs	r3, #1
 1090              	.LVL104:
ARM GAS  C:\Users\scott\AppData\Local\Temp\cclyZCPR.s 			page 30


 1091              	.L85:
 1092              	.LBE12:
 478:..\ModbusRtu.c ****             break;
 479:..\ModbusRtu.c ****         }
 480:..\ModbusRtu.c ****     }
 481:..\ModbusRtu.c ****     if (!isSupported)
 1093              		.loc 1 481 0
 1094 005a 2BB9     		cbnz	r3, .L89
 482:..\ModbusRtu.c ****     {
 483:..\ModbusRtu.c ****         u16errCnt ++;
 1095              		.loc 1 483 0
 1096 005c 054A     		ldr	r2, .L91+8
 1097 005e 1388     		ldrh	r3, [r2]
 1098              	.LVL105:
 1099 0060 0133     		adds	r3, r3, #1
 1100 0062 1380     		strh	r3, [r2]	@ movhi
 484:..\ModbusRtu.c ****         return EXC_FUNC_CODE;
 1101              		.loc 1 484 0
 1102 0064 0120     		movs	r0, #1
 1103 0066 10BD     		pop	{r4, pc}
 1104              	.LVL106:
 1105              	.L89:
 485:..\ModbusRtu.c ****     }
 486:..\ModbusRtu.c **** 
 487:..\ModbusRtu.c ****     return 0; // OK, no exception code thrown
 1106              		.loc 1 487 0
 1107 0068 0020     		movs	r0, #0
 488:..\ModbusRtu.c **** }
 1108              		.loc 1 488 0
 1109 006a 10BD     		pop	{r4, pc}
 1110              	.LVL107:
 1111              	.L92:
 1112              		.align	2
 1113              	.L91:
 1114 006c 00000000 		.word	u8BufferSize
 1115 0070 00000000 		.word	au8Buffer
 1116 0074 00000000 		.word	u16errCnt
 1117 0078 00000000 		.word	.LANCHOR0
 1118              		.cfi_endproc
 1119              	.LFE74:
 1120              		.size	Modbus_validateAnswer, .-Modbus_validateAnswer
 1121              		.section	.text.Modbus_buildException,"ax",%progbits
 1122              		.align	2
 1123              		.global	Modbus_buildException
 1124              		.thumb
 1125              		.thumb_func
 1126              		.type	Modbus_buildException, %function
 1127              	Modbus_buildException:
 1128              	.LFB75:
 489:..\ModbusRtu.c **** 
 490:..\ModbusRtu.c **** /**
 491:..\ModbusRtu.c ****  * @brief
 492:..\ModbusRtu.c ****  * This method builds an exception message
 493:..\ModbusRtu.c ****  *
 494:..\ModbusRtu.c ****  * @ingroup buffer
 495:..\ModbusRtu.c ****  */
 496:..\ModbusRtu.c **** void Modbus_buildException( uint8_t u8exception )
ARM GAS  C:\Users\scott\AppData\Local\Temp\cclyZCPR.s 			page 31


 497:..\ModbusRtu.c **** {
 1129              		.loc 1 497 0
 1130              		.cfi_startproc
 1131              		@ args = 0, pretend = 0, frame = 0
 1132              		@ frame_needed = 0, uses_anonymous_args = 0
 1133              		@ link register save eliminated.
 1134              	.LVL108:
 498:..\ModbusRtu.c ****     uint8_t u8func = au8Buffer[ FUNC ];  // get the original FUNC code
 1135              		.loc 1 498 0
 1136 0000 054B     		ldr	r3, .L94
 1137 0002 5A78     		ldrb	r2, [r3, #1]	@ zero_extendqisi2
 1138              	.LVL109:
 499:..\ModbusRtu.c **** 
 500:..\ModbusRtu.c ****     au8Buffer[ ID ]      = u8id;
 1139              		.loc 1 500 0
 1140 0004 0549     		ldr	r1, .L94+4
 1141 0006 0978     		ldrb	r1, [r1]	@ zero_extendqisi2
 1142 0008 1970     		strb	r1, [r3]
 501:..\ModbusRtu.c ****     au8Buffer[ FUNC ]    = u8func + 0x80;
 1143              		.loc 1 501 0
 1144 000a 803A     		subs	r2, r2, #128
 1145              	.LVL110:
 1146 000c 5A70     		strb	r2, [r3, #1]
 502:..\ModbusRtu.c ****     au8Buffer[ 2 ]       = u8exception;
 1147              		.loc 1 502 0
 1148 000e 9870     		strb	r0, [r3, #2]
 503:..\ModbusRtu.c ****     u8BufferSize         = EXCEPTION_SIZE;
 1149              		.loc 1 503 0
 1150 0010 0322     		movs	r2, #3
 1151              	.LVL111:
 1152 0012 034B     		ldr	r3, .L94+8
 1153 0014 1A70     		strb	r2, [r3]
 1154 0016 7047     		bx	lr
 1155              	.L95:
 1156              		.align	2
 1157              	.L94:
 1158 0018 00000000 		.word	au8Buffer
 1159 001c 00000000 		.word	u8id
 1160 0020 00000000 		.word	u8BufferSize
 1161              		.cfi_endproc
 1162              	.LFE75:
 1163              		.size	Modbus_buildException, .-Modbus_buildException
 1164              		.section	.text.Modbus_get_FC1,"ax",%progbits
 1165              		.align	2
 1166              		.global	Modbus_get_FC1
 1167              		.thumb
 1168              		.thumb_func
 1169              		.type	Modbus_get_FC1, %function
 1170              	Modbus_get_FC1:
 1171              	.LFB76:
 504:..\ModbusRtu.c **** }
 505:..\ModbusRtu.c **** 
 506:..\ModbusRtu.c **** /**
 507:..\ModbusRtu.c ****  * This method processes functions 1 & 2 (for master)
 508:..\ModbusRtu.c ****  * This method puts the slave answer into master data buffer
 509:..\ModbusRtu.c ****  *
 510:..\ModbusRtu.c ****  * @ingroup register
ARM GAS  C:\Users\scott\AppData\Local\Temp\cclyZCPR.s 			page 32


 511:..\ModbusRtu.c ****  * TODO: finish its implementation
 512:..\ModbusRtu.c ****  */
 513:..\ModbusRtu.c **** void Modbus_get_FC1()
 514:..\ModbusRtu.c **** {
 1172              		.loc 1 514 0
 1173              		.cfi_startproc
 1174              		@ args = 0, pretend = 0, frame = 0
 1175              		@ frame_needed = 0, uses_anonymous_args = 0
 1176 0000 70B5     		push	{r4, r5, r6, lr}
 1177              		.cfi_def_cfa_offset 16
 1178              		.cfi_offset 4, -16
 1179              		.cfi_offset 5, -12
 1180              		.cfi_offset 6, -8
 1181              		.cfi_offset 14, -4
 1182              	.LVL112:
 515:..\ModbusRtu.c ****     uint8_t u8byte, i;
 516:..\ModbusRtu.c ****     u8byte = 3;
 517:..\ModbusRtu.c ****      for (i=0; i< au8Buffer[2]; i++) {
 1183              		.loc 1 517 0
 1184 0002 0024     		movs	r4, #0
 1185 0004 1EE0     		b	.L97
 1186              	.LVL113:
 1187              	.L100:
 518:..\ModbusRtu.c **** 
 519:..\ModbusRtu.c ****         if(i%2)
 1188              		.loc 1 519 0
 1189 0006 14F0010F 		tst	r4, #1
 1190 000a 0CD0     		beq	.L98
 520:..\ModbusRtu.c ****         {
 521:..\ModbusRtu.c ****             au16regs[i/2]= makeWord(au8Buffer[i+u8byte], lowByte(au16regs[i/2]));
 1191              		.loc 1 521 0
 1192 000c 104B     		ldr	r3, .L102
 1193 000e 1E68     		ldr	r6, [r3]
 1194 0010 6508     		lsrs	r5, r4, #1
 1195 0012 E31C     		adds	r3, r4, #3
 1196 0014 16F81510 		ldrb	r1, [r6, r5, lsl #1]	@ zero_extendqisi2
 1197 0018 0E4A     		ldr	r2, .L102+4
 1198 001a D05C     		ldrb	r0, [r2, r3]	@ zero_extendqisi2
 1199 001c FFF7FEFF 		bl	makeWord
 1200              	.LVL114:
 1201 0020 26F81500 		strh	r0, [r6, r5, lsl #1]	@ movhi
 1202 0024 0CE0     		b	.L99
 1203              	.L98:
 522:..\ModbusRtu.c ****         }
 523:..\ModbusRtu.c ****         else
 524:..\ModbusRtu.c ****         {
 525:..\ModbusRtu.c **** 
 526:..\ModbusRtu.c ****             au16regs[i/2]= makeWord(highByte(au16regs[i/2]), au8Buffer[i+u8byte]);
 1204              		.loc 1 526 0
 1205 0026 0A4B     		ldr	r3, .L102
 1206 0028 1D68     		ldr	r5, [r3]
 1207 002a 6608     		lsrs	r6, r4, #1
 1208 002c 35F81600 		ldrh	r0, [r5, r6, lsl #1]
 1209 0030 E31C     		adds	r3, r4, #3
 1210 0032 084A     		ldr	r2, .L102+4
 1211 0034 D15C     		ldrb	r1, [r2, r3]	@ zero_extendqisi2
 1212 0036 000A     		lsrs	r0, r0, #8
ARM GAS  C:\Users\scott\AppData\Local\Temp\cclyZCPR.s 			page 33


 1213 0038 FFF7FEFF 		bl	makeWord
 1214              	.LVL115:
 1215 003c 25F81600 		strh	r0, [r5, r6, lsl #1]	@ movhi
 1216              	.L99:
 517:..\ModbusRtu.c **** 
 1217              		.loc 1 517 0 discriminator 2
 1218 0040 0134     		adds	r4, r4, #1
 1219              	.LVL116:
 1220 0042 E4B2     		uxtb	r4, r4
 1221              	.LVL117:
 1222              	.L97:
 517:..\ModbusRtu.c **** 
 1223              		.loc 1 517 0 is_stmt 0 discriminator 1
 1224 0044 034B     		ldr	r3, .L102+4
 1225 0046 9B78     		ldrb	r3, [r3, #2]	@ zero_extendqisi2
 1226 0048 9C42     		cmp	r4, r3
 1227 004a DCD3     		bcc	.L100
 527:..\ModbusRtu.c ****         }
 528:..\ModbusRtu.c **** 
 529:..\ModbusRtu.c ****      }
 530:..\ModbusRtu.c **** }
 1228              		.loc 1 530 0 is_stmt 1
 1229 004c 70BD     		pop	{r4, r5, r6, pc}
 1230              	.LVL118:
 1231              	.L103:
 1232 004e 00BF     		.align	2
 1233              	.L102:
 1234 0050 00000000 		.word	au16regs
 1235 0054 00000000 		.word	au8Buffer
 1236              		.cfi_endproc
 1237              	.LFE76:
 1238              		.size	Modbus_get_FC1, .-Modbus_get_FC1
 1239              		.section	.text.Modbus_get_FC3,"ax",%progbits
 1240              		.align	2
 1241              		.global	Modbus_get_FC3
 1242              		.thumb
 1243              		.thumb_func
 1244              		.type	Modbus_get_FC3, %function
 1245              	Modbus_get_FC3:
 1246              	.LFB77:
 531:..\ModbusRtu.c **** 
 532:..\ModbusRtu.c **** /**
 533:..\ModbusRtu.c ****  * This method processes functions 3 & 4 (for master)
 534:..\ModbusRtu.c ****  * This method puts the slave answer into master data buffer
 535:..\ModbusRtu.c ****  *
 536:..\ModbusRtu.c ****  * @ingroup register
 537:..\ModbusRtu.c ****  */
 538:..\ModbusRtu.c **** void Modbus_get_FC3()
 539:..\ModbusRtu.c **** {
 1247              		.loc 1 539 0
 1248              		.cfi_startproc
 1249              		@ args = 0, pretend = 0, frame = 0
 1250              		@ frame_needed = 0, uses_anonymous_args = 0
 1251 0000 70B5     		push	{r4, r5, r6, lr}
 1252              		.cfi_def_cfa_offset 16
 1253              		.cfi_offset 4, -16
 1254              		.cfi_offset 5, -12
ARM GAS  C:\Users\scott\AppData\Local\Temp\cclyZCPR.s 			page 34


 1255              		.cfi_offset 6, -8
 1256              		.cfi_offset 14, -4
 1257              	.LVL119:
 540:..\ModbusRtu.c ****     uint8_t u8byte, i;
 541:..\ModbusRtu.c ****     u8byte = 3;
 542:..\ModbusRtu.c **** 
 543:..\ModbusRtu.c ****     for (i=0; i< au8Buffer[ 2 ] /2; i++)
 1258              		.loc 1 543 0
 1259 0002 0024     		movs	r4, #0
 541:..\ModbusRtu.c **** 
 1260              		.loc 1 541 0
 1261 0004 0325     		movs	r5, #3
 1262              		.loc 1 543 0
 1263 0006 0DE0     		b	.L105
 1264              	.LVL120:
 1265              	.L106:
 544:..\ModbusRtu.c ****     {
 545:..\ModbusRtu.c ****         au16regs[ i ] = makeWord(
 1266              		.loc 1 545 0 discriminator 3
 1267 0008 094B     		ldr	r3, .L108
 1268 000a 1E68     		ldr	r6, [r3]
 546:..\ModbusRtu.c ****                             au8Buffer[ u8byte ],
 547:..\ModbusRtu.c ****                             au8Buffer[ u8byte +1 ]);
 1269              		.loc 1 547 0 discriminator 3
 1270 000c 6A1C     		adds	r2, r5, #1
 545:..\ModbusRtu.c ****                             au8Buffer[ u8byte ],
 1271              		.loc 1 545 0 discriminator 3
 1272 000e 094B     		ldr	r3, .L108+4
 1273 0010 995C     		ldrb	r1, [r3, r2]	@ zero_extendqisi2
 1274 0012 585D     		ldrb	r0, [r3, r5]	@ zero_extendqisi2
 1275 0014 FFF7FEFF 		bl	makeWord
 1276              	.LVL121:
 1277 0018 26F81400 		strh	r0, [r6, r4, lsl #1]	@ movhi
 548:..\ModbusRtu.c ****         u8byte += 2;
 1278              		.loc 1 548 0 discriminator 3
 1279 001c 0235     		adds	r5, r5, #2
 1280              	.LVL122:
 1281 001e EDB2     		uxtb	r5, r5
 1282              	.LVL123:
 543:..\ModbusRtu.c ****     {
 1283              		.loc 1 543 0 discriminator 3
 1284 0020 0134     		adds	r4, r4, #1
 1285              	.LVL124:
 1286 0022 E4B2     		uxtb	r4, r4
 1287              	.LVL125:
 1288              	.L105:
 543:..\ModbusRtu.c ****     {
 1289              		.loc 1 543 0 is_stmt 0 discriminator 1
 1290 0024 034B     		ldr	r3, .L108+4
 1291 0026 9B78     		ldrb	r3, [r3, #2]	@ zero_extendqisi2
 1292 0028 B4EB530F 		cmp	r4, r3, lsr #1
 1293 002c ECD3     		bcc	.L106
 549:..\ModbusRtu.c ****     }
 550:..\ModbusRtu.c **** }
 1294              		.loc 1 550 0 is_stmt 1
 1295 002e 70BD     		pop	{r4, r5, r6, pc}
 1296              	.LVL126:
ARM GAS  C:\Users\scott\AppData\Local\Temp\cclyZCPR.s 			page 35


 1297              	.L109:
 1298              		.align	2
 1299              	.L108:
 1300 0030 00000000 		.word	au16regs
 1301 0034 00000000 		.word	au8Buffer
 1302              		.cfi_endproc
 1303              	.LFE77:
 1304              		.size	Modbus_get_FC3, .-Modbus_get_FC3
 1305              		.section	.text.Modbus_poll,"ax",%progbits
 1306              		.align	2
 1307              		.global	Modbus_poll
 1308              		.thumb
 1309              		.thumb_func
 1310              		.type	Modbus_poll, %function
 1311              	Modbus_poll:
 1312              	.LFB68:
 197:..\ModbusRtu.c ****     // check if there is any incoming frame
 1313              		.loc 1 197 0
 1314              		.cfi_startproc
 1315              		@ args = 0, pretend = 0, frame = 0
 1316              		@ frame_needed = 0, uses_anonymous_args = 0
 1317 0000 08B5     		push	{r3, lr}
 1318              		.cfi_def_cfa_offset 8
 1319              		.cfi_offset 3, -8
 1320              		.cfi_offset 14, -4
 200:..\ModbusRtu.c ****   if ((unsigned long)(Global_time -u32timeOut) > (unsigned long)u16timeOut)
 1321              		.loc 1 200 0
 1322 0002 FFF7FEFF 		bl	RS485_GetRxBufferSize
 1323              	.LVL127:
 201:..\ModbusRtu.c ****   {
 1324              		.loc 1 201 0
 1325 0006 2A4B     		ldr	r3, .L123
 1326 0008 1A68     		ldr	r2, [r3]
 1327 000a 2A4B     		ldr	r3, .L123+4
 1328 000c 1B68     		ldr	r3, [r3]
 1329 000e D31A     		subs	r3, r2, r3
 1330 0010 2949     		ldr	r1, .L123+8
 1331 0012 0988     		ldrh	r1, [r1]
 1332 0014 8B42     		cmp	r3, r1
 1333 0016 0AD9     		bls	.L111
 203:..\ModbusRtu.c ****     u8lastError = NO_REPLY;
 1334              		.loc 1 203 0
 1335 0018 0020     		movs	r0, #0
 1336              	.LVL128:
 1337 001a 284B     		ldr	r3, .L123+12
 1338 001c 1870     		strb	r0, [r3]
 204:..\ModbusRtu.c ****     u16errCnt++;
 1339              		.loc 1 204 0
 1340 001e FF22     		movs	r2, #255
 1341 0020 274B     		ldr	r3, .L123+16
 1342 0022 1A70     		strb	r2, [r3]
 205:..\ModbusRtu.c ****     return 0;
 1343              		.loc 1 205 0
 1344 0024 274A     		ldr	r2, .L123+20
 1345 0026 1388     		ldrh	r3, [r2]
 1346 0028 0133     		adds	r3, r3, #1
 1347 002a 1380     		strh	r3, [r2]	@ movhi
ARM GAS  C:\Users\scott\AppData\Local\Temp\cclyZCPR.s 			page 36


 206:..\ModbusRtu.c ****   }
 1348              		.loc 1 206 0
 1349 002c 08BD     		pop	{r3, pc}
 1350              	.LVL129:
 1351              	.L111:
 209:..\ModbusRtu.c **** 
 1352              		.loc 1 209 0
 1353 002e 0028     		cmp	r0, #0
 1354 0030 3AD0     		beq	.L120
 212:..\ModbusRtu.c ****   {
 1355              		.loc 1 212 0
 1356 0032 254B     		ldr	r3, .L123+24
 1357 0034 1B78     		ldrb	r3, [r3]	@ zero_extendqisi2
 1358 0036 9842     		cmp	r0, r3
 1359 0038 05D0     		beq	.L113
 214:..\ModbusRtu.c ****     u32time = Global_time;
 1360              		.loc 1 214 0
 1361 003a 234B     		ldr	r3, .L123+24
 1362 003c 1870     		strb	r0, [r3]
 215:..\ModbusRtu.c ****     return 0;
 1363              		.loc 1 215 0
 1364 003e 234B     		ldr	r3, .L123+28
 1365 0040 1A60     		str	r2, [r3]
 216:..\ModbusRtu.c ****   }
 1366              		.loc 1 216 0
 1367 0042 0020     		movs	r0, #0
 1368              	.LVL130:
 1369 0044 08BD     		pop	{r3, pc}
 1370              	.LVL131:
 1371              	.L113:
 218:..\ModbusRtu.c **** 
 1372              		.loc 1 218 0
 1373 0046 214B     		ldr	r3, .L123+28
 1374 0048 1B68     		ldr	r3, [r3]
 1375 004a D21A     		subs	r2, r2, r3
 1376 004c 042A     		cmp	r2, #4
 1377 004e 2DD9     		bls	.L121
 221:..\ModbusRtu.c ****   int8_t i8state = Modbus_getRxBuffer();
 1378              		.loc 1 221 0
 1379 0050 0022     		movs	r2, #0
 1380 0052 1D4B     		ldr	r3, .L123+24
 1381 0054 1A70     		strb	r2, [r3]
 222:..\ModbusRtu.c ****   if (i8state < 6) //7 was incorrect for functions 1 and 2 the smallest frame could be 6 bytes long
 1382              		.loc 1 222 0
 1383 0056 FFF7FEFF 		bl	Modbus_getRxBuffer
 1384              	.LVL132:
 223:..\ModbusRtu.c ****   {
 1385              		.loc 1 223 0
 1386 005a 0528     		cmp	r0, #5
 1387 005c 07DC     		bgt	.L114
 225:..\ModbusRtu.c ****     u16errCnt++;
 1388              		.loc 1 225 0
 1389 005e 0022     		movs	r2, #0
 1390 0060 164B     		ldr	r3, .L123+12
 1391 0062 1A70     		strb	r2, [r3]
 226:..\ModbusRtu.c ****     return i8state;
 1392              		.loc 1 226 0
ARM GAS  C:\Users\scott\AppData\Local\Temp\cclyZCPR.s 			page 37


 1393 0064 174A     		ldr	r2, .L123+20
 1394 0066 1388     		ldrh	r3, [r2]
 1395 0068 0133     		adds	r3, r3, #1
 1396 006a 1380     		strh	r3, [r2]	@ movhi
 227:..\ModbusRtu.c ****   }
 1397              		.loc 1 227 0
 1398 006c 08BD     		pop	{r3, pc}
 1399              	.L114:
 231:..\ModbusRtu.c ****   if (u8exception != 0)
 1400              		.loc 1 231 0
 1401 006e FFF7FEFF 		bl	Modbus_validateAnswer
 1402              	.LVL133:
 232:..\ModbusRtu.c ****   {
 1403              		.loc 1 232 0
 1404 0072 20B1     		cbz	r0, .L115
 234:..\ModbusRtu.c ****     return u8exception;
 1405              		.loc 1 234 0
 1406 0074 0021     		movs	r1, #0
 1407 0076 114A     		ldr	r2, .L123+12
 1408 0078 1170     		strb	r1, [r2]
 235:..\ModbusRtu.c ****   }
 1409              		.loc 1 235 0
 1410 007a 40B2     		sxtb	r0, r0
 1411 007c 08BD     		pop	{r3, pc}
 1412              	.L115:
 239:..\ModbusRtu.c ****   {
 1413              		.loc 1 239 0
 1414 007e 144B     		ldr	r3, .L123+32
 1415 0080 5B78     		ldrb	r3, [r3, #1]	@ zero_extendqisi2
 1416 0082 013B     		subs	r3, r3, #1
 1417 0084 032B     		cmp	r3, #3
 1418 0086 08D8     		bhi	.L116
 1419 0088 DFE803F0 		tbb	[pc, r3]
 1420              	.L118:
 1421 008c 02       		.byte	(.L117-.L118)/2
 1422 008d 02       		.byte	(.L117-.L118)/2
 1423 008e 05       		.byte	(.L119-.L118)/2
 1424 008f 05       		.byte	(.L119-.L118)/2
 1425              		.p2align 1
 1426              	.L117:
 244:..\ModbusRtu.c ****         break;
 1427              		.loc 1 244 0
 1428 0090 FFF7FEFF 		bl	Modbus_get_FC1
 1429              	.LVL134:
 245:..\ModbusRtu.c ****     case MB_FC_READ_INPUT_REGISTER:
 1430              		.loc 1 245 0
 1431 0094 01E0     		b	.L116
 1432              	.LVL135:
 1433              	.L119:
 249:..\ModbusRtu.c ****         break;
 1434              		.loc 1 249 0
 1435 0096 FFF7FEFF 		bl	Modbus_get_FC3
 1436              	.LVL136:
 1437              	.L116:
 260:..\ModbusRtu.c ****   return u8BufferSize;
 1438              		.loc 1 260 0
 1439 009a 0022     		movs	r2, #0
ARM GAS  C:\Users\scott\AppData\Local\Temp\cclyZCPR.s 			page 38


 1440 009c 074B     		ldr	r3, .L123+12
 1441 009e 1A70     		strb	r2, [r3]
 261:..\ModbusRtu.c **** }
 1442              		.loc 1 261 0
 1443 00a0 0C4B     		ldr	r3, .L123+36
 1444 00a2 93F90000 		ldrsb	r0, [r3]
 1445 00a6 08BD     		pop	{r3, pc}
 1446              	.LVL137:
 1447              	.L120:
 209:..\ModbusRtu.c **** 
 1448              		.loc 1 209 0
 1449 00a8 0020     		movs	r0, #0
 1450              	.LVL138:
 1451 00aa 08BD     		pop	{r3, pc}
 1452              	.LVL139:
 1453              	.L121:
 218:..\ModbusRtu.c **** 
 1454              		.loc 1 218 0
 1455 00ac 0020     		movs	r0, #0
 1456              	.LVL140:
 262:..\ModbusRtu.c **** 
 1457              		.loc 1 262 0
 1458 00ae 08BD     		pop	{r3, pc}
 1459              	.L124:
 1460              		.align	2
 1461              	.L123:
 1462 00b0 00000000 		.word	Global_time
 1463 00b4 00000000 		.word	u32timeOut
 1464 00b8 00000000 		.word	u16timeOut
 1465 00bc 00000000 		.word	u8state
 1466 00c0 00000000 		.word	u8lastError
 1467 00c4 00000000 		.word	u16errCnt
 1468 00c8 00000000 		.word	u8lastRec
 1469 00cc 00000000 		.word	u32time
 1470 00d0 00000000 		.word	au8Buffer
 1471 00d4 00000000 		.word	u8BufferSize
 1472              		.cfi_endproc
 1473              	.LFE68:
 1474              		.size	Modbus_poll, .-Modbus_poll
 1475              		.section	.text.Modbus_process_FC3,"ax",%progbits
 1476              		.align	2
 1477              		.global	Modbus_process_FC3
 1478              		.thumb
 1479              		.thumb_func
 1480              		.type	Modbus_process_FC3, %function
 1481              	Modbus_process_FC3:
 1482              	.LFB78:
 551:..\ModbusRtu.c **** 
 552:..\ModbusRtu.c **** /**
 553:..\ModbusRtu.c ****  * @brief
 554:..\ModbusRtu.c ****  * This method processes functions 3 & 4
 555:..\ModbusRtu.c ****  * This method reads a word array and transfers it to the master
 556:..\ModbusRtu.c ****  *
 557:..\ModbusRtu.c ****  * @return u8BufferSize Response to master length
 558:..\ModbusRtu.c ****  * @ingroup register
 559:..\ModbusRtu.c ****  */
 560:..\ModbusRtu.c **** int8_t Modbus_process_FC3( uint16_t *regs )
ARM GAS  C:\Users\scott\AppData\Local\Temp\cclyZCPR.s 			page 39


 561:..\ModbusRtu.c **** {
 1483              		.loc 1 561 0
 1484              		.cfi_startproc
 1485              		@ args = 0, pretend = 0, frame = 0
 1486              		@ frame_needed = 0, uses_anonymous_args = 0
 1487              	.LVL141:
 1488 0000 F8B5     		push	{r3, r4, r5, r6, r7, lr}
 1489              		.cfi_def_cfa_offset 24
 1490              		.cfi_offset 3, -24
 1491              		.cfi_offset 4, -20
 1492              		.cfi_offset 5, -16
 1493              		.cfi_offset 6, -12
 1494              		.cfi_offset 7, -8
 1495              		.cfi_offset 14, -4
 1496 0002 0446     		mov	r4, r0
 562:..\ModbusRtu.c **** 
 563:..\ModbusRtu.c ****     uint8_t u8StartAdd = makeWord( au8Buffer[ ADD_HI ], au8Buffer[ ADD_LO ] );
 1497              		.loc 1 563 0
 1498 0004 164E     		ldr	r6, .L129
 1499 0006 F178     		ldrb	r1, [r6, #3]	@ zero_extendqisi2
 1500 0008 B078     		ldrb	r0, [r6, #2]	@ zero_extendqisi2
 1501              	.LVL142:
 1502 000a FFF7FEFF 		bl	makeWord
 1503              	.LVL143:
 1504 000e C5B2     		uxtb	r5, r0
 1505              	.LVL144:
 564:..\ModbusRtu.c ****     uint8_t u8regsno = makeWord( au8Buffer[ NB_HI ], au8Buffer[ NB_LO ] );
 1506              		.loc 1 564 0
 1507 0010 7179     		ldrb	r1, [r6, #5]	@ zero_extendqisi2
 1508 0012 3079     		ldrb	r0, [r6, #4]	@ zero_extendqisi2
 1509 0014 FFF7FEFF 		bl	makeWord
 1510              	.LVL145:
 1511 0018 C0B2     		uxtb	r0, r0
 1512              	.LVL146:
 565:..\ModbusRtu.c ****     uint8_t u8CopyBufferSize;
 566:..\ModbusRtu.c ****     uint8_t i;
 567:..\ModbusRtu.c **** 
 568:..\ModbusRtu.c ****     au8Buffer[ 2 ]       = u8regsno * 2;
 1513              		.loc 1 568 0
 1514 001a 4300     		lsls	r3, r0, #1
 1515 001c B370     		strb	r3, [r6, #2]
 569:..\ModbusRtu.c ****     u8BufferSize         = 3;
 1516              		.loc 1 569 0
 1517 001e 0322     		movs	r2, #3
 1518 0020 104B     		ldr	r3, .L129+4
 1519 0022 1A70     		strb	r2, [r3]
 1520              	.LVL147:
 570:..\ModbusRtu.c **** 
 571:..\ModbusRtu.c ****     for (i = u8StartAdd; i < u8StartAdd + u8regsno; i++)
 1521              		.loc 1 571 0
 1522 0024 2A46     		mov	r2, r5
 1523 0026 10E0     		b	.L126
 1524              	.LVL148:
 1525              	.L127:
 572:..\ModbusRtu.c ****     {
 573:..\ModbusRtu.c ****         au8Buffer[ u8BufferSize ] = highByte(regs[i]);
 1526              		.loc 1 573 0 discriminator 3
ARM GAS  C:\Users\scott\AppData\Local\Temp\cclyZCPR.s 			page 40


 1527 0028 0E49     		ldr	r1, .L129+4
 1528 002a 0B78     		ldrb	r3, [r1]	@ zero_extendqisi2
 1529 002c 34F81260 		ldrh	r6, [r4, r2, lsl #1]
 1530 0030 360A     		lsrs	r6, r6, #8
 1531 0032 0B4F     		ldr	r7, .L129
 1532 0034 FE54     		strb	r6, [r7, r3]
 574:..\ModbusRtu.c ****         u8BufferSize++;
 1533              		.loc 1 574 0 discriminator 3
 1534 0036 0133     		adds	r3, r3, #1
 1535 0038 DBB2     		uxtb	r3, r3
 1536 003a 0B70     		strb	r3, [r1]
 575:..\ModbusRtu.c ****         au8Buffer[ u8BufferSize ] = lowByte(regs[i]);
 1537              		.loc 1 575 0 discriminator 3
 1538 003c 14F81260 		ldrb	r6, [r4, r2, lsl #1]	@ zero_extendqisi2
 1539 0040 FE54     		strb	r6, [r7, r3]
 576:..\ModbusRtu.c ****         u8BufferSize++;
 1540              		.loc 1 576 0 discriminator 3
 1541 0042 0133     		adds	r3, r3, #1
 1542 0044 0B70     		strb	r3, [r1]
 571:..\ModbusRtu.c ****     {
 1543              		.loc 1 571 0 discriminator 3
 1544 0046 0132     		adds	r2, r2, #1
 1545              	.LVL149:
 1546 0048 D2B2     		uxtb	r2, r2
 1547              	.LVL150:
 1548              	.L126:
 571:..\ModbusRtu.c ****     {
 1549              		.loc 1 571 0 is_stmt 0 discriminator 1
 1550 004a 2B18     		adds	r3, r5, r0
 1551 004c 9A42     		cmp	r2, r3
 1552 004e EBDB     		blt	.L127
 577:..\ModbusRtu.c ****     }
 578:..\ModbusRtu.c ****     u8CopyBufferSize = u8BufferSize +2;
 1553              		.loc 1 578 0 is_stmt 1
 1554 0050 044B     		ldr	r3, .L129+4
 1555 0052 1C78     		ldrb	r4, [r3]	@ zero_extendqisi2
 1556              	.LVL151:
 1557 0054 0234     		adds	r4, r4, #2
 1558 0056 E4B2     		uxtb	r4, r4
 1559              	.LVL152:
 579:..\ModbusRtu.c ****     Modbus_sendTxBuffer();
 1560              		.loc 1 579 0
 1561 0058 FFF7FEFF 		bl	Modbus_sendTxBuffer
 1562              	.LVL153:
 580:..\ModbusRtu.c **** 
 581:..\ModbusRtu.c ****     return u8CopyBufferSize;
 582:..\ModbusRtu.c **** }
 1563              		.loc 1 582 0
 1564 005c 60B2     		sxtb	r0, r4
 1565 005e F8BD     		pop	{r3, r4, r5, r6, r7, pc}
 1566              	.LVL154:
 1567              	.L130:
 1568              		.align	2
 1569              	.L129:
 1570 0060 00000000 		.word	au8Buffer
 1571 0064 00000000 		.word	u8BufferSize
 1572              		.cfi_endproc
ARM GAS  C:\Users\scott\AppData\Local\Temp\cclyZCPR.s 			page 41


 1573              	.LFE78:
 1574              		.size	Modbus_process_FC3, .-Modbus_process_FC3
 1575              		.section	.text.Modbus_process_FC6,"ax",%progbits
 1576              		.align	2
 1577              		.global	Modbus_process_FC6
 1578              		.thumb
 1579              		.thumb_func
 1580              		.type	Modbus_process_FC6, %function
 1581              	Modbus_process_FC6:
 1582              	.LFB79:
 583:..\ModbusRtu.c **** 
 584:..\ModbusRtu.c **** /**
 585:..\ModbusRtu.c ****  * @brief
 586:..\ModbusRtu.c ****  * This method processes function 6
 587:..\ModbusRtu.c ****  * This method writes a value assigned by the master to a single word
 588:..\ModbusRtu.c ****  *
 589:..\ModbusRtu.c ****  * @return u8BufferSize Response to master length
 590:..\ModbusRtu.c ****  * @ingroup register
 591:..\ModbusRtu.c ****  */
 592:..\ModbusRtu.c **** int8_t Modbus_process_FC6( uint16_t *regs )
 593:..\ModbusRtu.c **** {
 1583              		.loc 1 593 0
 1584              		.cfi_startproc
 1585              		@ args = 0, pretend = 0, frame = 0
 1586              		@ frame_needed = 0, uses_anonymous_args = 0
 1587              	.LVL155:
 1588 0000 70B5     		push	{r4, r5, r6, lr}
 1589              		.cfi_def_cfa_offset 16
 1590              		.cfi_offset 4, -16
 1591              		.cfi_offset 5, -12
 1592              		.cfi_offset 6, -8
 1593              		.cfi_offset 14, -4
 1594 0002 0546     		mov	r5, r0
 594:..\ModbusRtu.c **** 
 595:..\ModbusRtu.c ****     uint8_t u8add = makeWord( au8Buffer[ ADD_HI ], au8Buffer[ ADD_LO ] );
 1595              		.loc 1 595 0
 1596 0004 094C     		ldr	r4, .L133
 1597 0006 E178     		ldrb	r1, [r4, #3]	@ zero_extendqisi2
 1598 0008 A078     		ldrb	r0, [r4, #2]	@ zero_extendqisi2
 1599              	.LVL156:
 1600 000a FFF7FEFF 		bl	makeWord
 1601              	.LVL157:
 1602 000e C6B2     		uxtb	r6, r0
 1603              	.LVL158:
 596:..\ModbusRtu.c ****     uint8_t u8CopyBufferSize;
 597:..\ModbusRtu.c ****     uint16_t u16val = makeWord( au8Buffer[ NB_HI ], au8Buffer[ NB_LO ] );
 1604              		.loc 1 597 0
 1605 0010 6179     		ldrb	r1, [r4, #5]	@ zero_extendqisi2
 1606 0012 2079     		ldrb	r0, [r4, #4]	@ zero_extendqisi2
 1607 0014 FFF7FEFF 		bl	makeWord
 1608              	.LVL159:
 598:..\ModbusRtu.c **** 
 599:..\ModbusRtu.c ****     regs[ u8add ] = u16val;
 1609              		.loc 1 599 0
 1610 0018 25F81600 		strh	r0, [r5, r6, lsl #1]	@ movhi
 600:..\ModbusRtu.c **** 
 601:..\ModbusRtu.c ****     // keep the same header
ARM GAS  C:\Users\scott\AppData\Local\Temp\cclyZCPR.s 			page 42


 602:..\ModbusRtu.c ****     u8BufferSize         = RESPONSE_SIZE;
 1611              		.loc 1 602 0
 1612 001c 0622     		movs	r2, #6
 1613 001e 044B     		ldr	r3, .L133+4
 1614 0020 1A70     		strb	r2, [r3]
 1615              	.LVL160:
 603:..\ModbusRtu.c **** 
 604:..\ModbusRtu.c ****     u8CopyBufferSize = u8BufferSize +2;
 605:..\ModbusRtu.c ****     Modbus_sendTxBuffer();
 1616              		.loc 1 605 0
 1617 0022 FFF7FEFF 		bl	Modbus_sendTxBuffer
 1618              	.LVL161:
 606:..\ModbusRtu.c **** 
 607:..\ModbusRtu.c ****     return u8CopyBufferSize;
 608:..\ModbusRtu.c **** }
 1619              		.loc 1 608 0
 1620 0026 0820     		movs	r0, #8
 1621 0028 70BD     		pop	{r4, r5, r6, pc}
 1622              	.LVL162:
 1623              	.L134:
 1624 002a 00BF     		.align	2
 1625              	.L133:
 1626 002c 00000000 		.word	au8Buffer
 1627 0030 00000000 		.word	u8BufferSize
 1628              		.cfi_endproc
 1629              	.LFE79:
 1630              		.size	Modbus_process_FC6, .-Modbus_process_FC6
 1631              		.section	.text.Modbus_process_FC15,"ax",%progbits
 1632              		.align	2
 1633              		.global	Modbus_process_FC15
 1634              		.thumb
 1635              		.thumb_func
 1636              		.type	Modbus_process_FC15, %function
 1637              	Modbus_process_FC15:
 1638              	.LFB80:
 609:..\ModbusRtu.c **** 
 610:..\ModbusRtu.c **** /**
 611:..\ModbusRtu.c ****  * @brief
 612:..\ModbusRtu.c ****  * This method processes function 15
 613:..\ModbusRtu.c ****  * This method writes a bit array assigned by the master
 614:..\ModbusRtu.c ****  *
 615:..\ModbusRtu.c ****  * @return u8BufferSize Response to master length
 616:..\ModbusRtu.c ****  * @ingroup discrete
 617:..\ModbusRtu.c ****  */
 618:..\ModbusRtu.c **** int8_t Modbus_process_FC15( uint16_t *regs )
 619:..\ModbusRtu.c **** {
 1639              		.loc 1 619 0
 1640              		.cfi_startproc
 1641              		@ args = 0, pretend = 0, frame = 0
 1642              		@ frame_needed = 0, uses_anonymous_args = 0
 1643              	.LVL163:
 1644 0000 F8B5     		push	{r3, r4, r5, r6, r7, lr}
 1645              		.cfi_def_cfa_offset 24
 1646              		.cfi_offset 3, -24
 1647              		.cfi_offset 4, -20
 1648              		.cfi_offset 5, -16
 1649              		.cfi_offset 6, -12
ARM GAS  C:\Users\scott\AppData\Local\Temp\cclyZCPR.s 			page 43


 1650              		.cfi_offset 7, -8
 1651              		.cfi_offset 14, -4
 1652 0002 0446     		mov	r4, r0
 620:..\ModbusRtu.c ****     uint8_t u8currentRegister, u8currentBit, u8frameByte, u8bitsno;
 621:..\ModbusRtu.c ****     uint8_t u8CopyBufferSize;
 622:..\ModbusRtu.c ****     uint16_t u16currentCoil, u16coil;
 623:..\ModbusRtu.c ****     _Bool bTemp;
 624:..\ModbusRtu.c **** 
 625:..\ModbusRtu.c ****     // get the first and last coil from the message
 626:..\ModbusRtu.c ****     uint16_t u16StartCoil = makeWord( au8Buffer[ ADD_HI ], au8Buffer[ ADD_LO ] );
 1653              		.loc 1 626 0
 1654 0004 204E     		ldr	r6, .L142
 1655 0006 F178     		ldrb	r1, [r6, #3]	@ zero_extendqisi2
 1656 0008 B078     		ldrb	r0, [r6, #2]	@ zero_extendqisi2
 1657              	.LVL164:
 1658 000a FFF7FEFF 		bl	makeWord
 1659              	.LVL165:
 1660 000e 0546     		mov	r5, r0
 1661              	.LVL166:
 627:..\ModbusRtu.c ****     uint16_t u16Coilno = makeWord( au8Buffer[ NB_HI ], au8Buffer[ NB_LO ] );
 1662              		.loc 1 627 0
 1663 0010 7179     		ldrb	r1, [r6, #5]	@ zero_extendqisi2
 1664 0012 3079     		ldrb	r0, [r6, #4]	@ zero_extendqisi2
 1665 0014 FFF7FEFF 		bl	makeWord
 1666              	.LVL167:
 628:..\ModbusRtu.c **** 
 629:..\ModbusRtu.c **** 
 630:..\ModbusRtu.c ****     // read each coil from the register map and put its value inside the outcoming message
 631:..\ModbusRtu.c ****     u8bitsno = 0;
 632:..\ModbusRtu.c ****     u8frameByte = 7;
 633:..\ModbusRtu.c ****     for (u16currentCoil = 0; u16currentCoil < u16Coilno; u16currentCoil++)
 1667              		.loc 1 633 0
 1668 0018 0027     		movs	r7, #0
 631:..\ModbusRtu.c ****     u8frameByte = 7;
 1669              		.loc 1 631 0
 1670 001a 3A46     		mov	r2, r7
 632:..\ModbusRtu.c ****     for (u16currentCoil = 0; u16currentCoil < u16Coilno; u16currentCoil++)
 1671              		.loc 1 632 0
 1672 001c 4FF0070E 		mov	lr, #7
 1673              		.loc 1 633 0
 1674 0020 29E0     		b	.L136
 1675              	.LVL168:
 1676              	.L140:
 634:..\ModbusRtu.c ****     {
 635:..\ModbusRtu.c **** 
 636:..\ModbusRtu.c ****         u16coil = u16StartCoil + u16currentCoil;
 1677              		.loc 1 636 0
 1678 0022 7B19     		adds	r3, r7, r5
 1679 0024 9BB2     		uxth	r3, r3
 1680              	.LVL169:
 637:..\ModbusRtu.c ****         u8currentRegister = (uint8_t) (u16coil / 16);
 1681              		.loc 1 637 0
 1682 0026 C3F30716 		ubfx	r6, r3, #4, #8
 1683              	.LVL170:
 638:..\ModbusRtu.c ****         u8currentBit = (uint8_t) (u16coil % 16);
 1684              		.loc 1 638 0
 1685 002a 03F00F03 		and	r3, r3, #15
ARM GAS  C:\Users\scott\AppData\Local\Temp\cclyZCPR.s 			page 44


 1686              	.LVL171:
 639:..\ModbusRtu.c **** 
 640:..\ModbusRtu.c ****         bTemp = bitRead(
 1687              		.loc 1 640 0
 1688 002e 1649     		ldr	r1, .L142
 1689 0030 11F80E10 		ldrb	r1, [r1, lr]	@ zero_extendqisi2
 1690 0034 1141     		asrs	r1, r1, r2
 1691              	.LVL172:
 641:..\ModbusRtu.c ****                     au8Buffer[ u8frameByte ],
 642:..\ModbusRtu.c ****                     u8bitsno );
 643:..\ModbusRtu.c **** 
 644:..\ModbusRtu.c ****         bitWrite(
 1692              		.loc 1 644 0
 1693 0036 11F0010F 		tst	r1, #1
 1694 003a 08D0     		beq	.L137
 1695              		.loc 1 644 0 is_stmt 0 discriminator 1
 1696 003c 0121     		movs	r1, #1
 1697              	.LVL173:
 1698 003e 01FA03F3 		lsl	r3, r1, r3
 1699              	.LVL174:
 1700 0042 34F81610 		ldrh	r1, [r4, r6, lsl #1]
 1701 0046 0B43     		orrs	r3, r3, r1
 1702 0048 24F81630 		strh	r3, [r4, r6, lsl #1]	@ movhi
 1703              	.LVL175:
 1704 004c 08E0     		b	.L138
 1705              	.LVL176:
 1706              	.L137:
 1707              		.loc 1 644 0 discriminator 2
 1708 004e 0121     		movs	r1, #1
 1709              	.LVL177:
 1710 0050 01FA03F3 		lsl	r3, r1, r3
 1711              	.LVL178:
 1712 0054 34F81610 		ldrh	r1, [r4, r6, lsl #1]
 1713 0058 21EA0303 		bic	r3, r1, r3
 1714 005c 24F81630 		strh	r3, [r4, r6, lsl #1]	@ movhi
 1715              	.LVL179:
 1716              	.L138:
 645:..\ModbusRtu.c ****             regs[ u8currentRegister ],
 646:..\ModbusRtu.c ****             u8currentBit,
 647:..\ModbusRtu.c ****             bTemp );
 648:..\ModbusRtu.c **** 
 649:..\ModbusRtu.c ****         u8bitsno ++;
 1717              		.loc 1 649 0 is_stmt 1
 1718 0060 0132     		adds	r2, r2, #1
 1719              	.LVL180:
 1720 0062 D2B2     		uxtb	r2, r2
 1721              	.LVL181:
 650:..\ModbusRtu.c **** 
 651:..\ModbusRtu.c ****         if (u8bitsno > 7)
 1722              		.loc 1 651 0
 1723 0064 072A     		cmp	r2, #7
 1724 0066 04D9     		bls	.L139
 1725              	.LVL182:
 652:..\ModbusRtu.c ****         {
 653:..\ModbusRtu.c ****             u8bitsno = 0;
 654:..\ModbusRtu.c ****             u8frameByte++;
 1726              		.loc 1 654 0
ARM GAS  C:\Users\scott\AppData\Local\Temp\cclyZCPR.s 			page 45


 1727 0068 0EF1010E 		add	lr, lr, #1
 1728              	.LVL183:
 1729 006c 5FFA8EFE 		uxtb	lr, lr
 1730              	.LVL184:
 653:..\ModbusRtu.c ****             u8frameByte++;
 1731              		.loc 1 653 0
 1732 0070 0022     		movs	r2, #0
 1733              	.LVL185:
 1734              	.L139:
 633:..\ModbusRtu.c ****     {
 1735              		.loc 1 633 0 discriminator 2
 1736 0072 7B1C     		adds	r3, r7, #1
 1737 0074 9FB2     		uxth	r7, r3
 1738              	.LVL186:
 1739              	.L136:
 633:..\ModbusRtu.c ****     {
 1740              		.loc 1 633 0 is_stmt 0 discriminator 1
 1741 0076 8742     		cmp	r7, r0
 1742 0078 D3D3     		bcc	.L140
 655:..\ModbusRtu.c ****         }
 656:..\ModbusRtu.c ****     }
 657:..\ModbusRtu.c **** 
 658:..\ModbusRtu.c ****     // send outcoming message
 659:..\ModbusRtu.c ****     // it's just a copy of the incomping frame until 6th byte
 660:..\ModbusRtu.c ****     u8BufferSize         = 6;
 1743              		.loc 1 660 0 is_stmt 1
 1744 007a 0622     		movs	r2, #6
 1745              	.LVL187:
 1746 007c 034B     		ldr	r3, .L142+4
 1747 007e 1A70     		strb	r2, [r3]
 1748              	.LVL188:
 661:..\ModbusRtu.c ****     u8CopyBufferSize = u8BufferSize +2;
 662:..\ModbusRtu.c ****     Modbus_sendTxBuffer();
 1749              		.loc 1 662 0
 1750 0080 FFF7FEFF 		bl	Modbus_sendTxBuffer
 1751              	.LVL189:
 663:..\ModbusRtu.c ****     return u8CopyBufferSize;
 664:..\ModbusRtu.c **** }
 1752              		.loc 1 664 0
 1753 0084 0820     		movs	r0, #8
 1754 0086 F8BD     		pop	{r3, r4, r5, r6, r7, pc}
 1755              	.LVL190:
 1756              	.L143:
 1757              		.align	2
 1758              	.L142:
 1759 0088 00000000 		.word	au8Buffer
 1760 008c 00000000 		.word	u8BufferSize
 1761              		.cfi_endproc
 1762              	.LFE80:
 1763              		.size	Modbus_process_FC15, .-Modbus_process_FC15
 1764              		.section	.text.Modbus_process_FC16,"ax",%progbits
 1765              		.align	2
 1766              		.global	Modbus_process_FC16
 1767              		.thumb
 1768              		.thumb_func
 1769              		.type	Modbus_process_FC16, %function
 1770              	Modbus_process_FC16:
ARM GAS  C:\Users\scott\AppData\Local\Temp\cclyZCPR.s 			page 46


 1771              	.LFB81:
 665:..\ModbusRtu.c **** 
 666:..\ModbusRtu.c **** /**
 667:..\ModbusRtu.c ****  * @brief
 668:..\ModbusRtu.c ****  * This method processes function 16
 669:..\ModbusRtu.c ****  * This method writes a word array assigned by the master
 670:..\ModbusRtu.c ****  *
 671:..\ModbusRtu.c ****  * @return u8BufferSize Response to master length
 672:..\ModbusRtu.c ****  * @ingroup register
 673:..\ModbusRtu.c ****  */
 674:..\ModbusRtu.c **** int8_t Modbus_process_FC16( uint16_t *regs )
 675:..\ModbusRtu.c **** {
 1772              		.loc 1 675 0
 1773              		.cfi_startproc
 1774              		@ args = 0, pretend = 0, frame = 0
 1775              		@ frame_needed = 0, uses_anonymous_args = 0
 1776              	.LVL191:
 1777 0000 F8B5     		push	{r3, r4, r5, r6, r7, lr}
 1778              		.cfi_def_cfa_offset 24
 1779              		.cfi_offset 3, -24
 1780              		.cfi_offset 4, -20
 1781              		.cfi_offset 5, -16
 1782              		.cfi_offset 6, -12
 1783              		.cfi_offset 7, -8
 1784              		.cfi_offset 14, -4
 1785 0002 0746     		mov	r7, r0
 676:..\ModbusRtu.c ****     uint8_t u8StartAdd = au8Buffer[ ADD_HI ] << 8 | au8Buffer[ ADD_LO ];
 1786              		.loc 1 676 0
 1787 0004 104B     		ldr	r3, .L148
 1788 0006 DE78     		ldrb	r6, [r3, #3]	@ zero_extendqisi2
 1789              	.LVL192:
 677:..\ModbusRtu.c ****     uint8_t u8regsno = au8Buffer[ NB_HI ] << 8 | au8Buffer[ NB_LO ];
 1790              		.loc 1 677 0
 1791 0008 5D79     		ldrb	r5, [r3, #5]	@ zero_extendqisi2
 1792              	.LVL193:
 678:..\ModbusRtu.c ****     uint8_t u8CopyBufferSize;
 679:..\ModbusRtu.c ****     uint8_t i;
 680:..\ModbusRtu.c ****     uint16_t temp;
 681:..\ModbusRtu.c **** 
 682:..\ModbusRtu.c ****     // build header
 683:..\ModbusRtu.c ****     au8Buffer[ NB_HI ]   = 0;
 1793              		.loc 1 683 0
 1794 000a 0024     		movs	r4, #0
 1795 000c 1C71     		strb	r4, [r3, #4]
 684:..\ModbusRtu.c ****     au8Buffer[ NB_LO ]   = u8regsno;
 1796              		.loc 1 684 0
 1797 000e 5D71     		strb	r5, [r3, #5]
 685:..\ModbusRtu.c ****     u8BufferSize         = RESPONSE_SIZE;
 1798              		.loc 1 685 0
 1799 0010 0622     		movs	r2, #6
 1800 0012 0E4B     		ldr	r3, .L148+4
 1801 0014 1A70     		strb	r2, [r3]
 1802              	.LVL194:
 686:..\ModbusRtu.c **** 
 687:..\ModbusRtu.c ****     // write registers
 688:..\ModbusRtu.c ****     for (i = 0; i < u8regsno; i++)
 1803              		.loc 1 688 0
ARM GAS  C:\Users\scott\AppData\Local\Temp\cclyZCPR.s 			page 47


 1804 0016 0DE0     		b	.L145
 1805              	.LVL195:
 1806              	.L146:
 689:..\ModbusRtu.c ****     {
 690:..\ModbusRtu.c ****         temp = makeWord(
 691:..\ModbusRtu.c ****                    au8Buffer[ (BYTE_CNT + 1) + i * 2 ],
 1807              		.loc 1 691 0 discriminator 3
 1808 0018 6300     		lsls	r3, r4, #1
 1809 001a 0733     		adds	r3, r3, #7
 690:..\ModbusRtu.c ****                    au8Buffer[ (BYTE_CNT + 1) + i * 2 ],
 1810              		.loc 1 690 0 discriminator 3
 1811 001c 0A4A     		ldr	r2, .L148
 692:..\ModbusRtu.c ****                    au8Buffer[ (BYTE_CNT + 2) + i * 2 ]);
 1812              		.loc 1 692 0 discriminator 3
 1813 001e 211D     		adds	r1, r4, #4
 690:..\ModbusRtu.c ****                    au8Buffer[ (BYTE_CNT + 1) + i * 2 ],
 1814              		.loc 1 690 0 discriminator 3
 1815 0020 12F81110 		ldrb	r1, [r2, r1, lsl #1]	@ zero_extendqisi2
 1816 0024 D05C     		ldrb	r0, [r2, r3]	@ zero_extendqisi2
 1817 0026 FFF7FEFF 		bl	makeWord
 1818              	.LVL196:
 693:..\ModbusRtu.c **** 
 694:..\ModbusRtu.c ****         regs[ u8StartAdd + i ] = temp;
 1819              		.loc 1 694 0 discriminator 3
 1820 002a 3319     		adds	r3, r6, r4
 1821 002c 27F81300 		strh	r0, [r7, r3, lsl #1]	@ movhi
 688:..\ModbusRtu.c ****     {
 1822              		.loc 1 688 0 discriminator 3
 1823 0030 0134     		adds	r4, r4, #1
 1824              	.LVL197:
 1825 0032 E4B2     		uxtb	r4, r4
 1826              	.LVL198:
 1827              	.L145:
 688:..\ModbusRtu.c ****     {
 1828              		.loc 1 688 0 is_stmt 0 discriminator 1
 1829 0034 AC42     		cmp	r4, r5
 1830 0036 EFD3     		bcc	.L146
 695:..\ModbusRtu.c ****     }
 696:..\ModbusRtu.c ****     u8CopyBufferSize = u8BufferSize +2;
 1831              		.loc 1 696 0 is_stmt 1
 1832 0038 044B     		ldr	r3, .L148+4
 1833 003a 1C78     		ldrb	r4, [r3]	@ zero_extendqisi2
 1834              	.LVL199:
 1835 003c 0234     		adds	r4, r4, #2
 1836 003e E4B2     		uxtb	r4, r4
 1837              	.LVL200:
 697:..\ModbusRtu.c ****     Modbus_sendTxBuffer();
 1838              		.loc 1 697 0
 1839 0040 FFF7FEFF 		bl	Modbus_sendTxBuffer
 1840              	.LVL201:
 698:..\ModbusRtu.c **** 
 699:..\ModbusRtu.c ****     return u8CopyBufferSize;
 700:..\ModbusRtu.c **** }
 1841              		.loc 1 700 0
 1842 0044 60B2     		sxtb	r0, r4
 1843 0046 F8BD     		pop	{r3, r4, r5, r6, r7, pc}
 1844              	.LVL202:
ARM GAS  C:\Users\scott\AppData\Local\Temp\cclyZCPR.s 			page 48


 1845              	.L149:
 1846              		.align	2
 1847              	.L148:
 1848 0048 00000000 		.word	au8Buffer
 1849 004c 00000000 		.word	u8BufferSize
 1850              		.cfi_endproc
 1851              	.LFE81:
 1852              		.size	Modbus_process_FC16, .-Modbus_process_FC16
 1853              		.section	.text.Modbus_setTimeOut,"ax",%progbits
 1854              		.align	2
 1855              		.global	Modbus_setTimeOut
 1856              		.thumb
 1857              		.thumb_func
 1858              		.type	Modbus_setTimeOut, %function
 1859              	Modbus_setTimeOut:
 1860              	.LFB82:
 701:..\ModbusRtu.c **** /**
 702:..\ModbusRtu.c ****  * @brief
 703:..\ModbusRtu.c ****  * Initialize time-out parameter
 704:..\ModbusRtu.c ****  *
 705:..\ModbusRtu.c ****  * Call once class has been instantiated, typically within setup().
 706:..\ModbusRtu.c ****  * The time-out timer is reset each time that there is a successful communication
 707:..\ModbusRtu.c ****  * between Master and Slave. It works for both.
 708:..\ModbusRtu.c ****  *
 709:..\ModbusRtu.c ****  * @param time-out value (ms)
 710:..\ModbusRtu.c ****  * @ingroup setup
 711:..\ModbusRtu.c ****  */
 712:..\ModbusRtu.c **** void Modbus_setTimeOut( uint16_t timeOut)
 713:..\ModbusRtu.c **** {
 1861              		.loc 1 713 0
 1862              		.cfi_startproc
 1863              		@ args = 0, pretend = 0, frame = 0
 1864              		@ frame_needed = 0, uses_anonymous_args = 0
 1865              		@ link register save eliminated.
 1866              	.LVL203:
 714:..\ModbusRtu.c ****     u16timeOut = timeOut;
 1867              		.loc 1 714 0
 1868 0000 014B     		ldr	r3, .L151
 1869 0002 1880     		strh	r0, [r3]	@ movhi
 1870 0004 7047     		bx	lr
 1871              	.L152:
 1872 0006 00BF     		.align	2
 1873              	.L151:
 1874 0008 00000000 		.word	u16timeOut
 1875              		.cfi_endproc
 1876              	.LFE82:
 1877              		.size	Modbus_setTimeOut, .-Modbus_setTimeOut
 1878              		.section	.text.Modbus_getState,"ax",%progbits
 1879              		.align	2
 1880              		.global	Modbus_getState
 1881              		.thumb
 1882              		.thumb_func
 1883              		.type	Modbus_getState, %function
 1884              	Modbus_getState:
 1885              	.LFB83:
 715:..\ModbusRtu.c **** }
 716:..\ModbusRtu.c **** /**
ARM GAS  C:\Users\scott\AppData\Local\Temp\cclyZCPR.s 			page 49


 717:..\ModbusRtu.c ****  * Get modbus master state
 718:..\ModbusRtu.c ****  *
 719:..\ModbusRtu.c ****  * @return = 0 IDLE, = 1 WAITING FOR ANSWER
 720:..\ModbusRtu.c ****  * @ingroup buffer
 721:..\ModbusRtu.c ****  */
 722:..\ModbusRtu.c **** uint8_t Modbus_getState()
 723:..\ModbusRtu.c **** {
 1886              		.loc 1 723 0
 1887              		.cfi_startproc
 1888              		@ args = 0, pretend = 0, frame = 0
 1889              		@ frame_needed = 0, uses_anonymous_args = 0
 1890              		@ link register save eliminated.
 724:..\ModbusRtu.c ****     return u8state;
 725:..\ModbusRtu.c **** }
 1891              		.loc 1 725 0
 1892 0000 014B     		ldr	r3, .L154
 1893 0002 1878     		ldrb	r0, [r3]	@ zero_extendqisi2
 1894 0004 7047     		bx	lr
 1895              	.L155:
 1896 0006 00BF     		.align	2
 1897              	.L154:
 1898 0008 00000000 		.word	u8state
 1899              		.cfi_endproc
 1900              	.LFE83:
 1901              		.size	Modbus_getState, .-Modbus_getState
 1902              		.global	fctsupported
 1903              		.comm	u8regsize,1,1
 1904              		.comm	u32overTime,4,4
 1905              		.comm	u32timeOut,4,4
 1906              		.comm	u32time,4,4
 1907              		.comm	u16timeOut,2,2
 1908              		.comm	u16errCnt,2,2
 1909              		.comm	u16OutCnt,2,2
 1910              		.comm	u16InCnt,2,2
 1911              		.comm	au16regs,4,4
 1912              		.comm	u8lastRec,1,1
 1913              		.comm	u8BufferSize,1,1
 1914              		.comm	au8Buffer,254,4
 1915              		.comm	u8lastError,1,1
 1916              		.comm	u8state,1,1
 1917              		.comm	u8txenpin,1,1
 1918              		.comm	u8serno,1,1
 1919              		.comm	u8id,1,1
 1920              		.section	.rodata
 1921              		.align	2
 1922              		.set	.LANCHOR0,. + 0
 1923              		.type	fctsupported, %object
 1924              		.size	fctsupported, 8
 1925              	fctsupported:
 1926 0000 01       		.byte	1
 1927 0001 02       		.byte	2
 1928 0002 03       		.byte	3
 1929 0003 04       		.byte	4
 1930 0004 05       		.byte	5
 1931 0005 06       		.byte	6
 1932 0006 0F       		.byte	15
 1933 0007 10       		.byte	16
ARM GAS  C:\Users\scott\AppData\Local\Temp\cclyZCPR.s 			page 50


 1934              		.text
 1935              	.Letext0:
 1936              		.file 2 "c:\\program files (x86)\\cypress\\psoc creator\\4.2\\psoc creator\\import\\gnu\\arm\\5.4.
 1937              		.file 3 "c:\\program files (x86)\\cypress\\psoc creator\\4.2\\psoc creator\\import\\gnu\\arm\\5.4.
 1938              		.file 4 "Generated_Source\\PSoC5/cytypes.h"
 1939              		.file 5 "..\\ModbusRtu.h"
 1940              		.file 6 "Generated_Source\\PSoC5/core_cm3.h"
 1941              		.file 7 "Generated_Source\\PSoC5/RS485.h"
 1942              		.file 8 "Generated_Source\\PSoC5/Wemos.h"
 1943              		.file 9 "Generated_Source\\PSoC5/RS485_En.h"
 1944              		.file 10 "Generated_Source\\PSoC5/CyLib.h"