ARM GAS  C:\Users\scott\AppData\Local\Temp\cciDeN7R.s 			page 1


   1              		.syntax unified
   2              		.cpu cortex-m3
   3              		.fpu softvfp
   4              		.eabi_attribute 20, 1
   5              		.eabi_attribute 21, 1
   6              		.eabi_attribute 23, 3
   7              		.eabi_attribute 24, 1
   8              		.eabi_attribute 25, 1
   9              		.eabi_attribute 26, 1
  10              		.eabi_attribute 30, 1
  11              		.eabi_attribute 34, 1
  12              		.eabi_attribute 18, 4
  13              		.thumb
  14              		.syntax unified
  15              		.file	"one_wire.c"
  16              		.text
  17              	.Ltext0:
  18              		.cfi_sections	.debug_frame
  19              		.section	.text.one_wire_reset_pulse,"ax",%progbits
  20              		.align	2
  21              		.global	one_wire_reset_pulse
  22              		.thumb
  23              		.thumb_func
  24              		.type	one_wire_reset_pulse, %function
  25              	one_wire_reset_pulse:
  26              	.LFB64:
  27              		.file 1 "..\\one_wire.c"
   1:..\one_wire.c **** #include "one_wire.h"
   2:..\one_wire.c **** // This code came from https://github.com/ppkt, mostly.  Some changes
   3:..\one_wire.c **** // were made for the Cypress hardware.
   4:..\one_wire.c **** 
   5:..\one_wire.c **** one_wire_device one_wire_devices[10];
   6:..\one_wire.c **** uint8_t one_wire_device_count = 0;
   7:..\one_wire.c **** 
   8:..\one_wire.c **** one_wire_state state;
   9:..\one_wire.c **** 
  10:..\one_wire.c **** // global search state
  11:..\one_wire.c **** uint8_t last_mismatch;
  12:..\one_wire.c **** uint8_t last_device_flag;
  13:..\one_wire.c **** uint8_t crc8;
  14:..\one_wire.c **** uint8_t ROM_NO[8];
  15:..\one_wire.c **** 
  16:..\one_wire.c **** const unsigned char crc_table[] = {
  17:..\one_wire.c ****     0, 94, 188, 226, 97, 63, 221, 131, 194, 156, 126, 32, 163, 253, 31, 65,
  18:..\one_wire.c ****     157, 195, 33, 127, 252, 162, 64, 30, 95, 1, 227, 189, 62, 96, 130, 220,
  19:..\one_wire.c ****     35, 125, 159, 193, 66, 28, 254, 160, 225, 191, 93, 3, 128, 222, 60, 98,
  20:..\one_wire.c ****     190, 224, 2, 92, 223, 129, 99, 61, 124, 34, 192, 158, 29, 67, 161, 255,
  21:..\one_wire.c ****     70, 24, 250, 164, 39, 121, 155, 197, 132, 218, 56, 102, 229, 187, 89, 7,
  22:..\one_wire.c ****     219, 133, 103, 57, 186, 228, 6, 88, 25, 71, 165, 251, 120, 38, 196, 154,
  23:..\one_wire.c ****     101, 59, 217, 135, 4, 90, 184, 230, 167, 249, 27, 69, 198, 152, 122, 36,
  24:..\one_wire.c ****     248, 166, 68, 26, 153, 199, 37, 123, 58, 100, 134, 216, 91, 5, 231, 185,
  25:..\one_wire.c ****     140, 210, 48, 110, 237, 179, 81, 15, 78, 16, 242, 172, 47, 113, 147, 205,
  26:..\one_wire.c ****     17, 79, 173, 243, 112, 46, 204, 146, 211, 141, 111, 49, 178, 236, 14, 80,
  27:..\one_wire.c ****     175, 241, 19, 77, 206, 144, 114, 44, 109, 51, 209, 143, 12, 82, 176, 238,
  28:..\one_wire.c ****     50, 108, 142, 208, 83, 13, 239, 177, 240, 174, 76, 18, 145, 207, 45, 115,
  29:..\one_wire.c ****     202, 148, 118, 40, 171, 245, 23, 73, 8, 86, 180, 234, 105, 55, 213, 139,
  30:..\one_wire.c ****     87, 9, 235, 181, 54, 104, 138, 212, 149, 203, 41, 119, 244, 170, 72, 22,
ARM GAS  C:\Users\scott\AppData\Local\Temp\cciDeN7R.s 			page 2


  31:..\one_wire.c ****     233, 183, 85, 11, 136, 214, 52, 106, 43, 117, 151, 201, 74, 20, 246, 168,
  32:..\one_wire.c ****     116, 42, 200, 150, 21, 75, 169, 247, 182, 232, 10, 84, 215, 137, 107, 53
  33:..\one_wire.c **** };
  34:..\one_wire.c **** 
  35:..\one_wire.c **** 
  36:..\one_wire.c **** uint8_t one_wire_reset_pulse() {
  28              		.loc 1 36 0
  29              		.cfi_startproc
  30              		@ args = 0, pretend = 0, frame = 0
  31              		@ frame_needed = 0, uses_anonymous_args = 0
  32 0000 08B5     		push	{r3, lr}
  33              		.cfi_def_cfa_offset 8
  34              		.cfi_offset 3, -8
  35              		.cfi_offset 14, -4
  37:..\one_wire.c ****     // Pull bus down for 500 us (min. 480 us)
  38:..\one_wire.c ****     Wire1_Write(0);     // do the gpio operation to bring the Wire1 pin low
  36              		.loc 1 38 0
  37 0002 0020     		movs	r0, #0
  38 0004 FFF7FEFF 		bl	Wire1_Write
  39              	.LVL0:
  39:..\one_wire.c ****     CyDelayUs(RST_TIME);     // Cypress delays are fairly accurate, even at the microsecond level
  40              		.loc 1 39 0
  41 0008 4FF4F070 		mov	r0, #480
  42 000c FFF7FEFF 		bl	CyDelayUs
  43              	.LVL1:
  40:..\one_wire.c ****     Wire1_Write(1);     // bring the Wire1 pin back high
  44              		.loc 1 40 0
  45 0010 0120     		movs	r0, #1
  46 0012 FFF7FEFF 		bl	Wire1_Write
  47              	.LVL2:
  41:..\one_wire.c **** 
  42:..\one_wire.c ****     // Wait 70 us, bus should be pulled up by resistor and then
  43:..\one_wire.c ****     // pulled down by slave (15-60 us after detecting rising edge)
  44:..\one_wire.c ****     CyDelayUs(70);
  48              		.loc 1 44 0
  49 0016 4620     		movs	r0, #70
  50 0018 FFF7FEFF 		bl	CyDelayUs
  51              	.LVL3:
  45:..\one_wire.c ****     uint8_t bit = Wire1_Read();     // read the input of the Wire1 pin
  52              		.loc 1 45 0
  53 001c FFF7FEFF 		bl	Wire1_Read
  54              	.LVL4:
  46:..\one_wire.c ****     if (bit == 0) {
  55              		.loc 1 46 0
  56 0020 40B9     		cbnz	r0, .L2
  47:..\one_wire.c ****         state = ONE_WIRE_SLAVE_PRESENT;
  57              		.loc 1 47 0
  58 0022 0022     		movs	r2, #0
  59 0024 064B     		ldr	r3, .L5
  60 0026 1A70     		strb	r2, [r3]
  48:..\one_wire.c ****     } else {
  49:..\one_wire.c ****         state = ONE_WIRE_ERROR;
  50:..\one_wire.c ****         return 0;
  51:..\one_wire.c ****     }
  52:..\one_wire.c **** 
  53:..\one_wire.c ****     // Wait additional 430 us until slave keeps bus down (total 500 us, min. 480 us)
  54:..\one_wire.c ****     CyDelayUs(430);
ARM GAS  C:\Users\scott\AppData\Local\Temp\cciDeN7R.s 			page 3


  61              		.loc 1 54 0
  62 0028 4FF4D770 		mov	r0, #430
  63              	.LVL5:
  64 002c FFF7FEFF 		bl	CyDelayUs
  65              	.LVL6:
  55:..\one_wire.c ****     return 1;
  66              		.loc 1 55 0
  67 0030 0120     		movs	r0, #1
  68 0032 08BD     		pop	{r3, pc}
  69              	.LVL7:
  70              	.L2:
  49:..\one_wire.c ****         return 0;
  71              		.loc 1 49 0
  72 0034 0122     		movs	r2, #1
  73 0036 024B     		ldr	r3, .L5
  74 0038 1A70     		strb	r2, [r3]
  50:..\one_wire.c ****     }
  75              		.loc 1 50 0
  76 003a 0020     		movs	r0, #0
  77              	.LVL8:
  56:..\one_wire.c **** }
  78              		.loc 1 56 0
  79 003c 08BD     		pop	{r3, pc}
  80              	.L6:
  81 003e 00BF     		.align	2
  82              	.L5:
  83 0040 00000000 		.word	state
  84              		.cfi_endproc
  85              	.LFE64:
  86              		.size	one_wire_reset_pulse, .-one_wire_reset_pulse
  87              		.section	.text.one_wire_write_1,"ax",%progbits
  88              		.align	2
  89              		.global	one_wire_write_1
  90              		.thumb
  91              		.thumb_func
  92              		.type	one_wire_write_1, %function
  93              	one_wire_write_1:
  94              	.LFB65:
  57:..\one_wire.c **** 
  58:..\one_wire.c **** void one_wire_write_1() {
  95              		.loc 1 58 0
  96              		.cfi_startproc
  97              		@ args = 0, pretend = 0, frame = 0
  98              		@ frame_needed = 0, uses_anonymous_args = 0
  99 0000 08B5     		push	{r3, lr}
 100              		.cfi_def_cfa_offset 8
 101              		.cfi_offset 3, -8
 102              		.cfi_offset 14, -4
  59:..\one_wire.c ****     // Pull bus down for 15 us
  60:..\one_wire.c ****     Wire1_Write(0);
 103              		.loc 1 60 0
 104 0002 0020     		movs	r0, #0
 105 0004 FFF7FEFF 		bl	Wire1_Write
 106              	.LVL9:
  61:..\one_wire.c ****     CyDelayUs(WRITE_1_TIME);
 107              		.loc 1 61 0
 108 0008 0F20     		movs	r0, #15
ARM GAS  C:\Users\scott\AppData\Local\Temp\cciDeN7R.s 			page 4


 109 000a FFF7FEFF 		bl	CyDelayUs
 110              	.LVL10:
  62:..\one_wire.c ****     Wire1_Write(1);
 111              		.loc 1 62 0
 112 000e 0120     		movs	r0, #1
 113 0010 FFF7FEFF 		bl	Wire1_Write
 114              	.LVL11:
  63:..\one_wire.c **** 
  64:..\one_wire.c ****     // Wait until end of timeslot (60 us) + 5 us for recovery
  65:..\one_wire.c ****     CyDelayUs(50);
 115              		.loc 1 65 0
 116 0014 3220     		movs	r0, #50
 117 0016 FFF7FEFF 		bl	CyDelayUs
 118              	.LVL12:
 119 001a 08BD     		pop	{r3, pc}
 120              		.cfi_endproc
 121              	.LFE65:
 122              		.size	one_wire_write_1, .-one_wire_write_1
 123              		.section	.text.one_wire_write_0,"ax",%progbits
 124              		.align	2
 125              		.global	one_wire_write_0
 126              		.thumb
 127              		.thumb_func
 128              		.type	one_wire_write_0, %function
 129              	one_wire_write_0:
 130              	.LFB66:
  66:..\one_wire.c **** }
  67:..\one_wire.c **** 
  68:..\one_wire.c **** void one_wire_write_0() {
 131              		.loc 1 68 0
 132              		.cfi_startproc
 133              		@ args = 0, pretend = 0, frame = 0
 134              		@ frame_needed = 0, uses_anonymous_args = 0
 135 0000 08B5     		push	{r3, lr}
 136              		.cfi_def_cfa_offset 8
 137              		.cfi_offset 3, -8
 138              		.cfi_offset 14, -4
  69:..\one_wire.c ****     // Pull bus down for 60 us
  70:..\one_wire.c ****     Wire1_Write(0);
 139              		.loc 1 70 0
 140 0002 0020     		movs	r0, #0
 141 0004 FFF7FEFF 		bl	Wire1_Write
 142              	.LVL13:
  71:..\one_wire.c ****     CyDelayUs(WRITE_0_TIME);
 143              		.loc 1 71 0
 144 0008 3C20     		movs	r0, #60
 145 000a FFF7FEFF 		bl	CyDelayUs
 146              	.LVL14:
  72:..\one_wire.c ****     Wire1_Write(1);
 147              		.loc 1 72 0
 148 000e 0120     		movs	r0, #1
 149 0010 FFF7FEFF 		bl	Wire1_Write
 150              	.LVL15:
  73:..\one_wire.c **** 
  74:..\one_wire.c ****     // Wait until end of timeslot (60 us) + 5 us for recovery
  75:..\one_wire.c ****     CyDelayUs(5);
 151              		.loc 1 75 0
ARM GAS  C:\Users\scott\AppData\Local\Temp\cciDeN7R.s 			page 5


 152 0014 0520     		movs	r0, #5
 153 0016 FFF7FEFF 		bl	CyDelayUs
 154              	.LVL16:
 155 001a 08BD     		pop	{r3, pc}
 156              		.cfi_endproc
 157              	.LFE66:
 158              		.size	one_wire_write_0, .-one_wire_write_0
 159              		.section	.text.one_wire_write_bit,"ax",%progbits
 160              		.align	2
 161              		.global	one_wire_write_bit
 162              		.thumb
 163              		.thumb_func
 164              		.type	one_wire_write_bit, %function
 165              	one_wire_write_bit:
 166              	.LFB67:
  76:..\one_wire.c **** }
  77:..\one_wire.c **** 
  78:..\one_wire.c **** void one_wire_write_bit(uint8_t bit) {
 167              		.loc 1 78 0
 168              		.cfi_startproc
 169              		@ args = 0, pretend = 0, frame = 0
 170              		@ frame_needed = 0, uses_anonymous_args = 0
 171              	.LVL17:
 172 0000 08B5     		push	{r3, lr}
 173              		.cfi_def_cfa_offset 8
 174              		.cfi_offset 3, -8
 175              		.cfi_offset 14, -4
  79:..\one_wire.c ****     if (bit) {
 176              		.loc 1 79 0
 177 0002 10B1     		cbz	r0, .L12
  80:..\one_wire.c ****         one_wire_write_1();
 178              		.loc 1 80 0
 179 0004 FFF7FEFF 		bl	one_wire_write_1
 180              	.LVL18:
 181 0008 08BD     		pop	{r3, pc}
 182              	.LVL19:
 183              	.L12:
  81:..\one_wire.c ****     } else {
  82:..\one_wire.c ****         one_wire_write_0();
 184              		.loc 1 82 0
 185 000a FFF7FEFF 		bl	one_wire_write_0
 186              	.LVL20:
 187 000e 08BD     		pop	{r3, pc}
 188              		.cfi_endproc
 189              	.LFE67:
 190              		.size	one_wire_write_bit, .-one_wire_write_bit
 191              		.section	.text.one_wire_read_bit,"ax",%progbits
 192              		.align	2
 193              		.global	one_wire_read_bit
 194              		.thumb
 195              		.thumb_func
 196              		.type	one_wire_read_bit, %function
 197              	one_wire_read_bit:
 198              	.LFB68:
  83:..\one_wire.c ****     }
  84:..\one_wire.c **** }
  85:..\one_wire.c **** 
ARM GAS  C:\Users\scott\AppData\Local\Temp\cciDeN7R.s 			page 6


  86:..\one_wire.c **** uint8_t one_wire_read_bit() {
 199              		.loc 1 86 0
 200              		.cfi_startproc
 201              		@ args = 0, pretend = 0, frame = 0
 202              		@ frame_needed = 0, uses_anonymous_args = 0
 203 0000 10B5     		push	{r4, lr}
 204              		.cfi_def_cfa_offset 8
 205              		.cfi_offset 4, -8
 206              		.cfi_offset 14, -4
  87:..\one_wire.c ****     // Pull bus down for 5 us
  88:..\one_wire.c ****     Wire1_Write(0);
 207              		.loc 1 88 0
 208 0002 0020     		movs	r0, #0
 209 0004 FFF7FEFF 		bl	Wire1_Write
 210              	.LVL21:
  89:..\one_wire.c ****     CyDelayUs(5);
 211              		.loc 1 89 0
 212 0008 0520     		movs	r0, #5
 213 000a FFF7FEFF 		bl	CyDelayUs
 214              	.LVL22:
  90:..\one_wire.c ****     Wire1_Write(1);
 215              		.loc 1 90 0
 216 000e 0120     		movs	r0, #1
 217 0010 FFF7FEFF 		bl	Wire1_Write
 218              	.LVL23:
  91:..\one_wire.c **** 
  92:..\one_wire.c ****     // Wait 5 us and check bus state
  93:..\one_wire.c ****     CyDelayUs(5);
 219              		.loc 1 93 0
 220 0014 0520     		movs	r0, #5
 221 0016 FFF7FEFF 		bl	CyDelayUs
 222              	.LVL24:
  94:..\one_wire.c **** 
  95:..\one_wire.c ****     uint8_t bit;
  96:..\one_wire.c ****     bit = Wire1_Read();
 223              		.loc 1 96 0
 224 001a FFF7FEFF 		bl	Wire1_Read
 225              	.LVL25:
 226 001e 0446     		mov	r4, r0
 227              	.LVL26:
  97:..\one_wire.c **** 
  98:..\one_wire.c ****     // Wait until end of timeslot (60 us) + 5 us for recovery
  99:..\one_wire.c ****     CyDelayUs(TIME_SLOT);
 228              		.loc 1 99 0
 229 0020 3C20     		movs	r0, #60
 230 0022 FFF7FEFF 		bl	CyDelayUs
 231              	.LVL27:
 100:..\one_wire.c **** 
 101:..\one_wire.c ****     return bit;
 102:..\one_wire.c **** }
 232              		.loc 1 102 0
 233 0026 2046     		mov	r0, r4
 234 0028 10BD     		pop	{r4, pc}
 235              		.cfi_endproc
 236              	.LFE68:
 237              		.size	one_wire_read_bit, .-one_wire_read_bit
 238              		.section	.text.one_wire_write_byte,"ax",%progbits
ARM GAS  C:\Users\scott\AppData\Local\Temp\cciDeN7R.s 			page 7


 239              		.align	2
 240              		.global	one_wire_write_byte
 241              		.thumb
 242              		.thumb_func
 243              		.type	one_wire_write_byte, %function
 244              	one_wire_write_byte:
 245              	.LFB69:
 103:..\one_wire.c **** 
 104:..\one_wire.c **** void one_wire_write_byte(uint8_t data) {
 246              		.loc 1 104 0
 247              		.cfi_startproc
 248              		@ args = 0, pretend = 0, frame = 0
 249              		@ frame_needed = 0, uses_anonymous_args = 0
 250              	.LVL28:
 251 0000 38B5     		push	{r3, r4, r5, lr}
 252              		.cfi_def_cfa_offset 16
 253              		.cfi_offset 3, -16
 254              		.cfi_offset 4, -12
 255              		.cfi_offset 5, -8
 256              		.cfi_offset 14, -4
 257 0002 0546     		mov	r5, r0
 258              	.LVL29:
 105:..\one_wire.c ****     uint8_t i;
 106:..\one_wire.c ****     for (i = 0; i < 8; ++i) {
 259              		.loc 1 106 0
 260 0004 0024     		movs	r4, #0
 261 0006 0BE0     		b	.L18
 262              	.LVL30:
 263              	.L21:
 107:..\one_wire.c ****         if ((data >> i) & 1) {
 264              		.loc 1 107 0
 265 0008 45FA04F3 		asr	r3, r5, r4
 266 000c 13F0010F 		tst	r3, #1
 267 0010 02D0     		beq	.L19
 108:..\one_wire.c ****             one_wire_write_1();
 268              		.loc 1 108 0
 269 0012 FFF7FEFF 		bl	one_wire_write_1
 270              	.LVL31:
 271 0016 01E0     		b	.L20
 272              	.L19:
 109:..\one_wire.c ****         } else {
 110:..\one_wire.c ****             one_wire_write_0();
 273              		.loc 1 110 0
 274 0018 FFF7FEFF 		bl	one_wire_write_0
 275              	.LVL32:
 276              	.L20:
 106:..\one_wire.c ****         if ((data >> i) & 1) {
 277              		.loc 1 106 0 discriminator 2
 278 001c 0134     		adds	r4, r4, #1
 279              	.LVL33:
 280 001e E4B2     		uxtb	r4, r4
 281              	.LVL34:
 282              	.L18:
 106:..\one_wire.c ****         if ((data >> i) & 1) {
 283              		.loc 1 106 0 is_stmt 0 discriminator 1
 284 0020 072C     		cmp	r4, #7
 285 0022 F1D9     		bls	.L21
ARM GAS  C:\Users\scott\AppData\Local\Temp\cciDeN7R.s 			page 8


 111:..\one_wire.c ****         }
 112:..\one_wire.c ****     }
 113:..\one_wire.c **** }
 286              		.loc 1 113 0 is_stmt 1
 287 0024 38BD     		pop	{r3, r4, r5, pc}
 288              		.cfi_endproc
 289              	.LFE69:
 290              		.size	one_wire_write_byte, .-one_wire_write_byte
 291 0026 00BF     		.section	.text.one_wire_read_byte,"ax",%progbits
 292              		.align	2
 293              		.global	one_wire_read_byte
 294              		.thumb
 295              		.thumb_func
 296              		.type	one_wire_read_byte, %function
 297              	one_wire_read_byte:
 298              	.LFB70:
 114:..\one_wire.c **** 
 115:..\one_wire.c **** uint8_t one_wire_read_byte() {
 299              		.loc 1 115 0
 300              		.cfi_startproc
 301              		@ args = 0, pretend = 0, frame = 0
 302              		@ frame_needed = 0, uses_anonymous_args = 0
 303 0000 38B5     		push	{r3, r4, r5, lr}
 304              		.cfi_def_cfa_offset 16
 305              		.cfi_offset 3, -16
 306              		.cfi_offset 4, -12
 307              		.cfi_offset 5, -8
 308              		.cfi_offset 14, -4
 309              	.LVL35:
 116:..\one_wire.c ****     uint8_t i;
 117:..\one_wire.c ****     uint8_t data = 0;
 310              		.loc 1 117 0
 311 0002 0025     		movs	r5, #0
 118:..\one_wire.c ****     uint8_t bit;
 119:..\one_wire.c ****     for (i = 0; i < 8; ++i) {
 312              		.loc 1 119 0
 313 0004 2C46     		mov	r4, r5
 314 0006 06E0     		b	.L24
 315              	.LVL36:
 316              	.L25:
 120:..\one_wire.c ****         bit = one_wire_read_bit();
 317              		.loc 1 120 0 discriminator 3
 318 0008 FFF7FEFF 		bl	one_wire_read_bit
 319              	.LVL37:
 121:..\one_wire.c ****         data |= bit << i;
 320              		.loc 1 121 0 discriminator 3
 321 000c A040     		lsls	r0, r0, r4
 322              	.LVL38:
 323 000e 0543     		orrs	r5, r5, r0
 324              	.LVL39:
 325 0010 EDB2     		uxtb	r5, r5
 326              	.LVL40:
 119:..\one_wire.c ****         bit = one_wire_read_bit();
 327              		.loc 1 119 0 discriminator 3
 328 0012 0134     		adds	r4, r4, #1
 329              	.LVL41:
 330 0014 E4B2     		uxtb	r4, r4
ARM GAS  C:\Users\scott\AppData\Local\Temp\cciDeN7R.s 			page 9


 331              	.LVL42:
 332              	.L24:
 119:..\one_wire.c ****         bit = one_wire_read_bit();
 333              		.loc 1 119 0 is_stmt 0 discriminator 1
 334 0016 072C     		cmp	r4, #7
 335 0018 F6D9     		bls	.L25
 122:..\one_wire.c ****     }
 123:..\one_wire.c ****     return data;
 124:..\one_wire.c **** }
 336              		.loc 1 124 0 is_stmt 1
 337 001a 2846     		mov	r0, r5
 338 001c 38BD     		pop	{r3, r4, r5, pc}
 339              		.cfi_endproc
 340              	.LFE70:
 341              		.size	one_wire_read_byte, .-one_wire_read_byte
 342 001e 00BF     		.section	.text.one_wire_reset_crc,"ax",%progbits
 343              		.align	2
 344              		.global	one_wire_reset_crc
 345              		.thumb
 346              		.thumb_func
 347              		.type	one_wire_reset_crc, %function
 348              	one_wire_reset_crc:
 349              	.LFB71:
 125:..\one_wire.c **** 
 126:..\one_wire.c **** void one_wire_reset_crc() {
 350              		.loc 1 126 0
 351              		.cfi_startproc
 352              		@ args = 0, pretend = 0, frame = 0
 353              		@ frame_needed = 0, uses_anonymous_args = 0
 354              		@ link register save eliminated.
 127:..\one_wire.c ****     crc8 = 0;
 355              		.loc 1 127 0
 356 0000 0022     		movs	r2, #0
 357 0002 014B     		ldr	r3, .L28
 358 0004 1A70     		strb	r2, [r3]
 359 0006 7047     		bx	lr
 360              	.L29:
 361              		.align	2
 362              	.L28:
 363 0008 00000000 		.word	crc8
 364              		.cfi_endproc
 365              	.LFE71:
 366              		.size	one_wire_reset_crc, .-one_wire_reset_crc
 367              		.section	.text.one_wire_get_crc,"ax",%progbits
 368              		.align	2
 369              		.global	one_wire_get_crc
 370              		.thumb
 371              		.thumb_func
 372              		.type	one_wire_get_crc, %function
 373              	one_wire_get_crc:
 374              	.LFB72:
 128:..\one_wire.c **** }
 129:..\one_wire.c **** 
 130:..\one_wire.c **** uint8_t one_wire_get_crc() {
 375              		.loc 1 130 0
 376              		.cfi_startproc
 377              		@ args = 0, pretend = 0, frame = 0
ARM GAS  C:\Users\scott\AppData\Local\Temp\cciDeN7R.s 			page 10


 378              		@ frame_needed = 0, uses_anonymous_args = 0
 379              		@ link register save eliminated.
 131:..\one_wire.c ****     return crc8;
 132:..\one_wire.c **** }
 380              		.loc 1 132 0
 381 0000 014B     		ldr	r3, .L31
 382 0002 1878     		ldrb	r0, [r3]	@ zero_extendqisi2
 383 0004 7047     		bx	lr
 384              	.L32:
 385 0006 00BF     		.align	2
 386              	.L31:
 387 0008 00000000 		.word	crc8
 388              		.cfi_endproc
 389              	.LFE72:
 390              		.size	one_wire_get_crc, .-one_wire_get_crc
 391              		.section	.text.one_wire_crc,"ax",%progbits
 392              		.align	2
 393              		.global	one_wire_crc
 394              		.thumb
 395              		.thumb_func
 396              		.type	one_wire_crc, %function
 397              	one_wire_crc:
 398              	.LFB73:
 133:..\one_wire.c **** 
 134:..\one_wire.c **** uint8_t one_wire_crc(uint8_t data) {
 399              		.loc 1 134 0
 400              		.cfi_startproc
 401              		@ args = 0, pretend = 0, frame = 0
 402              		@ frame_needed = 0, uses_anonymous_args = 0
 403              		@ link register save eliminated.
 404              	.LVL43:
 135:..\one_wire.c ****     crc8 = crc_table[crc8 ^ data];
 405              		.loc 1 135 0
 406 0000 034A     		ldr	r2, .L34
 407 0002 1378     		ldrb	r3, [r2]	@ zero_extendqisi2
 408 0004 5840     		eors	r0, r0, r3
 409              	.LVL44:
 410 0006 034B     		ldr	r3, .L34+4
 411 0008 185C     		ldrb	r0, [r3, r0]	@ zero_extendqisi2
 412 000a 1070     		strb	r0, [r2]
 136:..\one_wire.c ****     return crc8;
 137:..\one_wire.c **** }
 413              		.loc 1 137 0
 414 000c 7047     		bx	lr
 415              	.L35:
 416 000e 00BF     		.align	2
 417              	.L34:
 418 0010 00000000 		.word	crc8
 419 0014 00000000 		.word	.LANCHOR0
 420              		.cfi_endproc
 421              	.LFE73:
 422              		.size	one_wire_crc, .-one_wire_crc
 423              		.section	.text.one_wire_read_rom,"ax",%progbits
 424              		.align	2
 425              		.global	one_wire_read_rom
 426              		.thumb
 427              		.thumb_func
ARM GAS  C:\Users\scott\AppData\Local\Temp\cciDeN7R.s 			page 11


 428              		.type	one_wire_read_rom, %function
 429              	one_wire_read_rom:
 430              	.LFB74:
 138:..\one_wire.c **** 
 139:..\one_wire.c **** // I don't know why nothing is done with the bytes read...
 140:..\one_wire.c **** // it never seems to get used anyway
 141:..\one_wire.c **** void one_wire_read_rom() {
 431              		.loc 1 141 0
 432              		.cfi_startproc
 433              		@ args = 0, pretend = 0, frame = 0
 434              		@ frame_needed = 0, uses_anonymous_args = 0
 435 0000 08B5     		push	{r3, lr}
 436              		.cfi_def_cfa_offset 8
 437              		.cfi_offset 3, -8
 438              		.cfi_offset 14, -4
 142:..\one_wire.c ****     one_wire_reset_pulse();
 439              		.loc 1 142 0
 440 0002 FFF7FEFF 		bl	one_wire_reset_pulse
 441              	.LVL45:
 143:..\one_wire.c ****     one_wire_write_byte(READ_ROM_CMD);
 442              		.loc 1 143 0
 443 0006 3320     		movs	r0, #51
 444 0008 FFF7FEFF 		bl	one_wire_write_byte
 445              	.LVL46:
 144:..\one_wire.c ****     one_wire_read_byte();
 446              		.loc 1 144 0
 447 000c FFF7FEFF 		bl	one_wire_read_byte
 448              	.LVL47:
 145:..\one_wire.c ****     one_wire_read_byte();
 449              		.loc 1 145 0
 450 0010 FFF7FEFF 		bl	one_wire_read_byte
 451              	.LVL48:
 146:..\one_wire.c ****     one_wire_read_byte();
 452              		.loc 1 146 0
 453 0014 FFF7FEFF 		bl	one_wire_read_byte
 454              	.LVL49:
 147:..\one_wire.c ****     one_wire_read_byte();
 455              		.loc 1 147 0
 456 0018 FFF7FEFF 		bl	one_wire_read_byte
 457              	.LVL50:
 148:..\one_wire.c ****     one_wire_read_byte();
 458              		.loc 1 148 0
 459 001c FFF7FEFF 		bl	one_wire_read_byte
 460              	.LVL51:
 149:..\one_wire.c ****     one_wire_read_byte();
 461              		.loc 1 149 0
 462 0020 FFF7FEFF 		bl	one_wire_read_byte
 463              	.LVL52:
 150:..\one_wire.c ****     one_wire_read_byte();
 464              		.loc 1 150 0
 465 0024 FFF7FEFF 		bl	one_wire_read_byte
 466              	.LVL53:
 151:..\one_wire.c ****     one_wire_read_byte();
 467              		.loc 1 151 0
 468 0028 FFF7FEFF 		bl	one_wire_read_byte
 469              	.LVL54:
 470 002c 08BD     		pop	{r3, pc}
ARM GAS  C:\Users\scott\AppData\Local\Temp\cciDeN7R.s 			page 12


 471              		.cfi_endproc
 472              	.LFE74:
 473              		.size	one_wire_read_rom, .-one_wire_read_rom
 474 002e 00BF     		.section	.text.one_wire_search,"ax",%progbits
 475              		.align	2
 476              		.global	one_wire_search
 477              		.thumb
 478              		.thumb_func
 479              		.type	one_wire_search, %function
 480              	one_wire_search:
 481              	.LFB75:
 152:..\one_wire.c **** }
 153:..\one_wire.c **** 
 154:..\one_wire.c **** int one_wire_search()
 155:..\one_wire.c **** {
 482              		.loc 1 155 0
 483              		.cfi_startproc
 484              		@ args = 0, pretend = 0, frame = 0
 485              		@ frame_needed = 0, uses_anonymous_args = 0
 486 0000 2DE9F041 		push	{r4, r5, r6, r7, r8, lr}
 487              		.cfi_def_cfa_offset 24
 488              		.cfi_offset 4, -24
 489              		.cfi_offset 5, -20
 490              		.cfi_offset 6, -16
 491              		.cfi_offset 7, -12
 492              		.cfi_offset 8, -8
 493              		.cfi_offset 14, -4
 494              	.LVL55:
 156:..\one_wire.c ****     uint8_t id_bit_number;
 157:..\one_wire.c ****     int last_zero, rom_byte_number, search_result;
 158:..\one_wire.c ****     uint8_t id_bit, cmp_id_bit;
 159:..\one_wire.c ****     uint8_t rom_byte_mask, search_direction;
 160:..\one_wire.c **** 
 161:..\one_wire.c ****     // initialize for search
 162:..\one_wire.c ****     id_bit_number = 1;
 163:..\one_wire.c ****     last_zero = 0;
 164:..\one_wire.c ****     rom_byte_number = 0;
 165:..\one_wire.c ****     rom_byte_mask = 1;
 166:..\one_wire.c ****     search_result = 0;
 167:..\one_wire.c ****     crc8 = 0;
 495              		.loc 1 167 0
 496 0004 0022     		movs	r2, #0
 497 0006 374B     		ldr	r3, .L58
 498 0008 1A70     		strb	r2, [r3]
 168:..\one_wire.c ****     // if the last call was not the last one
 169:..\one_wire.c ****     if (!last_device_flag)
 499              		.loc 1 169 0
 500 000a 374B     		ldr	r3, .L58+4
 501 000c 1B78     		ldrb	r3, [r3]	@ zero_extendqisi2
 502 000e 002B     		cmp	r3, #0
 503 0010 56D1     		bne	.L52
 170:..\one_wire.c ****     {
 171:..\one_wire.c ****         // 1-Wire reset
 172:..\one_wire.c ****         if (!one_wire_reset_pulse()) {
 504              		.loc 1 172 0
 505 0012 FFF7FEFF 		bl	one_wire_reset_pulse
 506              	.LVL56:
ARM GAS  C:\Users\scott\AppData\Local\Temp\cciDeN7R.s 			page 13


 507 0016 28B9     		cbnz	r0, .L40
 173:..\one_wire.c ****             // reset the search
 174:..\one_wire.c ****             last_mismatch = 0;
 508              		.loc 1 174 0
 509 0018 344B     		ldr	r3, .L58+8
 510 001a 1870     		strb	r0, [r3]
 175:..\one_wire.c ****             last_device_flag = 0;
 511              		.loc 1 175 0
 512 001c 324B     		ldr	r3, .L58+4
 513 001e 1870     		strb	r0, [r3]
 176:..\one_wire.c ****             return 0;
 514              		.loc 1 176 0
 515 0020 BDE8F081 		pop	{r4, r5, r6, r7, r8, pc}
 516              	.L40:
 177:..\one_wire.c ****         }
 178:..\one_wire.c ****         // issue the search command
 179:..\one_wire.c ****         one_wire_write_byte(SEARCH_CMD);
 517              		.loc 1 179 0
 518 0024 F020     		movs	r0, #240
 519 0026 FFF7FEFF 		bl	one_wire_write_byte
 520              	.LVL57:
 165:..\one_wire.c ****     search_result = 0;
 521              		.loc 1 165 0
 522 002a 0124     		movs	r4, #1
 164:..\one_wire.c ****     rom_byte_mask = 1;
 523              		.loc 1 164 0
 524 002c 0027     		movs	r7, #0
 163:..\one_wire.c ****     rom_byte_number = 0;
 525              		.loc 1 163 0
 526 002e B846     		mov	r8, r7
 162:..\one_wire.c ****     last_zero = 0;
 527              		.loc 1 162 0
 528 0030 2646     		mov	r6, r4
 529              	.LVL58:
 530              	.L50:
 180:..\one_wire.c ****         // loop to do the search
 181:..\one_wire.c ****         do
 182:..\one_wire.c ****         {
 183:..\one_wire.c ****             // read a bit and its complement
 184:..\one_wire.c ****             id_bit = one_wire_read_bit();
 531              		.loc 1 184 0
 532 0032 FFF7FEFF 		bl	one_wire_read_bit
 533              	.LVL59:
 534 0036 0546     		mov	r5, r0
 535              	.LVL60:
 185:..\one_wire.c ****             cmp_id_bit = one_wire_read_bit();
 536              		.loc 1 185 0
 537 0038 FFF7FEFF 		bl	one_wire_read_bit
 538              	.LVL61:
 186:..\one_wire.c ****             // check for no devices on 1-wire
 187:..\one_wire.c ****             if ((id_bit == 1) && (cmp_id_bit == 1))
 539              		.loc 1 187 0
 540 003c 012D     		cmp	r5, #1
 541 003e 01D1     		bne	.L42
 542              		.loc 1 187 0 is_stmt 0 discriminator 1
 543 0040 0128     		cmp	r0, #1
 544 0042 2FD0     		beq	.L43
ARM GAS  C:\Users\scott\AppData\Local\Temp\cciDeN7R.s 			page 14


 545              	.L42:
 188:..\one_wire.c ****                 break; // no devices
 189:..\one_wire.c **** 
 190:..\one_wire.c ****             // all devices coupled have 0 or 1
 191:..\one_wire.c ****             if (id_bit != cmp_id_bit)
 546              		.loc 1 191 0 is_stmt 1
 547 0044 8542     		cmp	r5, r0
 548 0046 10D1     		bne	.L44
 192:..\one_wire.c ****                 search_direction = id_bit; // bit write value for search
 193:..\one_wire.c ****             else
 194:..\one_wire.c ****             {
 195:..\one_wire.c ****                 // if this discrepancy if before the Last Discrepancy
 196:..\one_wire.c ****                 // on a previous next then pick the same as last time
 197:..\one_wire.c ****                 if (id_bit_number < last_mismatch)
 549              		.loc 1 197 0
 550 0048 284B     		ldr	r3, .L58+8
 551 004a 1D78     		ldrb	r5, [r3]	@ zero_extendqisi2
 552              	.LVL62:
 553 004c AE42     		cmp	r6, r5
 554 004e 06D2     		bcs	.L45
 198:..\one_wire.c ****                     search_direction = ((ROM_NO[rom_byte_number] & rom_byte_mask) > 0);
 555              		.loc 1 198 0
 556 0050 274B     		ldr	r3, .L58+12
 557 0052 DB5D     		ldrb	r3, [r3, r7]	@ zero_extendqisi2
 558 0054 1C42     		tst	r4, r3
 559 0056 14BF     		ite	ne
 560 0058 0125     		movne	r5, #1
 561 005a 0025     		moveq	r5, #0
 562              	.LVL63:
 563 005c 03E0     		b	.L46
 564              	.LVL64:
 565              	.L45:
 199:..\one_wire.c ****                 else
 200:..\one_wire.c ****                     // if equal to last pick 1, if not then pick 0
 201:..\one_wire.c ****                     search_direction = (id_bit_number == last_mismatch);
 566              		.loc 1 201 0
 567 005e AE42     		cmp	r6, r5
 568 0060 14BF     		ite	ne
 569 0062 0025     		movne	r5, #0
 570 0064 0125     		moveq	r5, #1
 571              	.LVL65:
 572              	.L46:
 202:..\one_wire.c ****                 // if 0 was picked then record its position in LastZero
 203:..\one_wire.c ****                 if (search_direction == 0)
 573              		.loc 1 203 0
 574 0066 05B9     		cbnz	r5, .L44
 204:..\one_wire.c ****                 {
 205:..\one_wire.c ****                     last_zero = id_bit_number;
 575              		.loc 1 205 0
 576 0068 B046     		mov	r8, r6
 577              	.LVL66:
 578              	.L44:
 206:..\one_wire.c ****                 }
 207:..\one_wire.c ****             }
 208:..\one_wire.c ****             // set or clear the bit in the ROM byte rom_byte_number
 209:..\one_wire.c ****             // with mask rom_byte_mask
 210:..\one_wire.c ****             if (search_direction == 1)
ARM GAS  C:\Users\scott\AppData\Local\Temp\cciDeN7R.s 			page 15


 579              		.loc 1 210 0
 580 006a 012D     		cmp	r5, #1
 581 006c 04D1     		bne	.L47
 211:..\one_wire.c ****                 ROM_NO[rom_byte_number] |= rom_byte_mask;
 582              		.loc 1 211 0
 583 006e 204A     		ldr	r2, .L58+12
 584 0070 D35D     		ldrb	r3, [r2, r7]	@ zero_extendqisi2
 585 0072 2343     		orrs	r3, r3, r4
 586 0074 D355     		strb	r3, [r2, r7]
 587 0076 04E0     		b	.L48
 588              	.L47:
 212:..\one_wire.c ****             else
 213:..\one_wire.c ****                 ROM_NO[rom_byte_number] &= ~rom_byte_mask;
 589              		.loc 1 213 0
 590 0078 1D4A     		ldr	r2, .L58+12
 591 007a D35D     		ldrb	r3, [r2, r7]	@ zero_extendqisi2
 592 007c 23EA0403 		bic	r3, r3, r4
 593 0080 D355     		strb	r3, [r2, r7]
 594              	.L48:
 214:..\one_wire.c ****             // serial number search direction write bit
 215:..\one_wire.c ****             one_wire_write_bit(search_direction);
 595              		.loc 1 215 0
 596 0082 2846     		mov	r0, r5
 597              	.LVL67:
 598 0084 FFF7FEFF 		bl	one_wire_write_bit
 599              	.LVL68:
 216:..\one_wire.c ****             // increment the byte counter id_bit_number
 217:..\one_wire.c ****             // and shift the mask rom_byte_mask
 218:..\one_wire.c ****             id_bit_number++;
 600              		.loc 1 218 0
 601 0088 0136     		adds	r6, r6, #1
 602              	.LVL69:
 603 008a F6B2     		uxtb	r6, r6
 604              	.LVL70:
 219:..\one_wire.c ****             rom_byte_mask <<= 1;
 605              		.loc 1 219 0
 606 008c 6400     		lsls	r4, r4, #1
 607              	.LVL71:
 220:..\one_wire.c ****             // if the mask is 0 then go to new SerialNum byte rom_byte_number and reset mask
 221:..\one_wire.c ****             if (rom_byte_mask == 0)
 608              		.loc 1 221 0
 609 008e 14F0FF04 		ands	r4, r4, #255
 610              	.LVL72:
 611 0092 05D1     		bne	.L49
 222:..\one_wire.c ****             {
 223:..\one_wire.c ****                 one_wire_crc(ROM_NO[rom_byte_number]); // accumulate the CRC
 612              		.loc 1 223 0
 613 0094 164B     		ldr	r3, .L58+12
 614 0096 D85D     		ldrb	r0, [r3, r7]	@ zero_extendqisi2
 615 0098 FFF7FEFF 		bl	one_wire_crc
 616              	.LVL73:
 224:..\one_wire.c ****                 rom_byte_number++;
 617              		.loc 1 224 0
 618 009c 0137     		adds	r7, r7, #1
 619              	.LVL74:
 225:..\one_wire.c ****                 rom_byte_mask = 1;
 620              		.loc 1 225 0
ARM GAS  C:\Users\scott\AppData\Local\Temp\cciDeN7R.s 			page 16


 621 009e 0124     		movs	r4, #1
 622              	.LVL75:
 623              	.L49:
 226:..\one_wire.c ****             }
 227:..\one_wire.c **** 
 228:..\one_wire.c ****         }
 229:..\one_wire.c ****         while(rom_byte_number < 8); // loop until through all ROM bytes 0-7
 624              		.loc 1 229 0
 625 00a0 072F     		cmp	r7, #7
 626 00a2 C6DD     		ble	.L50
 627              	.LVL76:
 628              	.L43:
 230:..\one_wire.c ****         // if the search was successful then
 231:..\one_wire.c ****         if (!((id_bit_number < 65) || (crc8 != 0)))
 629              		.loc 1 231 0
 630 00a4 402E     		cmp	r6, #64
 631 00a6 0DD9     		bls	.L53
 632              		.loc 1 231 0 is_stmt 0 discriminator 1
 633 00a8 0E4B     		ldr	r3, .L58
 634 00aa 1B78     		ldrb	r3, [r3]	@ zero_extendqisi2
 635 00ac 63B9     		cbnz	r3, .L54
 232:..\one_wire.c ****         {
 233:..\one_wire.c ****             // search successful so set last_mismatch, last_device_flag, search_result
 234:..\one_wire.c ****             last_mismatch = last_zero;
 636              		.loc 1 234 0 is_stmt 1
 637 00ae 5FFA88F3 		uxtb	r3, r8
 638 00b2 0E4A     		ldr	r2, .L58+8
 639 00b4 1370     		strb	r3, [r2]
 235:..\one_wire.c ****             // check for last device
 236:..\one_wire.c ****             if (last_mismatch == 0)
 640              		.loc 1 236 0
 641 00b6 4BB9     		cbnz	r3, .L55
 237:..\one_wire.c ****                 last_device_flag = 1;
 642              		.loc 1 237 0
 643 00b8 0120     		movs	r0, #1
 644 00ba 0B4B     		ldr	r3, .L58+4
 645 00bc 1870     		strb	r0, [r3]
 646 00be 06E0     		b	.L39
 647              	.LVL77:
 648              	.L52:
 166:..\one_wire.c ****     crc8 = 0;
 649              		.loc 1 166 0
 650 00c0 0020     		movs	r0, #0
 651 00c2 04E0     		b	.L39
 652              	.LVL78:
 653              	.L53:
 654 00c4 0020     		movs	r0, #0
 655 00c6 02E0     		b	.L39
 656              	.L54:
 657 00c8 0020     		movs	r0, #0
 658 00ca 00E0     		b	.L39
 659              	.L55:
 238:..\one_wire.c **** 
 239:..\one_wire.c ****             search_result = 1;
 660              		.loc 1 239 0
 661 00cc 0120     		movs	r0, #1
 662              	.LVL79:
ARM GAS  C:\Users\scott\AppData\Local\Temp\cciDeN7R.s 			page 17


 663              	.L39:
 240:..\one_wire.c ****         }
 241:..\one_wire.c ****     }
 242:..\one_wire.c ****     // if no device found then reset counters so next 'search' will be like a first
 243:..\one_wire.c ****     if (!search_result || !ROM_NO[0])
 664              		.loc 1 243 0
 665 00ce 10B1     		cbz	r0, .L51
 666              		.loc 1 243 0 is_stmt 0 discriminator 1
 667 00d0 074B     		ldr	r3, .L58+12
 668 00d2 1B78     		ldrb	r3, [r3]	@ zero_extendqisi2
 669 00d4 23B9     		cbnz	r3, .L41
 670              	.L51:
 244:..\one_wire.c ****     {
 245:..\one_wire.c ****         last_mismatch = 0;
 671              		.loc 1 245 0 is_stmt 1
 672 00d6 0020     		movs	r0, #0
 673              	.LVL80:
 674 00d8 044B     		ldr	r3, .L58+8
 675 00da 1870     		strb	r0, [r3]
 246:..\one_wire.c ****         last_device_flag = 0;
 676              		.loc 1 246 0
 677 00dc 024B     		ldr	r3, .L58+4
 678 00de 1870     		strb	r0, [r3]
 679              	.LVL81:
 680              	.L41:
 247:..\one_wire.c ****         search_result = 0;
 248:..\one_wire.c ****     }
 249:..\one_wire.c ****     return search_result;
 250:..\one_wire.c **** }
 681              		.loc 1 250 0
 682 00e0 BDE8F081 		pop	{r4, r5, r6, r7, r8, pc}
 683              	.L59:
 684              		.align	2
 685              	.L58:
 686 00e4 00000000 		.word	crc8
 687 00e8 00000000 		.word	last_device_flag
 688 00ec 00000000 		.word	last_mismatch
 689 00f0 00000000 		.word	ROM_NO
 690              		.cfi_endproc
 691              	.LFE75:
 692              		.size	one_wire_search, .-one_wire_search
 693              		.section	.text.one_wire_match_rom,"ax",%progbits
 694              		.align	2
 695              		.global	one_wire_match_rom
 696              		.thumb
 697              		.thumb_func
 698              		.type	one_wire_match_rom, %function
 699              	one_wire_match_rom:
 700              	.LFB76:
 251:..\one_wire.c **** 
 252:..\one_wire.c **** uint8_t one_wire_match_rom(one_wire_device device) {
 701              		.loc 1 252 0
 702              		.cfi_startproc
 703              		@ args = 0, pretend = 0, frame = 8
 704              		@ frame_needed = 0, uses_anonymous_args = 0
 705 0000 10B5     		push	{r4, lr}
 706              		.cfi_def_cfa_offset 8
ARM GAS  C:\Users\scott\AppData\Local\Temp\cciDeN7R.s 			page 18


 707              		.cfi_offset 4, -8
 708              		.cfi_offset 14, -4
 709 0002 82B0     		sub	sp, sp, #8
 710              		.cfi_def_cfa_offset 16
 711 0004 02AB     		add	r3, sp, #8
 712 0006 03E90300 		stmdb	r3, {r0, r1}
 253:..\one_wire.c ****     int i;
 254:..\one_wire.c ****     one_wire_reset_pulse();
 713              		.loc 1 254 0
 714 000a FFF7FEFF 		bl	one_wire_reset_pulse
 715              	.LVL82:
 255:..\one_wire.c ****     one_wire_write_byte(MATCH_ROM_CMD); // Match ROM command
 716              		.loc 1 255 0
 717 000e 5520     		movs	r0, #85
 718 0010 FFF7FEFF 		bl	one_wire_write_byte
 719              	.LVL83:
 256:..\one_wire.c ****     for (i = 0; i < 8; ++i) {
 720              		.loc 1 256 0
 721 0014 0024     		movs	r4, #0
 722 0016 06E0     		b	.L61
 723              	.LVL84:
 724              	.L62:
 257:..\one_wire.c ****         one_wire_write_byte(device.address[i]);
 725              		.loc 1 257 0 discriminator 3
 726 0018 02AB     		add	r3, sp, #8
 727 001a 2344     		add	r3, r3, r4
 728 001c 13F8080C 		ldrb	r0, [r3, #-8]	@ zero_extendqisi2
 729 0020 FFF7FEFF 		bl	one_wire_write_byte
 730              	.LVL85:
 256:..\one_wire.c ****     for (i = 0; i < 8; ++i) {
 731              		.loc 1 256 0 discriminator 3
 732 0024 0134     		adds	r4, r4, #1
 733              	.LVL86:
 734              	.L61:
 256:..\one_wire.c ****     for (i = 0; i < 8; ++i) {
 735              		.loc 1 256 0 is_stmt 0 discriminator 1
 736 0026 072C     		cmp	r4, #7
 737 0028 F6DD     		ble	.L62
 258:..\one_wire.c ****     }
 259:..\one_wire.c **** 
 260:..\one_wire.c ****     return 0;
 261:..\one_wire.c **** }
 738              		.loc 1 261 0 is_stmt 1
 739 002a 0020     		movs	r0, #0
 740 002c 02B0     		add	sp, sp, #8
 741              		.cfi_def_cfa_offset 8
 742              		@ sp needed
 743 002e 10BD     		pop	{r4, pc}
 744              		.cfi_endproc
 745              	.LFE76:
 746              		.size	one_wire_match_rom, .-one_wire_match_rom
 747              		.section	.text.one_wire_first,"ax",%progbits
 748              		.align	2
 749              		.global	one_wire_first
 750              		.thumb
 751              		.thumb_func
 752              		.type	one_wire_first, %function
ARM GAS  C:\Users\scott\AppData\Local\Temp\cciDeN7R.s 			page 19


 753              	one_wire_first:
 754              	.LFB77:
 262:..\one_wire.c **** 
 263:..\one_wire.c **** int one_wire_first()
 264:..\one_wire.c **** {
 755              		.loc 1 264 0
 756              		.cfi_startproc
 757              		@ args = 0, pretend = 0, frame = 0
 758              		@ frame_needed = 0, uses_anonymous_args = 0
 759 0000 08B5     		push	{r3, lr}
 760              		.cfi_def_cfa_offset 8
 761              		.cfi_offset 3, -8
 762              		.cfi_offset 14, -4
 265:..\one_wire.c ****     // reset the search state
 266:..\one_wire.c ****     last_mismatch = 0;
 763              		.loc 1 266 0
 764 0002 0023     		movs	r3, #0
 765 0004 034A     		ldr	r2, .L66
 766 0006 1370     		strb	r3, [r2]
 267:..\one_wire.c ****     last_device_flag = 0;
 767              		.loc 1 267 0
 768 0008 034A     		ldr	r2, .L66+4
 769 000a 1370     		strb	r3, [r2]
 268:..\one_wire.c ****     return one_wire_search();
 770              		.loc 1 268 0
 771 000c FFF7FEFF 		bl	one_wire_search
 772              	.LVL87:
 269:..\one_wire.c **** }
 773              		.loc 1 269 0
 774 0010 08BD     		pop	{r3, pc}
 775              	.L67:
 776 0012 00BF     		.align	2
 777              	.L66:
 778 0014 00000000 		.word	last_mismatch
 779 0018 00000000 		.word	last_device_flag
 780              		.cfi_endproc
 781              	.LFE77:
 782              		.size	one_wire_first, .-one_wire_first
 783              		.section	.text.one_wire_next,"ax",%progbits
 784              		.align	2
 785              		.global	one_wire_next
 786              		.thumb
 787              		.thumb_func
 788              		.type	one_wire_next, %function
 789              	one_wire_next:
 790              	.LFB78:
 270:..\one_wire.c **** 
 271:..\one_wire.c **** int one_wire_next()
 272:..\one_wire.c **** {
 791              		.loc 1 272 0
 792              		.cfi_startproc
 793              		@ args = 0, pretend = 0, frame = 0
 794              		@ frame_needed = 0, uses_anonymous_args = 0
 795 0000 08B5     		push	{r3, lr}
 796              		.cfi_def_cfa_offset 8
 797              		.cfi_offset 3, -8
 798              		.cfi_offset 14, -4
ARM GAS  C:\Users\scott\AppData\Local\Temp\cciDeN7R.s 			page 20


 273:..\one_wire.c ****     // leave the search state alone
 274:..\one_wire.c ****     return one_wire_search();
 799              		.loc 1 274 0
 800 0002 FFF7FEFF 		bl	one_wire_search
 801              	.LVL88:
 275:..\one_wire.c **** }
 802              		.loc 1 275 0
 803 0006 08BD     		pop	{r3, pc}
 804              		.cfi_endproc
 805              	.LFE78:
 806              		.size	one_wire_next, .-one_wire_next
 807              		.section	.text.one_wire_search_rom,"ax",%progbits
 808              		.align	2
 809              		.global	one_wire_search_rom
 810              		.thumb
 811              		.thumb_func
 812              		.type	one_wire_search_rom, %function
 813              	one_wire_search_rom:
 814              	.LFB79:
 276:..\one_wire.c **** 
 277:..\one_wire.c **** one_wire_device* one_wire_search_rom(uint8_t *devices) {
 815              		.loc 1 277 0
 816              		.cfi_startproc
 817              		@ args = 0, pretend = 0, frame = 8
 818              		@ frame_needed = 0, uses_anonymous_args = 0
 819              	.LVL89:
 820 0000 70B5     		push	{r4, r5, r6, lr}
 821              		.cfi_def_cfa_offset 16
 822              		.cfi_offset 4, -16
 823              		.cfi_offset 5, -12
 824              		.cfi_offset 6, -8
 825              		.cfi_offset 14, -4
 826 0002 82B0     		sub	sp, sp, #8
 827              		.cfi_def_cfa_offset 24
 828 0004 0446     		mov	r4, r0
 278:..\one_wire.c ****     int result, i;
 279:..\one_wire.c ****     one_wire_device_count = 0;
 829              		.loc 1 279 0
 830 0006 0022     		movs	r2, #0
 831 0008 154B     		ldr	r3, .L78
 832 000a 1A70     		strb	r2, [r3]
 280:..\one_wire.c ****     result = one_wire_first();
 833              		.loc 1 280 0
 834 000c FFF7FEFF 		bl	one_wire_first
 835              	.LVL90:
 281:..\one_wire.c ****     while (result)
 836              		.loc 1 281 0
 837 0010 1DE0     		b	.L71
 838              	.LVL91:
 839              	.L72:
 840              	.LBB2:
 282:..\one_wire.c ****     {
 283:..\one_wire.c ****         one_wire_device device;
 284:..\one_wire.c ****         for (i = 7; i >= 0; i--) {
 841              		.loc 1 284 0 discriminator 3
 842 0012 013B     		subs	r3, r3, #1
 843              	.LVL92:
ARM GAS  C:\Users\scott\AppData\Local\Temp\cciDeN7R.s 			page 21


 844 0014 00E0     		b	.L75
 845              	.LVL93:
 846              	.L76:
 847              	.LBE2:
 848 0016 0723     		movs	r3, #7
 849              	.L75:
 850              	.LVL94:
 851              	.LBB3:
 852              		.loc 1 284 0 is_stmt 0 discriminator 1
 853 0018 002B     		cmp	r3, #0
 854 001a FADA     		bge	.L72
 855 001c 0723     		movs	r3, #7
 856              	.LVL95:
 857 001e 06E0     		b	.L73
 858              	.LVL96:
 859              	.L74:
 285:..\one_wire.c ****         }
 286:..\one_wire.c **** 
 287:..\one_wire.c ****         for (i = 7; i >= 0; i--) {
 288:..\one_wire.c ****             device.address[i] = ROM_NO[i];
 860              		.loc 1 288 0 is_stmt 1 discriminator 3
 861 0020 104A     		ldr	r2, .L78+4
 862 0022 D15C     		ldrb	r1, [r2, r3]	@ zero_extendqisi2
 863 0024 02AA     		add	r2, sp, #8
 864 0026 1A44     		add	r2, r2, r3
 865 0028 02F8081C 		strb	r1, [r2, #-8]
 287:..\one_wire.c ****             device.address[i] = ROM_NO[i];
 866              		.loc 1 287 0 discriminator 3
 867 002c 013B     		subs	r3, r3, #1
 868              	.LVL97:
 869              	.L73:
 287:..\one_wire.c ****             device.address[i] = ROM_NO[i];
 870              		.loc 1 287 0 is_stmt 0 discriminator 1
 871 002e 002B     		cmp	r3, #0
 872 0030 F6DA     		bge	.L74
 289:..\one_wire.c ****         }
 290:..\one_wire.c **** 
 291:..\one_wire.c ****         one_wire_devices[one_wire_device_count++] = device;
 873              		.loc 1 291 0 is_stmt 1
 874 0032 0B4B     		ldr	r3, .L78
 875              	.LVL98:
 876 0034 1A78     		ldrb	r2, [r3]	@ zero_extendqisi2
 877 0036 511C     		adds	r1, r2, #1
 878 0038 1970     		strb	r1, [r3]
 879 003a 0B4D     		ldr	r5, .L78+8
 880 003c 05EBC206 		add	r6, r5, r2, lsl #3
 881 0040 6B46     		mov	r3, sp
 882 0042 03CB     		ldmia	r3!, {r0, r1}
 883              	.LVL99:
 884 0044 45F83200 		str	r0, [r5, r2, lsl #3]	@ unaligned
 885 0048 7160     		str	r1, [r6, #4]	@ unaligned
 292:..\one_wire.c **** 
 293:..\one_wire.c ****         result = one_wire_next();
 886              		.loc 1 293 0
 887 004a FFF7FEFF 		bl	one_wire_next
 888              	.LVL100:
 889              	.L71:
ARM GAS  C:\Users\scott\AppData\Local\Temp\cciDeN7R.s 			page 22


 890              	.LBE3:
 281:..\one_wire.c ****     {
 891              		.loc 1 281 0
 892 004e 0028     		cmp	r0, #0
 893 0050 E1D1     		bne	.L76
 294:..\one_wire.c ****     }
 295:..\one_wire.c ****     *devices = one_wire_device_count;
 894              		.loc 1 295 0
 895 0052 034B     		ldr	r3, .L78
 896 0054 1B78     		ldrb	r3, [r3]	@ zero_extendqisi2
 897 0056 2370     		strb	r3, [r4]
 296:..\one_wire.c ****     return one_wire_devices;
 297:..\one_wire.c **** }
 898              		.loc 1 297 0
 899 0058 0348     		ldr	r0, .L78+8
 900              	.LVL101:
 901 005a 02B0     		add	sp, sp, #8
 902              		.cfi_def_cfa_offset 16
 903              		@ sp needed
 904 005c 70BD     		pop	{r4, r5, r6, pc}
 905              	.LVL102:
 906              	.L79:
 907 005e 00BF     		.align	2
 908              	.L78:
 909 0060 00000000 		.word	.LANCHOR1
 910 0064 00000000 		.word	ROM_NO
 911 0068 00000000 		.word	one_wire_devices
 912              		.cfi_endproc
 913              	.LFE79:
 914              		.size	one_wire_search_rom, .-one_wire_search_rom
 915              		.global	crc_table
 916              		.comm	ROM_NO,8,4
 917              		.comm	crc8,1,1
 918              		.comm	last_device_flag,1,1
 919              		.comm	last_mismatch,1,1
 920              		.comm	state,1,1
 921              		.global	one_wire_device_count
 922              		.comm	one_wire_devices,80,4
 923              		.section	.rodata
 924              		.align	2
 925              		.set	.LANCHOR0,. + 0
 926              		.type	crc_table, %object
 927              		.size	crc_table, 256
 928              	crc_table:
 929 0000 00       		.byte	0
 930 0001 5E       		.byte	94
 931 0002 BC       		.byte	-68
 932 0003 E2       		.byte	-30
 933 0004 61       		.byte	97
 934 0005 3F       		.byte	63
 935 0006 DD       		.byte	-35
 936 0007 83       		.byte	-125
 937 0008 C2       		.byte	-62
 938 0009 9C       		.byte	-100
 939 000a 7E       		.byte	126
 940 000b 20       		.byte	32
 941 000c A3       		.byte	-93
ARM GAS  C:\Users\scott\AppData\Local\Temp\cciDeN7R.s 			page 23


 942 000d FD       		.byte	-3
 943 000e 1F       		.byte	31
 944 000f 41       		.byte	65
 945 0010 9D       		.byte	-99
 946 0011 C3       		.byte	-61
 947 0012 21       		.byte	33
 948 0013 7F       		.byte	127
 949 0014 FC       		.byte	-4
 950 0015 A2       		.byte	-94
 951 0016 40       		.byte	64
 952 0017 1E       		.byte	30
 953 0018 5F       		.byte	95
 954 0019 01       		.byte	1
 955 001a E3       		.byte	-29
 956 001b BD       		.byte	-67
 957 001c 3E       		.byte	62
 958 001d 60       		.byte	96
 959 001e 82       		.byte	-126
 960 001f DC       		.byte	-36
 961 0020 23       		.byte	35
 962 0021 7D       		.byte	125
 963 0022 9F       		.byte	-97
 964 0023 C1       		.byte	-63
 965 0024 42       		.byte	66
 966 0025 1C       		.byte	28
 967 0026 FE       		.byte	-2
 968 0027 A0       		.byte	-96
 969 0028 E1       		.byte	-31
 970 0029 BF       		.byte	-65
 971 002a 5D       		.byte	93
 972 002b 03       		.byte	3
 973 002c 80       		.byte	-128
 974 002d DE       		.byte	-34
 975 002e 3C       		.byte	60
 976 002f 62       		.byte	98
 977 0030 BE       		.byte	-66
 978 0031 E0       		.byte	-32
 979 0032 02       		.byte	2
 980 0033 5C       		.byte	92
 981 0034 DF       		.byte	-33
 982 0035 81       		.byte	-127
 983 0036 63       		.byte	99
 984 0037 3D       		.byte	61
 985 0038 7C       		.byte	124
 986 0039 22       		.byte	34
 987 003a C0       		.byte	-64
 988 003b 9E       		.byte	-98
 989 003c 1D       		.byte	29
 990 003d 43       		.byte	67
 991 003e A1       		.byte	-95
 992 003f FF       		.byte	-1
 993 0040 46       		.byte	70
 994 0041 18       		.byte	24
 995 0042 FA       		.byte	-6
 996 0043 A4       		.byte	-92
 997 0044 27       		.byte	39
 998 0045 79       		.byte	121
ARM GAS  C:\Users\scott\AppData\Local\Temp\cciDeN7R.s 			page 24


 999 0046 9B       		.byte	-101
 1000 0047 C5       		.byte	-59
 1001 0048 84       		.byte	-124
 1002 0049 DA       		.byte	-38
 1003 004a 38       		.byte	56
 1004 004b 66       		.byte	102
 1005 004c E5       		.byte	-27
 1006 004d BB       		.byte	-69
 1007 004e 59       		.byte	89
 1008 004f 07       		.byte	7
 1009 0050 DB       		.byte	-37
 1010 0051 85       		.byte	-123
 1011 0052 67       		.byte	103
 1012 0053 39       		.byte	57
 1013 0054 BA       		.byte	-70
 1014 0055 E4       		.byte	-28
 1015 0056 06       		.byte	6
 1016 0057 58       		.byte	88
 1017 0058 19       		.byte	25
 1018 0059 47       		.byte	71
 1019 005a A5       		.byte	-91
 1020 005b FB       		.byte	-5
 1021 005c 78       		.byte	120
 1022 005d 26       		.byte	38
 1023 005e C4       		.byte	-60
 1024 005f 9A       		.byte	-102
 1025 0060 65       		.byte	101
 1026 0061 3B       		.byte	59
 1027 0062 D9       		.byte	-39
 1028 0063 87       		.byte	-121
 1029 0064 04       		.byte	4
 1030 0065 5A       		.byte	90
 1031 0066 B8       		.byte	-72
 1032 0067 E6       		.byte	-26
 1033 0068 A7       		.byte	-89
 1034 0069 F9       		.byte	-7
 1035 006a 1B       		.byte	27
 1036 006b 45       		.byte	69
 1037 006c C6       		.byte	-58
 1038 006d 98       		.byte	-104
 1039 006e 7A       		.byte	122
 1040 006f 24       		.byte	36
 1041 0070 F8       		.byte	-8
 1042 0071 A6       		.byte	-90
 1043 0072 44       		.byte	68
 1044 0073 1A       		.byte	26
 1045 0074 99       		.byte	-103
 1046 0075 C7       		.byte	-57
 1047 0076 25       		.byte	37
 1048 0077 7B       		.byte	123
 1049 0078 3A       		.byte	58
 1050 0079 64       		.byte	100
 1051 007a 86       		.byte	-122
 1052 007b D8       		.byte	-40
 1053 007c 5B       		.byte	91
 1054 007d 05       		.byte	5
 1055 007e E7       		.byte	-25
ARM GAS  C:\Users\scott\AppData\Local\Temp\cciDeN7R.s 			page 25


 1056 007f B9       		.byte	-71
 1057 0080 8C       		.byte	-116
 1058 0081 D2       		.byte	-46
 1059 0082 30       		.byte	48
 1060 0083 6E       		.byte	110
 1061 0084 ED       		.byte	-19
 1062 0085 B3       		.byte	-77
 1063 0086 51       		.byte	81
 1064 0087 0F       		.byte	15
 1065 0088 4E       		.byte	78
 1066 0089 10       		.byte	16
 1067 008a F2       		.byte	-14
 1068 008b AC       		.byte	-84
 1069 008c 2F       		.byte	47
 1070 008d 71       		.byte	113
 1071 008e 93       		.byte	-109
 1072 008f CD       		.byte	-51
 1073 0090 11       		.byte	17
 1074 0091 4F       		.byte	79
 1075 0092 AD       		.byte	-83
 1076 0093 F3       		.byte	-13
 1077 0094 70       		.byte	112
 1078 0095 2E       		.byte	46
 1079 0096 CC       		.byte	-52
 1080 0097 92       		.byte	-110
 1081 0098 D3       		.byte	-45
 1082 0099 8D       		.byte	-115
 1083 009a 6F       		.byte	111
 1084 009b 31       		.byte	49
 1085 009c B2       		.byte	-78
 1086 009d EC       		.byte	-20
 1087 009e 0E       		.byte	14
 1088 009f 50       		.byte	80
 1089 00a0 AF       		.byte	-81
 1090 00a1 F1       		.byte	-15
 1091 00a2 13       		.byte	19
 1092 00a3 4D       		.byte	77
 1093 00a4 CE       		.byte	-50
 1094 00a5 90       		.byte	-112
 1095 00a6 72       		.byte	114
 1096 00a7 2C       		.byte	44
 1097 00a8 6D       		.byte	109
 1098 00a9 33       		.byte	51
 1099 00aa D1       		.byte	-47
 1100 00ab 8F       		.byte	-113
 1101 00ac 0C       		.byte	12
 1102 00ad 52       		.byte	82
 1103 00ae B0       		.byte	-80
 1104 00af EE       		.byte	-18
 1105 00b0 32       		.byte	50
 1106 00b1 6C       		.byte	108
 1107 00b2 8E       		.byte	-114
 1108 00b3 D0       		.byte	-48
 1109 00b4 53       		.byte	83
 1110 00b5 0D       		.byte	13
 1111 00b6 EF       		.byte	-17
 1112 00b7 B1       		.byte	-79
ARM GAS  C:\Users\scott\AppData\Local\Temp\cciDeN7R.s 			page 26


 1113 00b8 F0       		.byte	-16
 1114 00b9 AE       		.byte	-82
 1115 00ba 4C       		.byte	76
 1116 00bb 12       		.byte	18
 1117 00bc 91       		.byte	-111
 1118 00bd CF       		.byte	-49
 1119 00be 2D       		.byte	45
 1120 00bf 73       		.byte	115
 1121 00c0 CA       		.byte	-54
 1122 00c1 94       		.byte	-108
 1123 00c2 76       		.byte	118
 1124 00c3 28       		.byte	40
 1125 00c4 AB       		.byte	-85
 1126 00c5 F5       		.byte	-11
 1127 00c6 17       		.byte	23
 1128 00c7 49       		.byte	73
 1129 00c8 08       		.byte	8
 1130 00c9 56       		.byte	86
 1131 00ca B4       		.byte	-76
 1132 00cb EA       		.byte	-22
 1133 00cc 69       		.byte	105
 1134 00cd 37       		.byte	55
 1135 00ce D5       		.byte	-43
 1136 00cf 8B       		.byte	-117
 1137 00d0 57       		.byte	87
 1138 00d1 09       		.byte	9
 1139 00d2 EB       		.byte	-21
 1140 00d3 B5       		.byte	-75
 1141 00d4 36       		.byte	54
 1142 00d5 68       		.byte	104
 1143 00d6 8A       		.byte	-118
 1144 00d7 D4       		.byte	-44
 1145 00d8 95       		.byte	-107
 1146 00d9 CB       		.byte	-53
 1147 00da 29       		.byte	41
 1148 00db 77       		.byte	119
 1149 00dc F4       		.byte	-12
 1150 00dd AA       		.byte	-86
 1151 00de 48       		.byte	72
 1152 00df 16       		.byte	22
 1153 00e0 E9       		.byte	-23
 1154 00e1 B7       		.byte	-73
 1155 00e2 55       		.byte	85
 1156 00e3 0B       		.byte	11
 1157 00e4 88       		.byte	-120
 1158 00e5 D6       		.byte	-42
 1159 00e6 34       		.byte	52
 1160 00e7 6A       		.byte	106
 1161 00e8 2B       		.byte	43
 1162 00e9 75       		.byte	117
 1163 00ea 97       		.byte	-105
 1164 00eb C9       		.byte	-55
 1165 00ec 4A       		.byte	74
 1166 00ed 14       		.byte	20
 1167 00ee F6       		.byte	-10
 1168 00ef A8       		.byte	-88
 1169 00f0 74       		.byte	116
ARM GAS  C:\Users\scott\AppData\Local\Temp\cciDeN7R.s 			page 27


 1170 00f1 2A       		.byte	42
 1171 00f2 C8       		.byte	-56
 1172 00f3 96       		.byte	-106
 1173 00f4 15       		.byte	21
 1174 00f5 4B       		.byte	75
 1175 00f6 A9       		.byte	-87
 1176 00f7 F7       		.byte	-9
 1177 00f8 B6       		.byte	-74
 1178 00f9 E8       		.byte	-24
 1179 00fa 0A       		.byte	10
 1180 00fb 54       		.byte	84
 1181 00fc D7       		.byte	-41
 1182 00fd 89       		.byte	-119
 1183 00fe 6B       		.byte	107
 1184 00ff 35       		.byte	53
 1185              		.bss
 1186              		.set	.LANCHOR1,. + 0
 1187              		.type	one_wire_device_count, %object
 1188              		.size	one_wire_device_count, 1
 1189              	one_wire_device_count:
 1190 0000 00       		.space	1
 1191              		.text
 1192              	.Letext0:
 1193              		.file 2 "c:\\program files (x86)\\cypress\\psoc creator\\4.2\\psoc creator\\import\\gnu\\arm\\5.4.
 1194              		.file 3 "c:\\program files (x86)\\cypress\\psoc creator\\4.2\\psoc creator\\import\\gnu\\arm\\5.4.
 1195              		.file 4 "..\\one_wire.h"
 1196              		.file 5 "Generated_Source\\PSoC5/core_cm3.h"
 1197              		.file 6 "Generated_Source\\PSoC5/Wire1.h"
 1198              		.file 7 "Generated_Source\\PSoC5/CyLib.h"