ARM GAS  C:\Users\scott\AppData\Local\Temp\cciBmnUj.s 			page 1


   1              		.syntax unified
   2              		.cpu cortex-m3
   3              		.fpu softvfp
   4              		.eabi_attribute 20, 1
   5              		.eabi_attribute 21, 1
   6              		.eabi_attribute 23, 3
   7              		.eabi_attribute 24, 1
   8              		.eabi_attribute 25, 1
   9              		.eabi_attribute 26, 1
  10              		.eabi_attribute 30, 1
  11              		.eabi_attribute 34, 1
  12              		.eabi_attribute 18, 4
  13              		.thumb
  14              		.syntax unified
  15              		.file	"PSI.c"
  16              		.text
  17              	.Ltext0:
  18              		.cfi_sections	.debug_frame
  19              		.section	.text.PSI_GainCompensation,"ax",%progbits
  20              		.align	2
  21              		.thumb
  22              		.thumb_func
  23              		.type	PSI_GainCompensation, %function
  24              	PSI_GainCompensation:
  25              	.LFB21:
  26              		.file 1 "Generated_Source\\PSoC5\\PSI.c"
   1:Generated_Source\PSoC5/PSI.c **** /*******************************************************************************
   2:Generated_Source\PSoC5/PSI.c **** * File Name: PSI.c
   3:Generated_Source\PSoC5/PSI.c **** * Version 3.30
   4:Generated_Source\PSoC5/PSI.c **** *
   5:Generated_Source\PSoC5/PSI.c **** * Description:
   6:Generated_Source\PSoC5/PSI.c **** *  This file provides the source code to the API for the Delta-Sigma ADC
   7:Generated_Source\PSoC5/PSI.c **** *  Component.
   8:Generated_Source\PSoC5/PSI.c **** *
   9:Generated_Source\PSoC5/PSI.c **** * Note:
  10:Generated_Source\PSoC5/PSI.c **** *
  11:Generated_Source\PSoC5/PSI.c **** ********************************************************************************
  12:Generated_Source\PSoC5/PSI.c **** * Copyright 2008-2017, Cypress Semiconductor Corporation.  All rights reserved.
  13:Generated_Source\PSoC5/PSI.c **** * You may use this file only in accordance with the license, terms, conditions,
  14:Generated_Source\PSoC5/PSI.c **** * disclaimers, and limitations in the end user license agreement accompanying
  15:Generated_Source\PSoC5/PSI.c **** * the software package with which this file was provided.
  16:Generated_Source\PSoC5/PSI.c **** *******************************************************************************/
  17:Generated_Source\PSoC5/PSI.c **** 
  18:Generated_Source\PSoC5/PSI.c **** #include "PSI.h"
  19:Generated_Source\PSoC5/PSI.c **** 
  20:Generated_Source\PSoC5/PSI.c **** #if(PSI_DEFAULT_INTERNAL_CLK)
  21:Generated_Source\PSoC5/PSI.c ****     #include "PSI_theACLK.h"
  22:Generated_Source\PSoC5/PSI.c **** #endif /* PSI_DEFAULT_INTERNAL_CLK */
  23:Generated_Source\PSoC5/PSI.c **** 
  24:Generated_Source\PSoC5/PSI.c **** #include "PSI_Ext_CP_Clk.h"
  25:Generated_Source\PSoC5/PSI.c **** 
  26:Generated_Source\PSoC5/PSI.c **** #if(PSI_DEFAULT_INPUT_MODE)
  27:Generated_Source\PSoC5/PSI.c ****     #include "PSI_AMux.h"
  28:Generated_Source\PSoC5/PSI.c **** #endif /* PSI_DEFAULT_INPUT_MODE */
  29:Generated_Source\PSoC5/PSI.c **** 
  30:Generated_Source\PSoC5/PSI.c **** 
  31:Generated_Source\PSoC5/PSI.c **** /***************************************
ARM GAS  C:\Users\scott\AppData\Local\Temp\cciBmnUj.s 			page 2


  32:Generated_Source\PSoC5/PSI.c **** * Global data allocation
  33:Generated_Source\PSoC5/PSI.c **** ***************************************/
  34:Generated_Source\PSoC5/PSI.c **** 
  35:Generated_Source\PSoC5/PSI.c **** /* Software flag for checking conversion completed or not */
  36:Generated_Source\PSoC5/PSI.c **** volatile uint8 PSI_convDone = 0u;
  37:Generated_Source\PSoC5/PSI.c **** 
  38:Generated_Source\PSoC5/PSI.c **** /* Software flag to stop conversion for single sample conversion mode
  39:Generated_Source\PSoC5/PSI.c **** *   with resolution above 16 bits 
  40:Generated_Source\PSoC5/PSI.c **** */
  41:Generated_Source\PSoC5/PSI.c **** volatile uint8 PSI_stopConversion = 0u;
  42:Generated_Source\PSoC5/PSI.c **** 
  43:Generated_Source\PSoC5/PSI.c **** /* To run the initialization block only at the start up */
  44:Generated_Source\PSoC5/PSI.c **** uint8 PSI_initVar = 0u;
  45:Generated_Source\PSoC5/PSI.c **** 
  46:Generated_Source\PSoC5/PSI.c **** /* To check whether ADC started or not before switching the configuration */
  47:Generated_Source\PSoC5/PSI.c **** volatile uint8 PSI_started = 0u;
  48:Generated_Source\PSoC5/PSI.c **** 
  49:Generated_Source\PSoC5/PSI.c **** /* Flag to hold ADC config number. By default active config is 1. */
  50:Generated_Source\PSoC5/PSI.c **** volatile uint8 PSI_Config = 1u;
  51:Generated_Source\PSoC5/PSI.c **** 
  52:Generated_Source\PSoC5/PSI.c **** volatile int32 PSI_Offset = 0;
  53:Generated_Source\PSoC5/PSI.c **** volatile int32 PSI_CountsPerVolt;
  54:Generated_Source\PSoC5/PSI.c **** 
  55:Generated_Source\PSoC5/PSI.c **** 
  56:Generated_Source\PSoC5/PSI.c **** /***************************************
  57:Generated_Source\PSoC5/PSI.c **** * Local data allocation
  58:Generated_Source\PSoC5/PSI.c **** ***************************************/
  59:Generated_Source\PSoC5/PSI.c **** 
  60:Generated_Source\PSoC5/PSI.c **** /* The array with precalculated gain compensation coefficients */
  61:Generated_Source\PSoC5/PSI.c **** static PSI_GCOR_STRUCT PSI_gcor[PSI_DEFAULT_NUM_CONFIGS];
  62:Generated_Source\PSoC5/PSI.c **** 
  63:Generated_Source\PSoC5/PSI.c **** 
  64:Generated_Source\PSoC5/PSI.c **** 
  65:Generated_Source\PSoC5/PSI.c **** /***************************************
  66:Generated_Source\PSoC5/PSI.c **** * Forward function references
  67:Generated_Source\PSoC5/PSI.c **** ***************************************/
  68:Generated_Source\PSoC5/PSI.c **** static void PSI_InitConfig(uint8 config) ;
  69:Generated_Source\PSoC5/PSI.c **** static void PSI_GainCompensation(uint8 inputRange, uint16 idealDecGain, uint16 idealOddDecGain, 
  70:Generated_Source\PSoC5/PSI.c ****                             uint8 resolution, uint8 config) ;
  71:Generated_Source\PSoC5/PSI.c **** static void PSI_SetDSMRef0Reg(uint8 value) ;
  72:Generated_Source\PSoC5/PSI.c **** 
  73:Generated_Source\PSoC5/PSI.c **** 
  74:Generated_Source\PSoC5/PSI.c **** /******************************************************************************
  75:Generated_Source\PSoC5/PSI.c **** * Function Name: PSI_Init
  76:Generated_Source\PSoC5/PSI.c **** *******************************************************************************
  77:Generated_Source\PSoC5/PSI.c **** *
  78:Generated_Source\PSoC5/PSI.c **** * Summary:
  79:Generated_Source\PSoC5/PSI.c **** *  Initialize component's parameters to the parameters set by user in the
  80:Generated_Source\PSoC5/PSI.c **** *  customizer of the component placed onto schematic. Usually called in
  81:Generated_Source\PSoC5/PSI.c **** * PSI_Start().
  82:Generated_Source\PSoC5/PSI.c **** *
  83:Generated_Source\PSoC5/PSI.c **** *
  84:Generated_Source\PSoC5/PSI.c **** * Parameters:
  85:Generated_Source\PSoC5/PSI.c **** *  None
  86:Generated_Source\PSoC5/PSI.c **** *
  87:Generated_Source\PSoC5/PSI.c **** * Return:
  88:Generated_Source\PSoC5/PSI.c **** *  None
ARM GAS  C:\Users\scott\AppData\Local\Temp\cciBmnUj.s 			page 3


  89:Generated_Source\PSoC5/PSI.c **** *
  90:Generated_Source\PSoC5/PSI.c **** *******************************************************************************/
  91:Generated_Source\PSoC5/PSI.c **** void PSI_Init(void) 
  92:Generated_Source\PSoC5/PSI.c **** {
  93:Generated_Source\PSoC5/PSI.c **** 
  94:Generated_Source\PSoC5/PSI.c ****     PSI_Config = 1u;
  95:Generated_Source\PSoC5/PSI.c ****     PSI_convDone = 0u;
  96:Generated_Source\PSoC5/PSI.c **** 
  97:Generated_Source\PSoC5/PSI.c ****     PSI_Ext_CP_Clk_SetMode(CYCLK_DUTY);
  98:Generated_Source\PSoC5/PSI.c **** 
  99:Generated_Source\PSoC5/PSI.c ****     /* This is only valid if there is an internal clock */
 100:Generated_Source\PSoC5/PSI.c ****     #if(PSI_DEFAULT_INTERNAL_CLK)
 101:Generated_Source\PSoC5/PSI.c ****         PSI_theACLK_SetMode(CYCLK_DUTY);
 102:Generated_Source\PSoC5/PSI.c ****     #endif /* PSI_DEFAULT_INTERNAL_CLK */
 103:Generated_Source\PSoC5/PSI.c **** 
 104:Generated_Source\PSoC5/PSI.c ****     #if(PSI_IRQ_REMOVE == 0u)
 105:Generated_Source\PSoC5/PSI.c ****         /* Set interrupt priority */
 106:Generated_Source\PSoC5/PSI.c ****         CyIntSetPriority(PSI_INTC_NUMBER, PSI_INTC_PRIOR_NUMBER);
 107:Generated_Source\PSoC5/PSI.c ****     #endif   /* End PSI_IRQ_REMOVE */
 108:Generated_Source\PSoC5/PSI.c **** 
 109:Generated_Source\PSoC5/PSI.c ****     /* Init static registers with common configuration */
 110:Generated_Source\PSoC5/PSI.c ****     PSI_DSM_DEM0_REG    = PSI_CFG1_DSM_DEM0;
 111:Generated_Source\PSoC5/PSI.c ****     PSI_DSM_DEM1_REG    = PSI_CFG1_DSM_DEM1;
 112:Generated_Source\PSoC5/PSI.c ****     PSI_DSM_MISC_REG    = PSI_CFG1_DSM_MISC;
 113:Generated_Source\PSoC5/PSI.c ****     PSI_DSM_CLK_REG    |= PSI_CFG1_DSM_CLK;
 114:Generated_Source\PSoC5/PSI.c ****     PSI_DSM_REF1_REG    = PSI_CFG1_DSM_REF1;
 115:Generated_Source\PSoC5/PSI.c **** 
 116:Generated_Source\PSoC5/PSI.c ****     PSI_DSM_OUT0_REG    = PSI_CFG1_DSM_OUT0;
 117:Generated_Source\PSoC5/PSI.c ****     PSI_DSM_OUT1_REG    = PSI_CFG1_DSM_OUT1;
 118:Generated_Source\PSoC5/PSI.c **** 
 119:Generated_Source\PSoC5/PSI.c ****     PSI_DSM_CR0_REG     = PSI_CFG1_DSM_CR0;
 120:Generated_Source\PSoC5/PSI.c ****     PSI_DSM_CR1_REG     = PSI_CFG1_DSM_CR1;
 121:Generated_Source\PSoC5/PSI.c **** #if(PSI_MI_ENABLE != 0u) /* Enable Modulator Input */
 122:Generated_Source\PSoC5/PSI.c ****     PSI_DSM_CR3_REG     |= PSI_DSM_MODBIT_EN;
 123:Generated_Source\PSoC5/PSI.c **** #else
 124:Generated_Source\PSoC5/PSI.c ****     PSI_DSM_CR3_REG     = PSI_CFG1_DSM_CR3;
 125:Generated_Source\PSoC5/PSI.c **** #endif /* PSI_MI_ENABLE != 0u*/    
 126:Generated_Source\PSoC5/PSI.c ****     PSI_DSM_CR8_REG     = PSI_CFG1_DSM_CR8;
 127:Generated_Source\PSoC5/PSI.c ****     PSI_DSM_CR9_REG     = PSI_CFG1_DSM_CR9;
 128:Generated_Source\PSoC5/PSI.c ****     PSI_DSM_CR13_REG    = PSI_CFG1_DSM_CR13;
 129:Generated_Source\PSoC5/PSI.c **** 
 130:Generated_Source\PSoC5/PSI.c ****     PSI_DEC_SR_REG      = PSI_CFG1_DEC_SR;
 131:Generated_Source\PSoC5/PSI.c **** 
 132:Generated_Source\PSoC5/PSI.c ****     /* Calculate Gain compensation coefficients for all configurations */
 133:Generated_Source\PSoC5/PSI.c ****     PSI_GainCompensation(PSI_CFG1_INPUT_RANGE,
 134:Generated_Source\PSoC5/PSI.c ****                                       PSI_CFG1_IDEAL_DEC_GAIN,
 135:Generated_Source\PSoC5/PSI.c ****                                       PSI_CFG1_IDEAL_ODDDEC_GAIN,
 136:Generated_Source\PSoC5/PSI.c ****                                       PSI_CFG1_RESOLUTION,
 137:Generated_Source\PSoC5/PSI.c ****                                       PSI_CFG1);
 138:Generated_Source\PSoC5/PSI.c ****     #if(PSI_DEFAULT_NUM_CONFIGS > 1)
 139:Generated_Source\PSoC5/PSI.c ****         PSI_GainCompensation(PSI_CFG2_INPUT_RANGE,
 140:Generated_Source\PSoC5/PSI.c ****                                           PSI_CFG2_IDEAL_DEC_GAIN,
 141:Generated_Source\PSoC5/PSI.c ****                                           PSI_CFG2_IDEAL_ODDDEC_GAIN,
 142:Generated_Source\PSoC5/PSI.c ****                                           PSI_CFG2_RESOLUTION,
 143:Generated_Source\PSoC5/PSI.c ****                                           PSI_CFG2);
 144:Generated_Source\PSoC5/PSI.c ****     #endif /* PSI_DEFAULT_NUM_CONFIGS > 1 */
 145:Generated_Source\PSoC5/PSI.c ****     #if(PSI_DEFAULT_NUM_CONFIGS > 2)
ARM GAS  C:\Users\scott\AppData\Local\Temp\cciBmnUj.s 			page 4


 146:Generated_Source\PSoC5/PSI.c ****         PSI_GainCompensation(PSI_CFG3_INPUT_RANGE,
 147:Generated_Source\PSoC5/PSI.c ****                                           PSI_CFG3_IDEAL_DEC_GAIN,
 148:Generated_Source\PSoC5/PSI.c ****                                           PSI_CFG3_IDEAL_ODDDEC_GAIN,
 149:Generated_Source\PSoC5/PSI.c ****                                           PSI_CFG3_RESOLUTION,
 150:Generated_Source\PSoC5/PSI.c ****                                           PSI_CFG3);
 151:Generated_Source\PSoC5/PSI.c ****     #endif /* PSI_DEFAULT_NUM_CONFIGS > 2 */
 152:Generated_Source\PSoC5/PSI.c ****     #if(PSI_DEFAULT_NUM_CONFIGS > 3)
 153:Generated_Source\PSoC5/PSI.c ****         PSI_GainCompensation(PSI_CFG4_INPUT_RANGE,
 154:Generated_Source\PSoC5/PSI.c ****                                           PSI_CFG4_IDEAL_DEC_GAIN,
 155:Generated_Source\PSoC5/PSI.c ****                                           PSI_CFG4_IDEAL_ODDDEC_GAIN,
 156:Generated_Source\PSoC5/PSI.c ****                                           PSI_CFG4_RESOLUTION,
 157:Generated_Source\PSoC5/PSI.c ****                                           PSI_CFG4);
 158:Generated_Source\PSoC5/PSI.c ****     #endif /* PSI_DEFAULT_NUM_CONFIGS > 3 */
 159:Generated_Source\PSoC5/PSI.c **** 
 160:Generated_Source\PSoC5/PSI.c ****     /* Set GCOR register for config1 */
 161:Generated_Source\PSoC5/PSI.c ****     PSI_DEC_GVAL_REG = PSI_gcor[PSI_Config - 1u].gval;
 162:Generated_Source\PSoC5/PSI.c ****     CY_SET_REG16(PSI_DEC_GCOR_16B_PTR, PSI_gcor[PSI_Config - 1u].gcor);
 163:Generated_Source\PSoC5/PSI.c **** 
 164:Generated_Source\PSoC5/PSI.c ****     /* Initialize the registers with default customizer settings for config1 */
 165:Generated_Source\PSoC5/PSI.c ****     PSI_InitConfig(PSI_Config);
 166:Generated_Source\PSoC5/PSI.c **** }
 167:Generated_Source\PSoC5/PSI.c **** 
 168:Generated_Source\PSoC5/PSI.c **** 
 169:Generated_Source\PSoC5/PSI.c **** /******************************************************************************
 170:Generated_Source\PSoC5/PSI.c **** * Function Name: PSI_Enable
 171:Generated_Source\PSoC5/PSI.c **** *******************************************************************************
 172:Generated_Source\PSoC5/PSI.c **** *
 173:Generated_Source\PSoC5/PSI.c **** * Summary:
 174:Generated_Source\PSoC5/PSI.c **** *  Enables the ADC DelSig block operation.
 175:Generated_Source\PSoC5/PSI.c **** *
 176:Generated_Source\PSoC5/PSI.c **** * Parameters:
 177:Generated_Source\PSoC5/PSI.c **** *  None
 178:Generated_Source\PSoC5/PSI.c **** *
 179:Generated_Source\PSoC5/PSI.c **** * Return:
 180:Generated_Source\PSoC5/PSI.c **** *  None
 181:Generated_Source\PSoC5/PSI.c **** *
 182:Generated_Source\PSoC5/PSI.c **** * Side Effects: 
 183:Generated_Source\PSoC5/PSI.c **** *  Enables internal interrupt.
 184:Generated_Source\PSoC5/PSI.c **** *
 185:Generated_Source\PSoC5/PSI.c **** *******************************************************************************/
 186:Generated_Source\PSoC5/PSI.c **** void PSI_Enable(void) 
 187:Generated_Source\PSoC5/PSI.c **** {
 188:Generated_Source\PSoC5/PSI.c **** 	uint8 config;
 189:Generated_Source\PSoC5/PSI.c ****     uint8 enableInterrupts;
 190:Generated_Source\PSoC5/PSI.c ****     enableInterrupts = CyEnterCriticalSection();
 191:Generated_Source\PSoC5/PSI.c **** 
 192:Generated_Source\PSoC5/PSI.c ****     /* Read volatile variable to the local variable */
 193:Generated_Source\PSoC5/PSI.c ****     config = PSI_Config;
 194:Generated_Source\PSoC5/PSI.c ****     
 195:Generated_Source\PSoC5/PSI.c ****     /* Enable active mode power for ADC */
 196:Generated_Source\PSoC5/PSI.c ****     PSI_PWRMGR_DEC_REG |= PSI_ACT_PWR_DEC_EN;
 197:Generated_Source\PSoC5/PSI.c ****     PSI_PWRMGR_DSM_REG |= PSI_ACT_PWR_DSM_EN;
 198:Generated_Source\PSoC5/PSI.c **** 
 199:Generated_Source\PSoC5/PSI.c ****      /* Enable alternative active mode power for ADC */
 200:Generated_Source\PSoC5/PSI.c ****     PSI_STBY_PWRMGR_DEC_REG |= PSI_STBY_PWR_DEC_EN;
 201:Generated_Source\PSoC5/PSI.c ****     PSI_STBY_PWRMGR_DSM_REG |= PSI_STBY_PWR_DSM_EN;
 202:Generated_Source\PSoC5/PSI.c **** 
ARM GAS  C:\Users\scott\AppData\Local\Temp\cciBmnUj.s 			page 5


 203:Generated_Source\PSoC5/PSI.c ****     /* Disable PRES, Enable power to VCMBUF0, REFBUF0 and REFBUF1, enable PRES */
 204:Generated_Source\PSoC5/PSI.c ****     PSI_RESET_CR4_REG |= PSI_IGNORE_PRESA1;
 205:Generated_Source\PSoC5/PSI.c ****     PSI_RESET_CR5_REG |= PSI_IGNORE_PRESA2;
 206:Generated_Source\PSoC5/PSI.c **** 
 207:Generated_Source\PSoC5/PSI.c ****     PSI_DSM_CR17_REG |= (PSI_DSM_EN_BUF_VREF | PSI_DSM_EN_BUF_VCM);
 208:Generated_Source\PSoC5/PSI.c **** 
 209:Generated_Source\PSoC5/PSI.c ****     /* Code to disable the REFBUF0 if reference chosen is External ref */
 210:Generated_Source\PSoC5/PSI.c ****     #if (((PSI_CFG1_REFERENCE == PSI_EXT_REF_ON_P03) || \
 211:Generated_Source\PSoC5/PSI.c ****           (PSI_CFG1_REFERENCE == PSI_EXT_REF_ON_P32)) || \
 212:Generated_Source\PSoC5/PSI.c ****          ((PSI_DEFAULT_NUM_CONFIGS > 1) && \
 213:Generated_Source\PSoC5/PSI.c ****           ((PSI_CFG2_REFERENCE == PSI_EXT_REF_ON_P03) ||  \
 214:Generated_Source\PSoC5/PSI.c ****            (PSI_CFG2_REFERENCE == PSI_EXT_REF_ON_P32))) || \
 215:Generated_Source\PSoC5/PSI.c ****          ((PSI_DEFAULT_NUM_CONFIGS > 2) && \
 216:Generated_Source\PSoC5/PSI.c ****           ((PSI_CFG3_REFERENCE == PSI_EXT_REF_ON_P03) ||  \
 217:Generated_Source\PSoC5/PSI.c ****            (PSI_CFG3_REFERENCE == PSI_EXT_REF_ON_P32))) || \
 218:Generated_Source\PSoC5/PSI.c ****          ((PSI_DEFAULT_NUM_CONFIGS > 3) && \
 219:Generated_Source\PSoC5/PSI.c ****           ((PSI_CFG4_REFERENCE == PSI_EXT_REF_ON_P03) || \
 220:Generated_Source\PSoC5/PSI.c ****            (PSI_CFG4_REFERENCE == PSI_EXT_REF_ON_P32))))
 221:Generated_Source\PSoC5/PSI.c ****         if (((config == 1u) &&
 222:Generated_Source\PSoC5/PSI.c ****             ((PSI_CFG1_REFERENCE == PSI_EXT_REF_ON_P03) ||
 223:Generated_Source\PSoC5/PSI.c ****              (PSI_CFG1_REFERENCE == PSI_EXT_REF_ON_P32))) ||
 224:Generated_Source\PSoC5/PSI.c ****             ((config == 2u) &&
 225:Generated_Source\PSoC5/PSI.c ****             ((PSI_CFG2_REFERENCE == PSI_EXT_REF_ON_P03) ||
 226:Generated_Source\PSoC5/PSI.c ****              (PSI_CFG2_REFERENCE == PSI_EXT_REF_ON_P32))) ||
 227:Generated_Source\PSoC5/PSI.c ****             ((config == 3u) &&
 228:Generated_Source\PSoC5/PSI.c ****             ((PSI_CFG3_REFERENCE == PSI_EXT_REF_ON_P03) ||
 229:Generated_Source\PSoC5/PSI.c ****              (PSI_CFG3_REFERENCE == PSI_EXT_REF_ON_P32))) ||
 230:Generated_Source\PSoC5/PSI.c ****             ((config == 4u) &&
 231:Generated_Source\PSoC5/PSI.c ****             ((PSI_CFG4_REFERENCE == PSI_EXT_REF_ON_P03) ||
 232:Generated_Source\PSoC5/PSI.c ****              (PSI_CFG4_REFERENCE == PSI_EXT_REF_ON_P32))))
 233:Generated_Source\PSoC5/PSI.c ****         {
 234:Generated_Source\PSoC5/PSI.c ****             /* Disable the REFBUF0 */
 235:Generated_Source\PSoC5/PSI.c ****             PSI_DSM_CR17_REG &= (uint8)~PSI_DSM_EN_BUF_VREF;
 236:Generated_Source\PSoC5/PSI.c ****         }
 237:Generated_Source\PSoC5/PSI.c ****     #endif /* External ref */
 238:Generated_Source\PSoC5/PSI.c **** 
 239:Generated_Source\PSoC5/PSI.c ****     #if (((PSI_CFG1_INPUT_RANGE == PSI_IR_VSSA_TO_2VREF) || \
 240:Generated_Source\PSoC5/PSI.c ****          ((PSI_DEFAULT_NUM_CONFIGS > 1) && \
 241:Generated_Source\PSoC5/PSI.c ****           (PSI_CFG2_INPUT_RANGE == PSI_IR_VSSA_TO_2VREF)) || \
 242:Generated_Source\PSoC5/PSI.c ****          ((PSI_DEFAULT_NUM_CONFIGS > 2) && \
 243:Generated_Source\PSoC5/PSI.c ****           (PSI_CFG3_INPUT_RANGE == PSI_IR_VSSA_TO_2VREF)) || \
 244:Generated_Source\PSoC5/PSI.c ****          ((PSI_DEFAULT_NUM_CONFIGS > 3) && \
 245:Generated_Source\PSoC5/PSI.c ****           (PSI_CFG4_INPUT_RANGE == PSI_IR_VSSA_TO_2VREF))))
 246:Generated_Source\PSoC5/PSI.c ****         if(((config == 1u) &&
 247:Generated_Source\PSoC5/PSI.c ****             (PSI_CFG1_INPUT_RANGE == PSI_IR_VSSA_TO_2VREF) &&
 248:Generated_Source\PSoC5/PSI.c ****             ((PSI_CFG1_REFERENCE != PSI_EXT_REF_ON_P03) &&
 249:Generated_Source\PSoC5/PSI.c ****              (PSI_CFG1_REFERENCE != PSI_EXT_REF_ON_P32))) ||
 250:Generated_Source\PSoC5/PSI.c ****              ((config == 2u) &&
 251:Generated_Source\PSoC5/PSI.c ****               (PSI_CFG2_INPUT_RANGE == PSI_IR_VSSA_TO_2VREF) &&
 252:Generated_Source\PSoC5/PSI.c ****              ((PSI_CFG2_REFERENCE != PSI_EXT_REF_ON_P03) &&
 253:Generated_Source\PSoC5/PSI.c ****              (PSI_CFG2_REFERENCE != PSI_EXT_REF_ON_P32))) ||
 254:Generated_Source\PSoC5/PSI.c ****              ((config == 3u) &&
 255:Generated_Source\PSoC5/PSI.c ****               (PSI_CFG3_INPUT_RANGE == PSI_IR_VSSA_TO_2VREF) &&
 256:Generated_Source\PSoC5/PSI.c ****              ((PSI_CFG3_REFERENCE != PSI_EXT_REF_ON_P03) &&
 257:Generated_Source\PSoC5/PSI.c ****              (PSI_CFG3_REFERENCE != PSI_EXT_REF_ON_P32))) ||
 258:Generated_Source\PSoC5/PSI.c ****              ((config == 4u) &&
 259:Generated_Source\PSoC5/PSI.c ****               (PSI_CFG4_INPUT_RANGE == PSI_IR_VSSA_TO_2VREF) &&
ARM GAS  C:\Users\scott\AppData\Local\Temp\cciBmnUj.s 			page 6


 260:Generated_Source\PSoC5/PSI.c ****              ((PSI_CFG4_REFERENCE != PSI_EXT_REF_ON_P03) &&
 261:Generated_Source\PSoC5/PSI.c ****              (PSI_CFG4_REFERENCE != PSI_EXT_REF_ON_P32))))
 262:Generated_Source\PSoC5/PSI.c ****         {
 263:Generated_Source\PSoC5/PSI.c ****             /* Enable the REFBUF1 */
 264:Generated_Source\PSoC5/PSI.c ****             PSI_DSM_REF0_REG |= PSI_DSM_EN_BUF_VREF_INN;
 265:Generated_Source\PSoC5/PSI.c ****         }
 266:Generated_Source\PSoC5/PSI.c ****     #endif /* VSSA_TO_2VREF */
 267:Generated_Source\PSoC5/PSI.c ****     if(config != 0u)
 268:Generated_Source\PSoC5/PSI.c ****     {
 269:Generated_Source\PSoC5/PSI.c ****         /* Suppress compiler warning */
 270:Generated_Source\PSoC5/PSI.c ****     }
 271:Generated_Source\PSoC5/PSI.c **** 
 272:Generated_Source\PSoC5/PSI.c ****     /* Wait for 3 microseconds */
 273:Generated_Source\PSoC5/PSI.c ****     CyDelayUs(PSI_PRES_DELAY_TIME);
 274:Generated_Source\PSoC5/PSI.c **** 
 275:Generated_Source\PSoC5/PSI.c ****     /* Enable the press circuit */
 276:Generated_Source\PSoC5/PSI.c ****     PSI_RESET_CR4_REG &= (uint8)~PSI_IGNORE_PRESA1;
 277:Generated_Source\PSoC5/PSI.c ****     PSI_RESET_CR5_REG &= (uint8)~PSI_IGNORE_PRESA2;
 278:Generated_Source\PSoC5/PSI.c **** 
 279:Generated_Source\PSoC5/PSI.c ****     /* Enable negative pumps for DSM  */
 280:Generated_Source\PSoC5/PSI.c ****     PSI_PUMP_CR1_REG  |= ( PSI_PUMP_CR1_CLKSEL | PSI_PUMP_CR1_FORCE );
 281:Generated_Source\PSoC5/PSI.c **** 
 282:Generated_Source\PSoC5/PSI.c ****     /* Enable Modulator Chopping if required */
 283:Generated_Source\PSoC5/PSI.c ****     PSI_DSM_CR2_REG = PSI_CFG1_DSM_CR2;
 284:Generated_Source\PSoC5/PSI.c **** 
 285:Generated_Source\PSoC5/PSI.c ****     /* This is only valid if there is an internal clock */
 286:Generated_Source\PSoC5/PSI.c ****     #if(PSI_DEFAULT_INTERNAL_CLK)
 287:Generated_Source\PSoC5/PSI.c ****         PSI_PWRMGR_CLK_REG |= PSI_ACT_PWR_CLK_EN;
 288:Generated_Source\PSoC5/PSI.c ****         PSI_STBY_PWRMGR_CLK_REG |= PSI_STBY_PWR_CLK_EN;
 289:Generated_Source\PSoC5/PSI.c ****     #endif /* PSI_DEFAULT_INTERNAL_CLK */
 290:Generated_Source\PSoC5/PSI.c **** 
 291:Generated_Source\PSoC5/PSI.c ****     /* Enable the active and alternate active power for charge pump clock */
 292:Generated_Source\PSoC5/PSI.c ****     PSI_PWRMGR_CHARGE_PUMP_CLK_REG |= PSI_ACT_PWR_CHARGE_PUMP_CLK_EN;
 293:Generated_Source\PSoC5/PSI.c ****     PSI_STBY_PWRMGR_CHARGE_PUMP_CLK_REG |= PSI_STBY_PWR_CHARGE_PUMP_CLK_EN;
 294:Generated_Source\PSoC5/PSI.c **** 
 295:Generated_Source\PSoC5/PSI.c ****     #if(PSI_IRQ_REMOVE == 0u)
 296:Generated_Source\PSoC5/PSI.c ****         /* Clear a pending interrupt */
 297:Generated_Source\PSoC5/PSI.c ****         CyIntClearPending(PSI_INTC_NUMBER);
 298:Generated_Source\PSoC5/PSI.c ****         /* Enable interrupt */
 299:Generated_Source\PSoC5/PSI.c ****         CyIntEnable(PSI_INTC_NUMBER);
 300:Generated_Source\PSoC5/PSI.c ****     #endif   /* End PSI_IRQ_REMOVE */
 301:Generated_Source\PSoC5/PSI.c **** 
 302:Generated_Source\PSoC5/PSI.c ****     CyExitCriticalSection(enableInterrupts);
 303:Generated_Source\PSoC5/PSI.c **** 
 304:Generated_Source\PSoC5/PSI.c **** }
 305:Generated_Source\PSoC5/PSI.c **** 
 306:Generated_Source\PSoC5/PSI.c **** 
 307:Generated_Source\PSoC5/PSI.c **** /*******************************************************************************
 308:Generated_Source\PSoC5/PSI.c **** * Function Name: PSI_Start
 309:Generated_Source\PSoC5/PSI.c **** ********************************************************************************
 310:Generated_Source\PSoC5/PSI.c **** *
 311:Generated_Source\PSoC5/PSI.c **** * Summary:
 312:Generated_Source\PSoC5/PSI.c **** *  Performs all required initialization for this component and enables
 313:Generated_Source\PSoC5/PSI.c **** *  the power. It configure all the register the first time it is called.
 314:Generated_Source\PSoC5/PSI.c **** *  Subsequent calls of the Start function only enable the ADC and turn
 315:Generated_Source\PSoC5/PSI.c **** *  on the power. If multiple configurations are selected, it will
 316:Generated_Source\PSoC5/PSI.c **** *  configure the ADC for configuration 1 by default, unless the
ARM GAS  C:\Users\scott\AppData\Local\Temp\cciBmnUj.s 			page 7


 317:Generated_Source\PSoC5/PSI.c **** *  PSI_SelectConfiguration( ) function has been called to change
 318:Generated_Source\PSoC5/PSI.c **** *  the default setting.
 319:Generated_Source\PSoC5/PSI.c **** *
 320:Generated_Source\PSoC5/PSI.c **** * Parameters:
 321:Generated_Source\PSoC5/PSI.c **** *  None
 322:Generated_Source\PSoC5/PSI.c **** *
 323:Generated_Source\PSoC5/PSI.c **** * Return:
 324:Generated_Source\PSoC5/PSI.c **** *  None
 325:Generated_Source\PSoC5/PSI.c **** *
 326:Generated_Source\PSoC5/PSI.c **** * Global variables:
 327:Generated_Source\PSoC5/PSI.c **** *  PSI_initVar:  Used to check the initial configuration,
 328:Generated_Source\PSoC5/PSI.c **** *  modified when this function is called for the first time.
 329:Generated_Source\PSoC5/PSI.c **** *
 330:Generated_Source\PSoC5/PSI.c **** * Side Effects: 
 331:Generated_Source\PSoC5/PSI.c **** *  Enables internal interrupt.
 332:Generated_Source\PSoC5/PSI.c **** *
 333:Generated_Source\PSoC5/PSI.c **** *******************************************************************************/
 334:Generated_Source\PSoC5/PSI.c **** void PSI_Start(void) 
 335:Generated_Source\PSoC5/PSI.c **** {
 336:Generated_Source\PSoC5/PSI.c ****     if(PSI_initVar == 0u)
 337:Generated_Source\PSoC5/PSI.c ****     {
 338:Generated_Source\PSoC5/PSI.c ****         if(PSI_started == 0u)
 339:Generated_Source\PSoC5/PSI.c ****         {
 340:Generated_Source\PSoC5/PSI.c ****             PSI_Init();
 341:Generated_Source\PSoC5/PSI.c ****         }
 342:Generated_Source\PSoC5/PSI.c ****         PSI_initVar = 1u;
 343:Generated_Source\PSoC5/PSI.c ****     }
 344:Generated_Source\PSoC5/PSI.c **** 
 345:Generated_Source\PSoC5/PSI.c ****     /* Enable the ADC */
 346:Generated_Source\PSoC5/PSI.c ****     PSI_Enable();
 347:Generated_Source\PSoC5/PSI.c **** }
 348:Generated_Source\PSoC5/PSI.c **** 
 349:Generated_Source\PSoC5/PSI.c **** 
 350:Generated_Source\PSoC5/PSI.c **** /*******************************************************************************
 351:Generated_Source\PSoC5/PSI.c **** * Function Name: PSI_Stop
 352:Generated_Source\PSoC5/PSI.c **** ********************************************************************************
 353:Generated_Source\PSoC5/PSI.c **** *
 354:Generated_Source\PSoC5/PSI.c **** * Summary:
 355:Generated_Source\PSoC5/PSI.c **** *  This function stops and powers down the ADC component and the internal
 356:Generated_Source\PSoC5/PSI.c **** *  clock if the external clock is not selected. If an external clock is
 357:Generated_Source\PSoC5/PSI.c **** *  used, it is up to the designer to power down the external clock it
 358:Generated_Source\PSoC5/PSI.c **** *  required.
 359:Generated_Source\PSoC5/PSI.c **** *
 360:Generated_Source\PSoC5/PSI.c **** * Parameters:
 361:Generated_Source\PSoC5/PSI.c **** *  None
 362:Generated_Source\PSoC5/PSI.c **** *
 363:Generated_Source\PSoC5/PSI.c **** * Return:
 364:Generated_Source\PSoC5/PSI.c **** *  None
 365:Generated_Source\PSoC5/PSI.c **** *
 366:Generated_Source\PSoC5/PSI.c **** *******************************************************************************/
 367:Generated_Source\PSoC5/PSI.c **** void PSI_Stop(void) 
 368:Generated_Source\PSoC5/PSI.c **** {
 369:Generated_Source\PSoC5/PSI.c ****     uint8 enableInterrupts;
 370:Generated_Source\PSoC5/PSI.c ****     enableInterrupts = CyEnterCriticalSection();
 371:Generated_Source\PSoC5/PSI.c **** 
 372:Generated_Source\PSoC5/PSI.c ****     /* Stop conversions */
 373:Generated_Source\PSoC5/PSI.c ****     PSI_DEC_CR_REG &= (uint8)~PSI_DEC_START_CONV;
ARM GAS  C:\Users\scott\AppData\Local\Temp\cciBmnUj.s 			page 8


 374:Generated_Source\PSoC5/PSI.c ****     PSI_DEC_SR_REG |=  PSI_DEC_INTR_CLEAR;
 375:Generated_Source\PSoC5/PSI.c **** 
 376:Generated_Source\PSoC5/PSI.c ****     /* Disable PRES, Disable power to VCMBUF0, REFBUF0 and REFBUF1,
 377:Generated_Source\PSoC5/PSI.c ****        enable PRES */
 378:Generated_Source\PSoC5/PSI.c ****     PSI_RESET_CR4_REG |= PSI_IGNORE_PRESA1;
 379:Generated_Source\PSoC5/PSI.c ****     PSI_RESET_CR5_REG |= PSI_IGNORE_PRESA2;
 380:Generated_Source\PSoC5/PSI.c **** 
 381:Generated_Source\PSoC5/PSI.c ****     PSI_DSM_CR17_REG &= (uint8)~(PSI_DSM_EN_BUF_VREF | PSI_DSM_EN_BUF_VCM);
 382:Generated_Source\PSoC5/PSI.c ****     PSI_DSM_REF0_REG &= (uint8)~PSI_DSM_EN_BUF_VREF_INN;
 383:Generated_Source\PSoC5/PSI.c **** 
 384:Generated_Source\PSoC5/PSI.c ****     /* Wait for 3 microseconds. */
 385:Generated_Source\PSoC5/PSI.c ****     CyDelayUs(PSI_PRES_DELAY_TIME);
 386:Generated_Source\PSoC5/PSI.c **** 
 387:Generated_Source\PSoC5/PSI.c ****     /* Enable the press circuit */
 388:Generated_Source\PSoC5/PSI.c ****     PSI_RESET_CR4_REG &= (uint8)~PSI_IGNORE_PRESA1;
 389:Generated_Source\PSoC5/PSI.c ****     PSI_RESET_CR5_REG &= (uint8)~PSI_IGNORE_PRESA2;
 390:Generated_Source\PSoC5/PSI.c **** 
 391:Generated_Source\PSoC5/PSI.c ****     /* Disable power to the ADC */
 392:Generated_Source\PSoC5/PSI.c ****     PSI_PWRMGR_DSM_REG &= (uint8)~PSI_ACT_PWR_DSM_EN;
 393:Generated_Source\PSoC5/PSI.c **** 
 394:Generated_Source\PSoC5/PSI.c ****     /* Disable power to Decimator block */
 395:Generated_Source\PSoC5/PSI.c ****     PSI_PWRMGR_DEC_REG &= (uint8)~PSI_ACT_PWR_DEC_EN;
 396:Generated_Source\PSoC5/PSI.c **** 
 397:Generated_Source\PSoC5/PSI.c ****     /* Disable alternative active power to the ADC */
 398:Generated_Source\PSoC5/PSI.c ****     PSI_STBY_PWRMGR_DEC_REG &= (uint8)~PSI_STBY_PWR_DEC_EN;
 399:Generated_Source\PSoC5/PSI.c ****     PSI_STBY_PWRMGR_DSM_REG &= (uint8)~PSI_STBY_PWR_DSM_EN;
 400:Generated_Source\PSoC5/PSI.c **** 
 401:Generated_Source\PSoC5/PSI.c ****    /* Disable negative pumps for DSM  */
 402:Generated_Source\PSoC5/PSI.c ****     PSI_PUMP_CR1_REG &= (uint8)~(PSI_PUMP_CR1_CLKSEL | PSI_PUMP_CR1_FORCE );
 403:Generated_Source\PSoC5/PSI.c **** 
 404:Generated_Source\PSoC5/PSI.c ****     /* This is only valid if there is an internal clock */
 405:Generated_Source\PSoC5/PSI.c ****     #if(PSI_DEFAULT_INTERNAL_CLK)
 406:Generated_Source\PSoC5/PSI.c ****         PSI_PWRMGR_CLK_REG &= (uint8)~PSI_ACT_PWR_CLK_EN;
 407:Generated_Source\PSoC5/PSI.c ****         PSI_STBY_PWRMGR_CLK_REG &= (uint8)~PSI_STBY_PWR_CLK_EN;
 408:Generated_Source\PSoC5/PSI.c ****     #endif /* PSI_DEFAULT_INTERNAL_CLK */
 409:Generated_Source\PSoC5/PSI.c **** 
 410:Generated_Source\PSoC5/PSI.c ****     /* Disable Modulator Chopping */
 411:Generated_Source\PSoC5/PSI.c ****     PSI_DSM_CR2_REG &= (uint8)~PSI_DSM_MOD_CHOP_EN;
 412:Generated_Source\PSoC5/PSI.c ****     /* Disable power to charge pump clock */
 413:Generated_Source\PSoC5/PSI.c ****     PSI_PWRMGR_CHARGE_PUMP_CLK_REG &= (uint8)~PSI_ACT_PWR_CHARGE_PUMP_CLK_EN;
 414:Generated_Source\PSoC5/PSI.c ****     PSI_STBY_PWRMGR_CHARGE_PUMP_CLK_REG &= (uint8)~PSI_STBY_PWR_CHARGE_PUMP_CLK_EN;
 415:Generated_Source\PSoC5/PSI.c ****     
 416:Generated_Source\PSoC5/PSI.c ****     CyExitCriticalSection(enableInterrupts);
 417:Generated_Source\PSoC5/PSI.c **** }
 418:Generated_Source\PSoC5/PSI.c **** 
 419:Generated_Source\PSoC5/PSI.c **** 
 420:Generated_Source\PSoC5/PSI.c **** /*******************************************************************************
 421:Generated_Source\PSoC5/PSI.c **** * Function Name: PSI_SetBufferGain
 422:Generated_Source\PSoC5/PSI.c **** ********************************************************************************
 423:Generated_Source\PSoC5/PSI.c **** *
 424:Generated_Source\PSoC5/PSI.c **** * Summary:
 425:Generated_Source\PSoC5/PSI.c **** *  Sets input buffer gain.
 426:Generated_Source\PSoC5/PSI.c **** *
 427:Generated_Source\PSoC5/PSI.c **** * Parameters:
 428:Generated_Source\PSoC5/PSI.c **** *  gain:  Two bit value to select a gain of 1, 2, 4, or 8.
 429:Generated_Source\PSoC5/PSI.c **** *
 430:Generated_Source\PSoC5/PSI.c **** * Return:
ARM GAS  C:\Users\scott\AppData\Local\Temp\cciBmnUj.s 			page 9


 431:Generated_Source\PSoC5/PSI.c **** *  None
 432:Generated_Source\PSoC5/PSI.c **** *
 433:Generated_Source\PSoC5/PSI.c **** *******************************************************************************/
 434:Generated_Source\PSoC5/PSI.c **** void PSI_SetBufferGain(uint8 gain) 
 435:Generated_Source\PSoC5/PSI.c **** {
 436:Generated_Source\PSoC5/PSI.c ****     uint8 tmpReg;
 437:Generated_Source\PSoC5/PSI.c ****     tmpReg = PSI_DSM_BUF1_REG & (uint8)~PSI_DSM_GAIN_MASK;
 438:Generated_Source\PSoC5/PSI.c ****     tmpReg |= (uint8)(gain << PSI_DSM_GAIN_SHIFT) & PSI_DSM_GAIN_MASK;
 439:Generated_Source\PSoC5/PSI.c ****     PSI_DSM_BUF1_REG = tmpReg;
 440:Generated_Source\PSoC5/PSI.c **** }
 441:Generated_Source\PSoC5/PSI.c **** 
 442:Generated_Source\PSoC5/PSI.c **** 
 443:Generated_Source\PSoC5/PSI.c **** /*******************************************************************************
 444:Generated_Source\PSoC5/PSI.c **** * Function Name: PSI_SetCoherency
 445:Generated_Source\PSoC5/PSI.c **** ********************************************************************************
 446:Generated_Source\PSoC5/PSI.c **** *
 447:Generated_Source\PSoC5/PSI.c **** * Summary:
 448:Generated_Source\PSoC5/PSI.c **** *  This function allows the user to change which of the ADC's 3 word
 449:Generated_Source\PSoC5/PSI.c **** *  result will trigger a coherency unlock. The ADC's result will not be
 450:Generated_Source\PSoC5/PSI.c **** *  updated until the set byte is read either by the ADC or DMA. 
 451:Generated_Source\PSoC5/PSI.c **** *  By default the LSB is the coherency byte for right alignment data format. 
 452:Generated_Source\PSoC5/PSI.c **** *  The middle or high byte is set automatically depend on left alignment 
 453:Generated_Source\PSoC5/PSI.c **** *  configuration for DMA data transfer.
 454:Generated_Source\PSoC5/PSI.c **** *  If DMA or if a custom API requires different byte to be read the last,
 455:Generated_Source\PSoC5/PSI.c **** *  this API should be used to set the last byte of the ADC result that is read. 
 456:Generated_Source\PSoC5/PSI.c **** *  If a multibyte read is performed either by DMA or the ARM processor, the
 457:Generated_Source\PSoC5/PSI.c **** *  coherency can be set to any byte in the last word read.
 458:Generated_Source\PSoC5/PSI.c **** *
 459:Generated_Source\PSoC5/PSI.c **** * Parameters:
 460:Generated_Source\PSoC5/PSI.c **** *  coherency:  Two bit value to set the coherency bit.
 461:Generated_Source\PSoC5/PSI.c **** *           00-Coherency checking off
 462:Generated_Source\PSoC5/PSI.c **** *           01-low byte is key byte
 463:Generated_Source\PSoC5/PSI.c **** *           02-middle byte is the key byte
 464:Generated_Source\PSoC5/PSI.c **** *           03-high byte is the key byte
 465:Generated_Source\PSoC5/PSI.c **** *
 466:Generated_Source\PSoC5/PSI.c **** * Return:
 467:Generated_Source\PSoC5/PSI.c **** *  None
 468:Generated_Source\PSoC5/PSI.c **** *
 469:Generated_Source\PSoC5/PSI.c **** *******************************************************************************/
 470:Generated_Source\PSoC5/PSI.c **** void PSI_SetCoherency(uint8 coherency) 
 471:Generated_Source\PSoC5/PSI.c **** {
 472:Generated_Source\PSoC5/PSI.c ****     uint8 tmpReg;
 473:Generated_Source\PSoC5/PSI.c **** 
 474:Generated_Source\PSoC5/PSI.c ****     tmpReg = PSI_DEC_COHER_REG & (uint8)~PSI_DEC_SAMP_KEY_MASK;
 475:Generated_Source\PSoC5/PSI.c ****     tmpReg |= coherency & PSI_DEC_SAMP_KEY_MASK;
 476:Generated_Source\PSoC5/PSI.c ****     PSI_DEC_COHER_REG = tmpReg;
 477:Generated_Source\PSoC5/PSI.c **** }
 478:Generated_Source\PSoC5/PSI.c **** 
 479:Generated_Source\PSoC5/PSI.c **** 
 480:Generated_Source\PSoC5/PSI.c **** /*******************************************************************************
 481:Generated_Source\PSoC5/PSI.c **** * Function Name: PSI_SetGCOR
 482:Generated_Source\PSoC5/PSI.c **** ********************************************************************************
 483:Generated_Source\PSoC5/PSI.c **** *
 484:Generated_Source\PSoC5/PSI.c **** * Summary:
 485:Generated_Source\PSoC5/PSI.c **** *  Calculates a new GCOR value and writes it into the GCOR register. 
 486:Generated_Source\PSoC5/PSI.c **** *  The GCOR value is a 16-bit value that represents a gain of 0 to 2. 
 487:Generated_Source\PSoC5/PSI.c **** *  The ADC result is multiplied by this value before it is placed in the ADC 
ARM GAS  C:\Users\scott\AppData\Local\Temp\cciBmnUj.s 			page 10


 488:Generated_Source\PSoC5/PSI.c **** *  output registers. The numerical format for the GCOR value is:
 489:Generated_Source\PSoC5/PSI.c **** *  0x0000 -> 0.000
 490:Generated_Source\PSoC5/PSI.c **** *  0x8000 -> 1.000
 491:Generated_Source\PSoC5/PSI.c **** *  0xFFFF -> 1.99997
 492:Generated_Source\PSoC5/PSI.c **** *  When executing the function, the old GCOR value is multiplied by
 493:Generated_Source\PSoC5/PSI.c **** *  gainAdjust and reloaded into the GCOR register.
 494:Generated_Source\PSoC5/PSI.c **** *
 495:Generated_Source\PSoC5/PSI.c **** * Parameters:
 496:Generated_Source\PSoC5/PSI.c **** *  gainAdjust:  floating point value to set GCOR registers.
 497:Generated_Source\PSoC5/PSI.c **** *
 498:Generated_Source\PSoC5/PSI.c **** * Return:
 499:Generated_Source\PSoC5/PSI.c **** *  uint8: 0 - if GCOR value is within the expected range.
 500:Generated_Source\PSoC5/PSI.c **** *         1 - the correction value is outside GCOR value range of
 501:Generated_Source\PSoC5/PSI.c **** *             0.00 to 1.9999.
 502:Generated_Source\PSoC5/PSI.c **** *
 503:Generated_Source\PSoC5/PSI.c **** * Side Effects:  The GVAL register is set to the amount of valid bits in the
 504:Generated_Source\PSoC5/PSI.c **** *                GCOR  register minus one. If GVAL is 15 (0x0F), all 16 bits
 505:Generated_Source\PSoC5/PSI.c **** *                of the GCOR registers will be valid. If for example GVAL is
 506:Generated_Source\PSoC5/PSI.c **** *                11 (0x0B) only 12 bits will be valid. The least 4 bits will
 507:Generated_Source\PSoC5/PSI.c **** *                be lost when the GCOR value is shifted 4 places to the right.
 508:Generated_Source\PSoC5/PSI.c **** *
 509:Generated_Source\PSoC5/PSI.c **** ******************************************************************************/
 510:Generated_Source\PSoC5/PSI.c **** uint8 PSI_SetGCOR(float32 gainAdjust) 
 511:Generated_Source\PSoC5/PSI.c **** {
 512:Generated_Source\PSoC5/PSI.c ****     uint16 tmpReg;
 513:Generated_Source\PSoC5/PSI.c ****     uint8 status;
 514:Generated_Source\PSoC5/PSI.c ****     float32 tmpValue;
 515:Generated_Source\PSoC5/PSI.c **** 
 516:Generated_Source\PSoC5/PSI.c ****     tmpReg = PSI_gcor[PSI_Config - 1u].gcor;
 517:Generated_Source\PSoC5/PSI.c ****     tmpValue = ((float32)tmpReg / (float32)PSI_IDEAL_GAIN_CONST);
 518:Generated_Source\PSoC5/PSI.c ****     tmpValue = tmpValue * gainAdjust;
 519:Generated_Source\PSoC5/PSI.c **** 
 520:Generated_Source\PSoC5/PSI.c ****     if (tmpValue > 1.9999)
 521:Generated_Source\PSoC5/PSI.c ****     {
 522:Generated_Source\PSoC5/PSI.c ****         status = 1u;
 523:Generated_Source\PSoC5/PSI.c ****     }
 524:Generated_Source\PSoC5/PSI.c ****     else
 525:Generated_Source\PSoC5/PSI.c ****     {
 526:Generated_Source\PSoC5/PSI.c ****         tmpValue *= (float32)PSI_IDEAL_GAIN_CONST;
 527:Generated_Source\PSoC5/PSI.c **** 		tmpReg = (uint16)tmpValue;
 528:Generated_Source\PSoC5/PSI.c ****         CY_SET_REG16(PSI_DEC_GCOR_16B_PTR, tmpReg);
 529:Generated_Source\PSoC5/PSI.c ****         /* Update gain array to be used by SelectConfiguration() API */
 530:Generated_Source\PSoC5/PSI.c ****        PSI_gcor[PSI_Config - 1u].gcor = tmpReg;
 531:Generated_Source\PSoC5/PSI.c **** 
 532:Generated_Source\PSoC5/PSI.c ****         status = 0u;
 533:Generated_Source\PSoC5/PSI.c **** 
 534:Generated_Source\PSoC5/PSI.c ****     }
 535:Generated_Source\PSoC5/PSI.c ****     return(status);
 536:Generated_Source\PSoC5/PSI.c **** }
 537:Generated_Source\PSoC5/PSI.c **** 
 538:Generated_Source\PSoC5/PSI.c **** 
 539:Generated_Source\PSoC5/PSI.c **** /******************************************************************************
 540:Generated_Source\PSoC5/PSI.c **** * Function Name: PSI_ReadGCOR
 541:Generated_Source\PSoC5/PSI.c **** *******************************************************************************
 542:Generated_Source\PSoC5/PSI.c **** *
 543:Generated_Source\PSoC5/PSI.c **** * Summary:
 544:Generated_Source\PSoC5/PSI.c **** *  This API returns the current GCOR register value, normalized based on the
ARM GAS  C:\Users\scott\AppData\Local\Temp\cciBmnUj.s 			page 11


 545:Generated_Source\PSoC5/PSI.c **** *  GVAL register settings.
 546:Generated_Source\PSoC5/PSI.c **** *  For example, if the GCOR value is 0x0812 and the GVAL register is set to 
 547:Generated_Source\PSoC5/PSI.c **** *  11 (0x0B) then the returned value will be shifted by for bits to the left.
 548:Generated_Source\PSoC5/PSI.c **** *  (Actual GCOR value = 0x0812, returned value = 0x8120)
 549:Generated_Source\PSoC5/PSI.c **** *
 550:Generated_Source\PSoC5/PSI.c **** * Parameters:
 551:Generated_Source\PSoC5/PSI.c **** *  None
 552:Generated_Source\PSoC5/PSI.c **** *
 553:Generated_Source\PSoC5/PSI.c **** * Return:
 554:Generated_Source\PSoC5/PSI.c **** *  uint16:  Normalized GCOR value.
 555:Generated_Source\PSoC5/PSI.c **** *
 556:Generated_Source\PSoC5/PSI.c **** *******************************************************************************/
 557:Generated_Source\PSoC5/PSI.c **** uint16 PSI_ReadGCOR(void) 
 558:Generated_Source\PSoC5/PSI.c **** {
 559:Generated_Source\PSoC5/PSI.c ****     uint8 gValue;
 560:Generated_Source\PSoC5/PSI.c ****     uint16 gcorValue;
 561:Generated_Source\PSoC5/PSI.c **** 
 562:Generated_Source\PSoC5/PSI.c ****     gValue = PSI_DEC_GVAL_REG;
 563:Generated_Source\PSoC5/PSI.c ****     gcorValue = CY_GET_REG16(PSI_DEC_GCOR_16B_PTR);
 564:Generated_Source\PSoC5/PSI.c **** 
 565:Generated_Source\PSoC5/PSI.c ****     if (gValue < PSI_MAX_GVAL)
 566:Generated_Source\PSoC5/PSI.c ****     {
 567:Generated_Source\PSoC5/PSI.c ****         gcorValue <<= PSI_MAX_GVAL - gValue;
 568:Generated_Source\PSoC5/PSI.c ****     }
 569:Generated_Source\PSoC5/PSI.c **** 
 570:Generated_Source\PSoC5/PSI.c ****     return gcorValue;
 571:Generated_Source\PSoC5/PSI.c **** }
 572:Generated_Source\PSoC5/PSI.c **** 
 573:Generated_Source\PSoC5/PSI.c **** 
 574:Generated_Source\PSoC5/PSI.c **** /*******************************************************************************
 575:Generated_Source\PSoC5/PSI.c **** * Function Name: PSI_StartConvert
 576:Generated_Source\PSoC5/PSI.c **** ********************************************************************************
 577:Generated_Source\PSoC5/PSI.c **** *
 578:Generated_Source\PSoC5/PSI.c **** * Summary:
 579:Generated_Source\PSoC5/PSI.c **** *  Forces the ADC to initiate a conversion. If in the "Single Sample"
 580:Generated_Source\PSoC5/PSI.c **** *  mode, one conversion will be performed then the ADC will halt. If in
 581:Generated_Source\PSoC5/PSI.c **** *  one of the other three conversion modes, the ADC will run
 582:Generated_Source\PSoC5/PSI.c **** *  continuously until the ADC_Stop() or ADC_StopConvert() is called.
 583:Generated_Source\PSoC5/PSI.c **** *
 584:Generated_Source\PSoC5/PSI.c **** * Parameters:
 585:Generated_Source\PSoC5/PSI.c **** *  None
 586:Generated_Source\PSoC5/PSI.c **** *
 587:Generated_Source\PSoC5/PSI.c **** * Return:
 588:Generated_Source\PSoC5/PSI.c **** *  None
 589:Generated_Source\PSoC5/PSI.c **** *
 590:Generated_Source\PSoC5/PSI.c **** *******************************************************************************/
 591:Generated_Source\PSoC5/PSI.c **** void PSI_StartConvert(void) 
 592:Generated_Source\PSoC5/PSI.c **** {
 593:Generated_Source\PSoC5/PSI.c ****     /* Start the conversion */
 594:Generated_Source\PSoC5/PSI.c ****     PSI_DEC_CR_REG |= PSI_DEC_START_CONV;
 595:Generated_Source\PSoC5/PSI.c **** }
 596:Generated_Source\PSoC5/PSI.c **** 
 597:Generated_Source\PSoC5/PSI.c **** 
 598:Generated_Source\PSoC5/PSI.c **** /*******************************************************************************
 599:Generated_Source\PSoC5/PSI.c **** * Function Name: PSI_StopConvert
 600:Generated_Source\PSoC5/PSI.c **** ********************************************************************************
 601:Generated_Source\PSoC5/PSI.c **** *
ARM GAS  C:\Users\scott\AppData\Local\Temp\cciBmnUj.s 			page 12


 602:Generated_Source\PSoC5/PSI.c **** * Summary:
 603:Generated_Source\PSoC5/PSI.c **** *  Forces the ADC to stop all conversions. If the ADC is in the middle of a
 604:Generated_Source\PSoC5/PSI.c **** *  conversion, the ADC will be reset and not provide a result for that partial
 605:Generated_Source\PSoC5/PSI.c **** *  conversion.
 606:Generated_Source\PSoC5/PSI.c **** *
 607:Generated_Source\PSoC5/PSI.c **** * Parameters:
 608:Generated_Source\PSoC5/PSI.c **** *  None
 609:Generated_Source\PSoC5/PSI.c **** *
 610:Generated_Source\PSoC5/PSI.c **** * Return:
 611:Generated_Source\PSoC5/PSI.c **** *  None
 612:Generated_Source\PSoC5/PSI.c **** *
 613:Generated_Source\PSoC5/PSI.c **** *******************************************************************************/
 614:Generated_Source\PSoC5/PSI.c **** void PSI_StopConvert(void) 
 615:Generated_Source\PSoC5/PSI.c **** {
 616:Generated_Source\PSoC5/PSI.c ****     /* Stop all conversions */
 617:Generated_Source\PSoC5/PSI.c ****     PSI_DEC_CR_REG &= (uint8)~PSI_DEC_START_CONV;
 618:Generated_Source\PSoC5/PSI.c **** }
 619:Generated_Source\PSoC5/PSI.c **** 
 620:Generated_Source\PSoC5/PSI.c **** 
 621:Generated_Source\PSoC5/PSI.c **** /*******************************************************************************
 622:Generated_Source\PSoC5/PSI.c **** * Function Name: PSI_IsEndConversion
 623:Generated_Source\PSoC5/PSI.c **** ********************************************************************************
 624:Generated_Source\PSoC5/PSI.c **** *
 625:Generated_Source\PSoC5/PSI.c **** * Summary:
 626:Generated_Source\PSoC5/PSI.c **** *  Checks the status that the most recently started conversion has completed.
 627:Generated_Source\PSoC5/PSI.c **** *  The status is cleared by any of ADC_GetResult8(), ADC_GetResult16() or 
 628:Generated_Source\PSoC5/PSI.c **** *  ADC_GetResult32() API.
 629:Generated_Source\PSoC5/PSI.c **** *  This function provides the programmer with two options. In one mode this 
 630:Generated_Source\PSoC5/PSI.c **** *  function immediately returns with the conversion status. In the other mode,
 631:Generated_Source\PSoC5/PSI.c **** *  the function does not return (blocking) until the conversion has completed.
 632:Generated_Source\PSoC5/PSI.c **** *
 633:Generated_Source\PSoC5/PSI.c **** * Parameters:
 634:Generated_Source\PSoC5/PSI.c **** *  retMode: Check conversion return mode. See the following table for options.
 635:Generated_Source\PSoC5/PSI.c **** *   PSI_RETURN_STATUS -   Immediately returns conversion result
 636:Generated_Source\PSoC5/PSI.c **** *                                      status.
 637:Generated_Source\PSoC5/PSI.c **** *   PSI_WAIT_FOR_RESULT - Does not return until ADC conversion
 638:Generated_Source\PSoC5/PSI.c **** *                                      is complete.
 639:Generated_Source\PSoC5/PSI.c **** *
 640:Generated_Source\PSoC5/PSI.c **** * Return:
 641:Generated_Source\PSoC5/PSI.c **** *  If a nonzero value is returned, the last conversion has completed.
 642:Generated_Source\PSoC5/PSI.c **** *  If the returned value is zero, the ADC is still calculating the last result.
 643:Generated_Source\PSoC5/PSI.c **** *
 644:Generated_Source\PSoC5/PSI.c **** * Global variables:
 645:Generated_Source\PSoC5/PSI.c **** *  PSI_convDone:  Used to check whether conversion is complete
 646:Generated_Source\PSoC5/PSI.c **** *  or not for single sample mode with resolution is above 16
 647:Generated_Source\PSoC5/PSI.c **** *
 648:Generated_Source\PSoC5/PSI.c **** *******************************************************************************/
 649:Generated_Source\PSoC5/PSI.c **** uint8 PSI_IsEndConversion(uint8 retMode) 
 650:Generated_Source\PSoC5/PSI.c **** {
 651:Generated_Source\PSoC5/PSI.c ****     uint8 status;
 652:Generated_Source\PSoC5/PSI.c **** 
 653:Generated_Source\PSoC5/PSI.c ****     do
 654:Generated_Source\PSoC5/PSI.c ****     {
 655:Generated_Source\PSoC5/PSI.c ****         /* Check for stop convert if conversion mode is Single Sample with
 656:Generated_Source\PSoC5/PSI.c ****         *   resolution above 16 bit
 657:Generated_Source\PSoC5/PSI.c ****         */
 658:Generated_Source\PSoC5/PSI.c ****         if(PSI_stopConversion != 0u)
ARM GAS  C:\Users\scott\AppData\Local\Temp\cciBmnUj.s 			page 13


 659:Generated_Source\PSoC5/PSI.c ****         {
 660:Generated_Source\PSoC5/PSI.c ****             status = PSI_convDone;
 661:Generated_Source\PSoC5/PSI.c ****         }
 662:Generated_Source\PSoC5/PSI.c ****         else
 663:Generated_Source\PSoC5/PSI.c ****         {
 664:Generated_Source\PSoC5/PSI.c ****             status = PSI_DEC_SR_REG & PSI_DEC_CONV_DONE;
 665:Generated_Source\PSoC5/PSI.c ****         }
 666:Generated_Source\PSoC5/PSI.c ****     }while((status != PSI_DEC_CONV_DONE) && (retMode == PSI_WAIT_FOR_RESULT));
 667:Generated_Source\PSoC5/PSI.c **** 
 668:Generated_Source\PSoC5/PSI.c ****     return(status);
 669:Generated_Source\PSoC5/PSI.c **** }
 670:Generated_Source\PSoC5/PSI.c **** 
 671:Generated_Source\PSoC5/PSI.c **** 
 672:Generated_Source\PSoC5/PSI.c **** /*******************************************************************************
 673:Generated_Source\PSoC5/PSI.c **** * Function Name: PSI_GetResult8
 674:Generated_Source\PSoC5/PSI.c **** ********************************************************************************
 675:Generated_Source\PSoC5/PSI.c **** *
 676:Generated_Source\PSoC5/PSI.c **** * Summary:
 677:Generated_Source\PSoC5/PSI.c **** *  This function returns the result of an 8-bit conversion. If the
 678:Generated_Source\PSoC5/PSI.c **** *  resolution is set greater than 8-bits, the LSB of the result will be
 679:Generated_Source\PSoC5/PSI.c **** *  returned. When the ADC is configured for 8-bit single ended mode,
 680:Generated_Source\PSoC5/PSI.c **** *  the ADC_GetResult16() function should be used instead. This
 681:Generated_Source\PSoC5/PSI.c **** *  function returns only signed 8-bit values. The maximum positive
 682:Generated_Source\PSoC5/PSI.c **** *  signed 8-bit value is 127, but in singled ended 8-bit mode, the
 683:Generated_Source\PSoC5/PSI.c **** *  maximum positive value is 255.
 684:Generated_Source\PSoC5/PSI.c **** *
 685:Generated_Source\PSoC5/PSI.c **** * Parameters:
 686:Generated_Source\PSoC5/PSI.c **** *  None
 687:Generated_Source\PSoC5/PSI.c **** *
 688:Generated_Source\PSoC5/PSI.c **** * Return:
 689:Generated_Source\PSoC5/PSI.c **** *  int8: The LSB of the last ADC conversion.
 690:Generated_Source\PSoC5/PSI.c **** *
 691:Generated_Source\PSoC5/PSI.c **** * Global variables:
 692:Generated_Source\PSoC5/PSI.c **** *  PSI_convDone:  Cleared in single sample mode with resolution
 693:Generated_Source\PSoC5/PSI.c **** *                              above 16 bits
 694:Generated_Source\PSoC5/PSI.c **** *
 695:Generated_Source\PSoC5/PSI.c **** *******************************************************************************/
 696:Generated_Source\PSoC5/PSI.c **** int8 PSI_GetResult8( void ) 
 697:Generated_Source\PSoC5/PSI.c **** {
 698:Generated_Source\PSoC5/PSI.c ****     int8 result;
 699:Generated_Source\PSoC5/PSI.c ****     uint8 coherency;
 700:Generated_Source\PSoC5/PSI.c **** 
 701:Generated_Source\PSoC5/PSI.c ****     /* Read active coherency configuration */
 702:Generated_Source\PSoC5/PSI.c ****     coherency = PSI_DEC_COHER_REG & PSI_DEC_SAMP_KEY_MASK;
 703:Generated_Source\PSoC5/PSI.c **** 
 704:Generated_Source\PSoC5/PSI.c ****     result = (int8)PSI_DEC_SAMP_REG;
 705:Generated_Source\PSoC5/PSI.c **** 
 706:Generated_Source\PSoC5/PSI.c ****     if(coherency == PSI_DEC_SAMP_KEY_MID)
 707:Generated_Source\PSoC5/PSI.c ****     {   /* Dummy read of the middle byte to unlock the coherency */
 708:Generated_Source\PSoC5/PSI.c ****         (void)PSI_DEC_SAMPM_REG;
 709:Generated_Source\PSoC5/PSI.c ****     }
 710:Generated_Source\PSoC5/PSI.c ****     else  if(coherency == PSI_DEC_SAMP_KEY_HIGH)
 711:Generated_Source\PSoC5/PSI.c ****     {   /* Dummy read of the MSB byte to unlock the coherency */
 712:Generated_Source\PSoC5/PSI.c ****         (void)PSI_DEC_SAMPH_REG;
 713:Generated_Source\PSoC5/PSI.c ****     }
 714:Generated_Source\PSoC5/PSI.c ****     else /*No action required for other coherency */
 715:Generated_Source\PSoC5/PSI.c ****     {
ARM GAS  C:\Users\scott\AppData\Local\Temp\cciBmnUj.s 			page 14


 716:Generated_Source\PSoC5/PSI.c ****     }
 717:Generated_Source\PSoC5/PSI.c ****     /* Clear conversion complete status in Single Sample mode with resolution above 16 bit */
 718:Generated_Source\PSoC5/PSI.c ****     if(PSI_stopConversion != 0u)
 719:Generated_Source\PSoC5/PSI.c ****     {
 720:Generated_Source\PSoC5/PSI.c ****         PSI_convDone = 0u;
 721:Generated_Source\PSoC5/PSI.c ****     }
 722:Generated_Source\PSoC5/PSI.c ****     return (result);
 723:Generated_Source\PSoC5/PSI.c **** }
 724:Generated_Source\PSoC5/PSI.c **** 
 725:Generated_Source\PSoC5/PSI.c **** 
 726:Generated_Source\PSoC5/PSI.c **** /*******************************************************************************
 727:Generated_Source\PSoC5/PSI.c **** * Function Name: PSI_GetResult16
 728:Generated_Source\PSoC5/PSI.c **** ********************************************************************************
 729:Generated_Source\PSoC5/PSI.c **** *
 730:Generated_Source\PSoC5/PSI.c **** * Summary:
 731:Generated_Source\PSoC5/PSI.c **** *  Returns a 16-bit result for a conversion with a result that has a
 732:Generated_Source\PSoC5/PSI.c **** *  resolution of 8 to 16 bits. If the resolution is set greater than 16-bits,
 733:Generated_Source\PSoC5/PSI.c **** *  it will return the 16 least significant bits of the result. When the ADC
 734:Generated_Source\PSoC5/PSI.c **** *  is configured for 16-bit single ended mode, the ADC_GetResult32()
 735:Generated_Source\PSoC5/PSI.c **** *  function should be used instead. This function returns only signed
 736:Generated_Source\PSoC5/PSI.c **** *  16-bit result, which allows a maximum positive value of 32767, not 65535.
 737:Generated_Source\PSoC5/PSI.c **** *  This function supports different coherency settings.
 738:Generated_Source\PSoC5/PSI.c **** *
 739:Generated_Source\PSoC5/PSI.c **** * Parameters:
 740:Generated_Source\PSoC5/PSI.c **** *   void
 741:Generated_Source\PSoC5/PSI.c **** *
 742:Generated_Source\PSoC5/PSI.c **** * Return:
 743:Generated_Source\PSoC5/PSI.c **** *  int16:  ADC result.
 744:Generated_Source\PSoC5/PSI.c **** *
 745:Generated_Source\PSoC5/PSI.c **** * Global variables:
 746:Generated_Source\PSoC5/PSI.c **** *  PSI_convDone:  Cleared in single sample mode with resolution
 747:Generated_Source\PSoC5/PSI.c **** *                              above 16 bits
 748:Generated_Source\PSoC5/PSI.c **** *
 749:Generated_Source\PSoC5/PSI.c **** *******************************************************************************/
 750:Generated_Source\PSoC5/PSI.c **** int16 PSI_GetResult16(void) 
 751:Generated_Source\PSoC5/PSI.c **** {
 752:Generated_Source\PSoC5/PSI.c ****     uint16 result;
 753:Generated_Source\PSoC5/PSI.c ****     uint8 coherency;
 754:Generated_Source\PSoC5/PSI.c **** 
 755:Generated_Source\PSoC5/PSI.c ****     /* Read active coherency configuration */
 756:Generated_Source\PSoC5/PSI.c ****     coherency = PSI_DEC_COHER_REG & PSI_DEC_SAMP_KEY_MASK;
 757:Generated_Source\PSoC5/PSI.c **** 
 758:Generated_Source\PSoC5/PSI.c ****     if(coherency <= PSI_DEC_SAMP_KEY_LOW)
 759:Generated_Source\PSoC5/PSI.c ****     {   /*  Use default method to read result registers i.e. LSB byte read at the end*/
 760:Generated_Source\PSoC5/PSI.c ****         #if (CY_PSOC3)
 761:Generated_Source\PSoC5/PSI.c ****             result = PSI_DEC_SAMPM_REG;
 762:Generated_Source\PSoC5/PSI.c ****             result = (result << 8u) | PSI_DEC_SAMP_REG;
 763:Generated_Source\PSoC5/PSI.c ****         #else
 764:Generated_Source\PSoC5/PSI.c ****             result = (CY_GET_REG16(PSI_DEC_SAMP_16B_PTR));
 765:Generated_Source\PSoC5/PSI.c ****         #endif /* CY_PSOC3 */
 766:Generated_Source\PSoC5/PSI.c ****     }
 767:Generated_Source\PSoC5/PSI.c ****     else /* MID or HIGH */
 768:Generated_Source\PSoC5/PSI.c ****     {   /* Read middle byte at the end */
 769:Generated_Source\PSoC5/PSI.c ****         #if (CY_PSOC3)
 770:Generated_Source\PSoC5/PSI.c ****             result = (CY_GET_REG16(PSI_DEC_SAMP_16B_PTR));
 771:Generated_Source\PSoC5/PSI.c ****         #else
 772:Generated_Source\PSoC5/PSI.c ****             result = PSI_DEC_SAMP_REG;
ARM GAS  C:\Users\scott\AppData\Local\Temp\cciBmnUj.s 			page 15


 773:Generated_Source\PSoC5/PSI.c ****             result |=  (uint16)((uint16)PSI_DEC_SAMPM_REG << 8u);
 774:Generated_Source\PSoC5/PSI.c ****         #endif /* CY_PSOC3 */
 775:Generated_Source\PSoC5/PSI.c ****         if(coherency == PSI_DEC_SAMP_KEY_HIGH)
 776:Generated_Source\PSoC5/PSI.c ****         {   /* Dummy read of the MSB byte to unlock the coherency */
 777:Generated_Source\PSoC5/PSI.c ****             (void)PSI_DEC_SAMPH_REG;
 778:Generated_Source\PSoC5/PSI.c ****         }
 779:Generated_Source\PSoC5/PSI.c ****     }
 780:Generated_Source\PSoC5/PSI.c ****     /* Clear conversion complete status in Single Sample mode with resolution above 16 bit */
 781:Generated_Source\PSoC5/PSI.c ****     if(PSI_stopConversion != 0u)
 782:Generated_Source\PSoC5/PSI.c ****     {
 783:Generated_Source\PSoC5/PSI.c ****         PSI_convDone = 0u;
 784:Generated_Source\PSoC5/PSI.c ****     }
 785:Generated_Source\PSoC5/PSI.c **** 
 786:Generated_Source\PSoC5/PSI.c ****     return ((int16)result);
 787:Generated_Source\PSoC5/PSI.c **** }
 788:Generated_Source\PSoC5/PSI.c **** 
 789:Generated_Source\PSoC5/PSI.c **** 
 790:Generated_Source\PSoC5/PSI.c **** /*******************************************************************************
 791:Generated_Source\PSoC5/PSI.c **** * Function Name: PSI_GetResult32
 792:Generated_Source\PSoC5/PSI.c **** ********************************************************************************
 793:Generated_Source\PSoC5/PSI.c **** *
 794:Generated_Source\PSoC5/PSI.c **** * Summary:
 795:Generated_Source\PSoC5/PSI.c **** *  Returns a 32-bit result for a conversion with a result that has a
 796:Generated_Source\PSoC5/PSI.c **** *  resolution of 8 to 20 bits.
 797:Generated_Source\PSoC5/PSI.c **** *  This function supports different coherency settings.
 798:Generated_Source\PSoC5/PSI.c **** *
 799:Generated_Source\PSoC5/PSI.c **** * Parameters:
 800:Generated_Source\PSoC5/PSI.c **** *  None
 801:Generated_Source\PSoC5/PSI.c **** *
 802:Generated_Source\PSoC5/PSI.c **** * Return:
 803:Generated_Source\PSoC5/PSI.c **** *  int32: Result of the last ADC conversion.
 804:Generated_Source\PSoC5/PSI.c **** *
 805:Generated_Source\PSoC5/PSI.c **** * Global variables:
 806:Generated_Source\PSoC5/PSI.c **** *  PSI_convDone:  Cleared in single sample mode with resolution
 807:Generated_Source\PSoC5/PSI.c **** *                              above 16 bits
 808:Generated_Source\PSoC5/PSI.c **** *
 809:Generated_Source\PSoC5/PSI.c **** *******************************************************************************/
 810:Generated_Source\PSoC5/PSI.c **** int32 PSI_GetResult32(void) 
 811:Generated_Source\PSoC5/PSI.c **** {
 812:Generated_Source\PSoC5/PSI.c ****     uint32 result;
 813:Generated_Source\PSoC5/PSI.c ****     uint8 coherency;
 814:Generated_Source\PSoC5/PSI.c ****     #if (CY_PSOC3)
 815:Generated_Source\PSoC5/PSI.c **** 	    uint16 tmp;
 816:Generated_Source\PSoC5/PSI.c ****     #endif /* CY_PSOC3 */
 817:Generated_Source\PSoC5/PSI.c **** 
 818:Generated_Source\PSoC5/PSI.c ****     /* Read active coherency configuration */
 819:Generated_Source\PSoC5/PSI.c ****     coherency = PSI_DEC_COHER_REG & PSI_DEC_SAMP_KEY_MASK;
 820:Generated_Source\PSoC5/PSI.c **** 
 821:Generated_Source\PSoC5/PSI.c ****     if(coherency <= PSI_DEC_SAMP_KEY_LOW)
 822:Generated_Source\PSoC5/PSI.c ****     {   /*  Use default method to read result registers i.e. LSB byte read at the end*/
 823:Generated_Source\PSoC5/PSI.c ****         #if (CY_PSOC3)
 824:Generated_Source\PSoC5/PSI.c ****             result = PSI_DEC_SAMPH_REG;
 825:Generated_Source\PSoC5/PSI.c ****             if((result & 0x80u) != 0u)
 826:Generated_Source\PSoC5/PSI.c ****             {   /* Sign extend */
 827:Generated_Source\PSoC5/PSI.c ****                 result |= 0xFF00u;
 828:Generated_Source\PSoC5/PSI.c ****             }
 829:Generated_Source\PSoC5/PSI.c ****             result = (result << 8u) | PSI_DEC_SAMPM_REG;
ARM GAS  C:\Users\scott\AppData\Local\Temp\cciBmnUj.s 			page 16


 830:Generated_Source\PSoC5/PSI.c ****             result = (result << 8u) | PSI_DEC_SAMP_REG;
 831:Generated_Source\PSoC5/PSI.c ****         #else
 832:Generated_Source\PSoC5/PSI.c ****             result = CY_GET_REG16(PSI_DEC_SAMPH_16B_PTR);
 833:Generated_Source\PSoC5/PSI.c ****             result = (result << 16u) | (CY_GET_REG16(PSI_DEC_SAMP_16B_PTR));
 834:Generated_Source\PSoC5/PSI.c ****         #endif /* CY_PSOC3 */
 835:Generated_Source\PSoC5/PSI.c ****     }
 836:Generated_Source\PSoC5/PSI.c ****     else if(coherency == PSI_DEC_SAMP_KEY_MID)
 837:Generated_Source\PSoC5/PSI.c ****     {   /* Read middle byte at the end */
 838:Generated_Source\PSoC5/PSI.c ****         #if (CY_PSOC3)
 839:Generated_Source\PSoC5/PSI.c ****             result = PSI_DEC_SAMPH_REG;
 840:Generated_Source\PSoC5/PSI.c ****             if((result & 0x80u) != 0u)
 841:Generated_Source\PSoC5/PSI.c ****             {   /* Sign extend */
 842:Generated_Source\PSoC5/PSI.c ****                 result |= 0xFF00u;
 843:Generated_Source\PSoC5/PSI.c ****             }
 844:Generated_Source\PSoC5/PSI.c ****             result = (result << 16u) | (CY_GET_REG16(PSI_DEC_SAMP_16B_PTR));
 845:Generated_Source\PSoC5/PSI.c ****         #else
 846:Generated_Source\PSoC5/PSI.c ****             result = CY_GET_REG16(PSI_DEC_SAMPH_16B_PTR);
 847:Generated_Source\PSoC5/PSI.c ****             result = (result << 16u) | PSI_DEC_SAMP_REG;
 848:Generated_Source\PSoC5/PSI.c ****             result |=  (uint32)((uint32)PSI_DEC_SAMPM_REG << 8u);
 849:Generated_Source\PSoC5/PSI.c ****         #endif /* CY_PSOC3 */
 850:Generated_Source\PSoC5/PSI.c ****     }
 851:Generated_Source\PSoC5/PSI.c ****     else /*PSI_DEC_SAMP_KEY_HIGH */
 852:Generated_Source\PSoC5/PSI.c ****     {
 853:Generated_Source\PSoC5/PSI.c ****         /* Read MSB byte at the end */
 854:Generated_Source\PSoC5/PSI.c ****         #if (CY_PSOC3)
 855:Generated_Source\PSoC5/PSI.c ****             result = CY_GET_REG16(PSI_DEC_SAMP_16B_PTR);
 856:Generated_Source\PSoC5/PSI.c **** 			tmp = PSI_DEC_SAMPH_REG;
 857:Generated_Source\PSoC5/PSI.c ****             if((tmp & 0x80u) != 0u)
 858:Generated_Source\PSoC5/PSI.c ****             {   /* Sign extend */
 859:Generated_Source\PSoC5/PSI.c ****                 tmp |= 0xFF00u;
 860:Generated_Source\PSoC5/PSI.c ****             }
 861:Generated_Source\PSoC5/PSI.c ****             result |= (uint32)tmp << 16u;
 862:Generated_Source\PSoC5/PSI.c ****         #else
 863:Generated_Source\PSoC5/PSI.c ****             result = CY_GET_REG16(PSI_DEC_SAMP_16B_PTR);
 864:Generated_Source\PSoC5/PSI.c ****             result |= (uint32)((uint32)CY_GET_REG16(PSI_DEC_SAMPH_16B_PTR) << 16u);
 865:Generated_Source\PSoC5/PSI.c ****         #endif /* CY_PSOC3 */
 866:Generated_Source\PSoC5/PSI.c ****     }
 867:Generated_Source\PSoC5/PSI.c ****     /* Clear conversion complete status in Single Sample mode with resolution above 16 bit */
 868:Generated_Source\PSoC5/PSI.c ****     if(PSI_stopConversion != 0u)
 869:Generated_Source\PSoC5/PSI.c ****     {
 870:Generated_Source\PSoC5/PSI.c ****         PSI_convDone = 0u;
 871:Generated_Source\PSoC5/PSI.c ****     }
 872:Generated_Source\PSoC5/PSI.c **** 
 873:Generated_Source\PSoC5/PSI.c ****     return ((int32)result);
 874:Generated_Source\PSoC5/PSI.c **** }
 875:Generated_Source\PSoC5/PSI.c **** 
 876:Generated_Source\PSoC5/PSI.c **** 
 877:Generated_Source\PSoC5/PSI.c **** /*******************************************************************************
 878:Generated_Source\PSoC5/PSI.c **** * Function Name: PSI_SetOffset
 879:Generated_Source\PSoC5/PSI.c **** ********************************************************************************
 880:Generated_Source\PSoC5/PSI.c **** *
 881:Generated_Source\PSoC5/PSI.c **** * Summary:
 882:Generated_Source\PSoC5/PSI.c **** *  Sets the ADC offset which is used by the functions ADC_CountsTo_uVolts, 
 883:Generated_Source\PSoC5/PSI.c **** *  ADC_CountsTo_mVolts, and ADC_CountsTo_Volts to subtract the offset from the 
 884:Generated_Source\PSoC5/PSI.c **** *  given reading before calculating the voltage conversion.
 885:Generated_Source\PSoC5/PSI.c **** *
 886:Generated_Source\PSoC5/PSI.c **** * Parameters:
ARM GAS  C:\Users\scott\AppData\Local\Temp\cciBmnUj.s 			page 17


 887:Generated_Source\PSoC5/PSI.c **** *  int32:  This value is a measured value when the inputs are shorted or 
 888:Generated_Source\PSoC5/PSI.c **** *          connected to the same input voltage.
 889:Generated_Source\PSoC5/PSI.c **** *
 890:Generated_Source\PSoC5/PSI.c **** * Return:
 891:Generated_Source\PSoC5/PSI.c **** *  None
 892:Generated_Source\PSoC5/PSI.c **** *
 893:Generated_Source\PSoC5/PSI.c **** * Global variables:
 894:Generated_Source\PSoC5/PSI.c **** *  PSI_Offset:  Modified to set the user provided offset. This
 895:Generated_Source\PSoC5/PSI.c **** *  variable is used for offset calibration purpose.
 896:Generated_Source\PSoC5/PSI.c **** *
 897:Generated_Source\PSoC5/PSI.c **** * Side Effects:
 898:Generated_Source\PSoC5/PSI.c **** *  Affects the PSI_CountsTo_Volts,
 899:Generated_Source\PSoC5/PSI.c **** *  PSI_CountsTo_mVolts, PSI_CountsTo_uVolts functions
 900:Generated_Source\PSoC5/PSI.c **** *  by subtracting the given offset.
 901:Generated_Source\PSoC5/PSI.c **** *
 902:Generated_Source\PSoC5/PSI.c **** *******************************************************************************/
 903:Generated_Source\PSoC5/PSI.c **** void PSI_SetOffset(int32 offset) 
 904:Generated_Source\PSoC5/PSI.c **** {
 905:Generated_Source\PSoC5/PSI.c **** 
 906:Generated_Source\PSoC5/PSI.c ****     PSI_Offset = offset;
 907:Generated_Source\PSoC5/PSI.c **** }
 908:Generated_Source\PSoC5/PSI.c **** 
 909:Generated_Source\PSoC5/PSI.c **** 
 910:Generated_Source\PSoC5/PSI.c **** /*******************************************************************************
 911:Generated_Source\PSoC5/PSI.c **** * Function Name: PSI_SetGain
 912:Generated_Source\PSoC5/PSI.c **** ********************************************************************************
 913:Generated_Source\PSoC5/PSI.c **** *
 914:Generated_Source\PSoC5/PSI.c **** * Summary:
 915:Generated_Source\PSoC5/PSI.c **** *  Sets the ADC gain in counts per volt for the voltage conversion
 916:Generated_Source\PSoC5/PSI.c **** *  functions below. This value is set by default by the reference and
 917:Generated_Source\PSoC5/PSI.c **** *  input range settings. It should only be used to further calibrate the
 918:Generated_Source\PSoC5/PSI.c **** *  ADC with a known input or if an external reference is used. This
 919:Generated_Source\PSoC5/PSI.c **** *  function may also be used to calibrate an entire signal chain, not
 920:Generated_Source\PSoC5/PSI.c **** *  just the ADC.
 921:Generated_Source\PSoC5/PSI.c **** *
 922:Generated_Source\PSoC5/PSI.c **** * Parameters:
 923:Generated_Source\PSoC5/PSI.c **** *  int32: ADC gain in counts per volt.
 924:Generated_Source\PSoC5/PSI.c **** *
 925:Generated_Source\PSoC5/PSI.c **** * Return:
 926:Generated_Source\PSoC5/PSI.c **** *  None
 927:Generated_Source\PSoC5/PSI.c **** *
 928:Generated_Source\PSoC5/PSI.c **** * Global variables:
 929:Generated_Source\PSoC5/PSI.c **** *  PSI_CountsPerVolt:  modified to set the ADC gain in counts
 930:Generated_Source\PSoC5/PSI.c **** *   per volt.
 931:Generated_Source\PSoC5/PSI.c **** *
 932:Generated_Source\PSoC5/PSI.c **** * Side Effects:
 933:Generated_Source\PSoC5/PSI.c **** *  Affects the PSI_CountsTo_Volts,
 934:Generated_Source\PSoC5/PSI.c **** *  PSI_CountsTo_mVolts, PSI_CountsTo_uVolts functions
 935:Generated_Source\PSoC5/PSI.c **** *  supplying the correct conversion between ADC counts and voltage.
 936:Generated_Source\PSoC5/PSI.c **** *
 937:Generated_Source\PSoC5/PSI.c **** *******************************************************************************/
 938:Generated_Source\PSoC5/PSI.c **** void PSI_SetGain(int32 adcGain) 
 939:Generated_Source\PSoC5/PSI.c **** {
 940:Generated_Source\PSoC5/PSI.c ****     PSI_CountsPerVolt = adcGain;
 941:Generated_Source\PSoC5/PSI.c **** }
 942:Generated_Source\PSoC5/PSI.c **** 
 943:Generated_Source\PSoC5/PSI.c **** 
ARM GAS  C:\Users\scott\AppData\Local\Temp\cciBmnUj.s 			page 18


 944:Generated_Source\PSoC5/PSI.c **** /*******************************************************************************
 945:Generated_Source\PSoC5/PSI.c **** * Function Name: PSI_CountsTo_mVolts
 946:Generated_Source\PSoC5/PSI.c **** ********************************************************************************
 947:Generated_Source\PSoC5/PSI.c **** *
 948:Generated_Source\PSoC5/PSI.c **** * Summary:
 949:Generated_Source\PSoC5/PSI.c **** *  Converts the ADC counts output to mVolts as a 16-bit integer. For
 950:Generated_Source\PSoC5/PSI.c **** *  example, if the ADC measured 0.534 volts, the return value would
 951:Generated_Source\PSoC5/PSI.c **** *  be 534 mVolts.
 952:Generated_Source\PSoC5/PSI.c **** *
 953:Generated_Source\PSoC5/PSI.c **** * Parameters:
 954:Generated_Source\PSoC5/PSI.c **** *  int32: adcCounts Result from the ADC conversion.
 955:Generated_Source\PSoC5/PSI.c **** *
 956:Generated_Source\PSoC5/PSI.c **** * Return:
 957:Generated_Source\PSoC5/PSI.c **** *  int16:  Result in mVolts
 958:Generated_Source\PSoC5/PSI.c **** *
 959:Generated_Source\PSoC5/PSI.c **** * Global variables:
 960:Generated_Source\PSoC5/PSI.c **** *  PSI_CountsPerVolt:  used to convert ADC counts to mVolts.
 961:Generated_Source\PSoC5/PSI.c **** *  PSI_Offset:  Used as the offset while converting ADC counts
 962:Generated_Source\PSoC5/PSI.c **** *   to mVolts.
 963:Generated_Source\PSoC5/PSI.c **** *
 964:Generated_Source\PSoC5/PSI.c **** *******************************************************************************/
 965:Generated_Source\PSoC5/PSI.c **** int16 PSI_CountsTo_mVolts(int32 adcCounts) 
 966:Generated_Source\PSoC5/PSI.c **** {
 967:Generated_Source\PSoC5/PSI.c **** 
 968:Generated_Source\PSoC5/PSI.c ****     int16 mVolts;
 969:Generated_Source\PSoC5/PSI.c **** 
 970:Generated_Source\PSoC5/PSI.c ****     /* Convert adcCounts to the right align if left option selected */
 971:Generated_Source\PSoC5/PSI.c ****     #if(PSI_CFG1_DEC_DIV != 0)
 972:Generated_Source\PSoC5/PSI.c ****         if(PSI_Config == PSI_CFG1)
 973:Generated_Source\PSoC5/PSI.c ****         {
 974:Generated_Source\PSoC5/PSI.c ****             adcCounts /= PSI_CFG1_DEC_DIV;
 975:Generated_Source\PSoC5/PSI.c ****         }
 976:Generated_Source\PSoC5/PSI.c ****     #endif /* PSI_CFG1_DEC_DIV */
 977:Generated_Source\PSoC5/PSI.c ****     #if((PSI_CFG2_DEC_DIV != 0) && (PSI_DEFAULT_NUM_CONFIGS > 1))
 978:Generated_Source\PSoC5/PSI.c ****         if(PSI_Config == PSI_CFG2)
 979:Generated_Source\PSoC5/PSI.c ****         {
 980:Generated_Source\PSoC5/PSI.c ****             adcCounts /= PSI_CFG2_DEC_DIV;
 981:Generated_Source\PSoC5/PSI.c ****         }
 982:Generated_Source\PSoC5/PSI.c ****     #endif /* PSI_CFG2_DEC_DIV */
 983:Generated_Source\PSoC5/PSI.c ****     #if((PSI_CFG3_DEC_DIV != 0) && (PSI_DEFAULT_NUM_CONFIGS > 2))
 984:Generated_Source\PSoC5/PSI.c ****         if(PSI_Config == PSI_CFG3)
 985:Generated_Source\PSoC5/PSI.c ****         {
 986:Generated_Source\PSoC5/PSI.c ****             adcCounts /= PSI_CFG3_DEC_DIV;
 987:Generated_Source\PSoC5/PSI.c ****         }
 988:Generated_Source\PSoC5/PSI.c ****     #endif /* PSI_CFG2_DEC_DIV */
 989:Generated_Source\PSoC5/PSI.c ****     #if((PSI_CFG4_DEC_DIV != 0) && (PSI_DEFAULT_NUM_CONFIGS > 3))
 990:Generated_Source\PSoC5/PSI.c ****         if(PSI_Config == PSI_CFG4)
 991:Generated_Source\PSoC5/PSI.c ****         {
 992:Generated_Source\PSoC5/PSI.c ****             adcCounts /= PSI_CFG4_DEC_DIV;
 993:Generated_Source\PSoC5/PSI.c ****         }
 994:Generated_Source\PSoC5/PSI.c ****     #endif /* PSI_CFG2_DEC_DIV */
 995:Generated_Source\PSoC5/PSI.c **** 
 996:Generated_Source\PSoC5/PSI.c ****     /* Subtract ADC offset */
 997:Generated_Source\PSoC5/PSI.c ****     adcCounts -= PSI_Offset;
 998:Generated_Source\PSoC5/PSI.c **** 
 999:Generated_Source\PSoC5/PSI.c ****     mVolts = (int16)(( adcCounts * PSI_1MV_COUNTS ) / PSI_CountsPerVolt) ;
1000:Generated_Source\PSoC5/PSI.c **** 
ARM GAS  C:\Users\scott\AppData\Local\Temp\cciBmnUj.s 			page 19


1001:Generated_Source\PSoC5/PSI.c ****     return(mVolts);
1002:Generated_Source\PSoC5/PSI.c **** }
1003:Generated_Source\PSoC5/PSI.c **** 
1004:Generated_Source\PSoC5/PSI.c **** 
1005:Generated_Source\PSoC5/PSI.c **** /*******************************************************************************
1006:Generated_Source\PSoC5/PSI.c **** * Function Name: PSI_CountsTo_Volts
1007:Generated_Source\PSoC5/PSI.c **** ********************************************************************************
1008:Generated_Source\PSoC5/PSI.c **** *
1009:Generated_Source\PSoC5/PSI.c **** * Summary:
1010:Generated_Source\PSoC5/PSI.c **** *  Converts the ADC output to Volts as a floating point number. For
1011:Generated_Source\PSoC5/PSI.c **** *  example, if the ADC measure a voltage of 1.2345 Volts, the
1012:Generated_Source\PSoC5/PSI.c **** *  returned result would be +1.2345 Volts.
1013:Generated_Source\PSoC5/PSI.c **** *
1014:Generated_Source\PSoC5/PSI.c **** * Parameters:
1015:Generated_Source\PSoC5/PSI.c **** *  int32 adcCounts:  Result from the ADC conversion.
1016:Generated_Source\PSoC5/PSI.c **** *
1017:Generated_Source\PSoC5/PSI.c **** * Return:
1018:Generated_Source\PSoC5/PSI.c **** *  float32: Result in Volts
1019:Generated_Source\PSoC5/PSI.c **** *
1020:Generated_Source\PSoC5/PSI.c **** * Global variables:
1021:Generated_Source\PSoC5/PSI.c **** *  PSI_CountsPerVolt:  used to convert to Volts.
1022:Generated_Source\PSoC5/PSI.c **** *  PSI_Offset:  Used as the offset while converting ADC counts
1023:Generated_Source\PSoC5/PSI.c **** *   to Volts.
1024:Generated_Source\PSoC5/PSI.c **** *
1025:Generated_Source\PSoC5/PSI.c **** *******************************************************************************/
1026:Generated_Source\PSoC5/PSI.c **** float32 PSI_CountsTo_Volts(int32 adcCounts) 
1027:Generated_Source\PSoC5/PSI.c **** {
1028:Generated_Source\PSoC5/PSI.c **** 
1029:Generated_Source\PSoC5/PSI.c ****     float32 Volts;
1030:Generated_Source\PSoC5/PSI.c **** 
1031:Generated_Source\PSoC5/PSI.c ****     /* Convert adcCounts to the right align if left option selected */
1032:Generated_Source\PSoC5/PSI.c ****     #if(PSI_CFG1_DEC_DIV != 0)
1033:Generated_Source\PSoC5/PSI.c ****         if(PSI_Config == PSI_CFG1)
1034:Generated_Source\PSoC5/PSI.c ****         {
1035:Generated_Source\PSoC5/PSI.c ****             adcCounts /= PSI_CFG1_DEC_DIV;
1036:Generated_Source\PSoC5/PSI.c ****         }
1037:Generated_Source\PSoC5/PSI.c ****     #endif /* PSI_CFG1_DEC_DIV */
1038:Generated_Source\PSoC5/PSI.c ****     #if((PSI_CFG2_DEC_DIV != 0) && (PSI_DEFAULT_NUM_CONFIGS > 1))
1039:Generated_Source\PSoC5/PSI.c ****         if(PSI_Config == PSI_CFG2)
1040:Generated_Source\PSoC5/PSI.c ****         {
1041:Generated_Source\PSoC5/PSI.c ****             adcCounts /= PSI_CFG2_DEC_DIV;
1042:Generated_Source\PSoC5/PSI.c ****         }
1043:Generated_Source\PSoC5/PSI.c ****     #endif /* PSI_CFG2_DEC_DIV */
1044:Generated_Source\PSoC5/PSI.c ****     #if((PSI_CFG3_DEC_DIV != 0) && (PSI_DEFAULT_NUM_CONFIGS > 2))
1045:Generated_Source\PSoC5/PSI.c ****         if(PSI_Config == PSI_CFG3)
1046:Generated_Source\PSoC5/PSI.c ****         {
1047:Generated_Source\PSoC5/PSI.c ****             adcCounts /= PSI_CFG3_DEC_DIV;
1048:Generated_Source\PSoC5/PSI.c ****         }
1049:Generated_Source\PSoC5/PSI.c ****     #endif /* PSI_CFG2_DEC_DIV */
1050:Generated_Source\PSoC5/PSI.c ****     #if((PSI_CFG4_DEC_DIV != 0) && (PSI_DEFAULT_NUM_CONFIGS > 3))
1051:Generated_Source\PSoC5/PSI.c ****         if(PSI_Config == PSI_CFG4)
1052:Generated_Source\PSoC5/PSI.c ****         {
1053:Generated_Source\PSoC5/PSI.c ****             adcCounts /= PSI_CFG4_DEC_DIV;
1054:Generated_Source\PSoC5/PSI.c ****         }
1055:Generated_Source\PSoC5/PSI.c ****     #endif /* PSI_CFG2_DEC_DIV */
1056:Generated_Source\PSoC5/PSI.c **** 
1057:Generated_Source\PSoC5/PSI.c ****     /* Subtract ADC offset */
ARM GAS  C:\Users\scott\AppData\Local\Temp\cciBmnUj.s 			page 20


1058:Generated_Source\PSoC5/PSI.c ****     adcCounts -= PSI_Offset;
1059:Generated_Source\PSoC5/PSI.c **** 
1060:Generated_Source\PSoC5/PSI.c ****     Volts = (float32)adcCounts / (float32)PSI_CountsPerVolt;
1061:Generated_Source\PSoC5/PSI.c **** 
1062:Generated_Source\PSoC5/PSI.c ****     return( Volts );
1063:Generated_Source\PSoC5/PSI.c **** }
1064:Generated_Source\PSoC5/PSI.c **** 
1065:Generated_Source\PSoC5/PSI.c **** 
1066:Generated_Source\PSoC5/PSI.c **** /*******************************************************************************
1067:Generated_Source\PSoC5/PSI.c **** * Function Name: PSI_CountsTo_uVolts
1068:Generated_Source\PSoC5/PSI.c **** ********************************************************************************
1069:Generated_Source\PSoC5/PSI.c **** *
1070:Generated_Source\PSoC5/PSI.c **** * Summary:
1071:Generated_Source\PSoC5/PSI.c **** *  Converts the ADC output to uVolts as a 32-bit integer. For example,
1072:Generated_Source\PSoC5/PSI.c **** *  if the ADC measured -0.02345 Volts, the return value would be -23450 uVolts.
1073:Generated_Source\PSoC5/PSI.c **** *
1074:Generated_Source\PSoC5/PSI.c **** * Parameters:
1075:Generated_Source\PSoC5/PSI.c **** *  int32 adcCounts: Result from the ADC conversion.
1076:Generated_Source\PSoC5/PSI.c **** *
1077:Generated_Source\PSoC5/PSI.c **** * Return:
1078:Generated_Source\PSoC5/PSI.c **** *  int32:  Result in uVolts
1079:Generated_Source\PSoC5/PSI.c **** *
1080:Generated_Source\PSoC5/PSI.c **** * Global variables:
1081:Generated_Source\PSoC5/PSI.c **** *  PSI_CountsPerVolt:  used to convert ADC counts to mVolts.
1082:Generated_Source\PSoC5/PSI.c **** *  PSI_Offset:  Used as the offset while converting ADC counts
1083:Generated_Source\PSoC5/PSI.c **** *   to mVolts.
1084:Generated_Source\PSoC5/PSI.c **** *
1085:Generated_Source\PSoC5/PSI.c **** * Theory:
1086:Generated_Source\PSoC5/PSI.c **** *  Care must be taken to not exceed the maximum value for a 31 bit signed
1087:Generated_Source\PSoC5/PSI.c **** *  number in the conversion to uVolts and at the same time not lose resolution.
1088:Generated_Source\PSoC5/PSI.c **** *
1089:Generated_Source\PSoC5/PSI.c **** *  uVolts = ((A * adcCounts) / ((int32)PSI_CountsPerVolt / B));
1090:Generated_Source\PSoC5/PSI.c **** *
1091:Generated_Source\PSoC5/PSI.c **** *******************************************************************************/
1092:Generated_Source\PSoC5/PSI.c **** int32 PSI_CountsTo_uVolts(int32 adcCounts) 
1093:Generated_Source\PSoC5/PSI.c **** {
1094:Generated_Source\PSoC5/PSI.c **** 
1095:Generated_Source\PSoC5/PSI.c ****     int32 uVolts;
1096:Generated_Source\PSoC5/PSI.c ****     int32 coefA;
1097:Generated_Source\PSoC5/PSI.c ****     int32 coefB;
1098:Generated_Source\PSoC5/PSI.c ****     uint8 resolution;
1099:Generated_Source\PSoC5/PSI.c **** 
1100:Generated_Source\PSoC5/PSI.c ****     /* Set the resolution based on the configuration */
1101:Generated_Source\PSoC5/PSI.c ****     /* Convert adcCounts to the right align if left option selected */
1102:Generated_Source\PSoC5/PSI.c ****     if (PSI_Config == PSI_CFG1)
1103:Generated_Source\PSoC5/PSI.c ****     {
1104:Generated_Source\PSoC5/PSI.c ****         resolution = PSI_CFG1_RESOLUTION;
1105:Generated_Source\PSoC5/PSI.c ****         #if(PSI_CFG1_DEC_DIV != 0)
1106:Generated_Source\PSoC5/PSI.c ****             adcCounts /= PSI_CFG1_DEC_DIV;
1107:Generated_Source\PSoC5/PSI.c ****         #endif /* PSI_CFG1_DEC_DIV */
1108:Generated_Source\PSoC5/PSI.c ****     }
1109:Generated_Source\PSoC5/PSI.c ****     else if (PSI_Config == PSI_CFG2)
1110:Generated_Source\PSoC5/PSI.c ****     {
1111:Generated_Source\PSoC5/PSI.c ****         resolution = PSI_CFG2_RESOLUTION;
1112:Generated_Source\PSoC5/PSI.c ****         #if(PSI_CFG2_DEC_DIV != 0)
1113:Generated_Source\PSoC5/PSI.c ****             adcCounts /= PSI_CFG2_DEC_DIV;
1114:Generated_Source\PSoC5/PSI.c ****         #endif /* PSI_CFG2_DEC_DIV */
ARM GAS  C:\Users\scott\AppData\Local\Temp\cciBmnUj.s 			page 21


1115:Generated_Source\PSoC5/PSI.c ****     }
1116:Generated_Source\PSoC5/PSI.c ****     else if (PSI_Config == PSI_CFG3)
1117:Generated_Source\PSoC5/PSI.c ****     {
1118:Generated_Source\PSoC5/PSI.c ****         resolution = PSI_CFG3_RESOLUTION;
1119:Generated_Source\PSoC5/PSI.c ****         #if(PSI_CFG3_DEC_DIV != 0)
1120:Generated_Source\PSoC5/PSI.c ****             adcCounts /= PSI_CFG3_DEC_DIV;
1121:Generated_Source\PSoC5/PSI.c ****         #endif /* PSI_CFG3_DEC_DIV */
1122:Generated_Source\PSoC5/PSI.c ****     }
1123:Generated_Source\PSoC5/PSI.c ****     else
1124:Generated_Source\PSoC5/PSI.c ****     {
1125:Generated_Source\PSoC5/PSI.c ****         resolution = PSI_CFG4_RESOLUTION;
1126:Generated_Source\PSoC5/PSI.c ****         #if(PSI_CFG4_DEC_DIV != 0)
1127:Generated_Source\PSoC5/PSI.c ****             adcCounts /= PSI_CFG4_DEC_DIV;
1128:Generated_Source\PSoC5/PSI.c ****         #endif /* PSI_CFG4_DEC_DIV */
1129:Generated_Source\PSoC5/PSI.c ****     }
1130:Generated_Source\PSoC5/PSI.c **** 
1131:Generated_Source\PSoC5/PSI.c ****     switch (resolution)
1132:Generated_Source\PSoC5/PSI.c ****     {
1133:Generated_Source\PSoC5/PSI.c ****         #if( (PSI_CFG1_RESOLUTION == PSI__BITS_12) || \
1134:Generated_Source\PSoC5/PSI.c ****              (PSI_CFG2_RESOLUTION == PSI__BITS_12) || \
1135:Generated_Source\PSoC5/PSI.c ****              (PSI_CFG3_RESOLUTION == PSI__BITS_12) || \
1136:Generated_Source\PSoC5/PSI.c ****              (PSI_CFG4_RESOLUTION == PSI__BITS_12) )
1137:Generated_Source\PSoC5/PSI.c ****             case (uint8)PSI__BITS_12:
1138:Generated_Source\PSoC5/PSI.c ****                 coefA = PSI_1UV_COUNTS / PSI_DIVISOR_2;
1139:Generated_Source\PSoC5/PSI.c ****                 coefB = PSI_DIVISOR_2;
1140:Generated_Source\PSoC5/PSI.c ****                 break;
1141:Generated_Source\PSoC5/PSI.c ****         #endif /* PSI__BITS_12 */    
1142:Generated_Source\PSoC5/PSI.c ****         #if( (PSI_CFG1_RESOLUTION == PSI__BITS_13) || \
1143:Generated_Source\PSoC5/PSI.c ****              (PSI_CFG2_RESOLUTION == PSI__BITS_13) || \
1144:Generated_Source\PSoC5/PSI.c ****              (PSI_CFG3_RESOLUTION == PSI__BITS_13) || \
1145:Generated_Source\PSoC5/PSI.c ****              (PSI_CFG4_RESOLUTION == PSI__BITS_13) )
1146:Generated_Source\PSoC5/PSI.c ****             case (uint8)PSI__BITS_13:
1147:Generated_Source\PSoC5/PSI.c ****                 coefA = PSI_1UV_COUNTS / PSI_DIVISOR_4;
1148:Generated_Source\PSoC5/PSI.c ****                 coefB = PSI_DIVISOR_4;
1149:Generated_Source\PSoC5/PSI.c ****                 break;
1150:Generated_Source\PSoC5/PSI.c ****         #endif /* PSI__BITS_13 */    
1151:Generated_Source\PSoC5/PSI.c ****         #if( (PSI_CFG1_RESOLUTION == PSI__BITS_14) || \
1152:Generated_Source\PSoC5/PSI.c ****              (PSI_CFG2_RESOLUTION == PSI__BITS_14) || \
1153:Generated_Source\PSoC5/PSI.c ****              (PSI_CFG3_RESOLUTION == PSI__BITS_14) || \
1154:Generated_Source\PSoC5/PSI.c ****              (PSI_CFG4_RESOLUTION == PSI__BITS_14) )
1155:Generated_Source\PSoC5/PSI.c ****             case (uint8)PSI__BITS_14:
1156:Generated_Source\PSoC5/PSI.c ****                 coefA = PSI_1UV_COUNTS / PSI_DIVISOR_8;
1157:Generated_Source\PSoC5/PSI.c ****                 coefB = PSI_DIVISOR_8;
1158:Generated_Source\PSoC5/PSI.c ****                 break;
1159:Generated_Source\PSoC5/PSI.c ****         #endif /* PSI__BITS_14 */    
1160:Generated_Source\PSoC5/PSI.c ****         #if( (PSI_CFG1_RESOLUTION == PSI__BITS_15) || \
1161:Generated_Source\PSoC5/PSI.c ****              (PSI_CFG2_RESOLUTION == PSI__BITS_15) || \
1162:Generated_Source\PSoC5/PSI.c ****              (PSI_CFG3_RESOLUTION == PSI__BITS_15) || \
1163:Generated_Source\PSoC5/PSI.c ****              (PSI_CFG4_RESOLUTION == PSI__BITS_15) )
1164:Generated_Source\PSoC5/PSI.c ****             case (uint8)PSI__BITS_15:
1165:Generated_Source\PSoC5/PSI.c ****                 coefA = PSI_1UV_COUNTS / PSI_DIVISOR_16;
1166:Generated_Source\PSoC5/PSI.c ****                 coefB = PSI_DIVISOR_16;
1167:Generated_Source\PSoC5/PSI.c ****                 break;
1168:Generated_Source\PSoC5/PSI.c ****         #endif /* PSI__BITS_15 */    
1169:Generated_Source\PSoC5/PSI.c ****         #if( (PSI_CFG1_RESOLUTION == PSI__BITS_16) || \
1170:Generated_Source\PSoC5/PSI.c ****              (PSI_CFG2_RESOLUTION == PSI__BITS_16) || \
1171:Generated_Source\PSoC5/PSI.c ****              (PSI_CFG3_RESOLUTION == PSI__BITS_16) || \
ARM GAS  C:\Users\scott\AppData\Local\Temp\cciBmnUj.s 			page 22


1172:Generated_Source\PSoC5/PSI.c ****              (PSI_CFG4_RESOLUTION == PSI__BITS_16) )
1173:Generated_Source\PSoC5/PSI.c ****             case (uint8)PSI__BITS_16:
1174:Generated_Source\PSoC5/PSI.c ****                 coefA = PSI_1UV_COUNTS / PSI_DIVISOR_32;
1175:Generated_Source\PSoC5/PSI.c ****                 coefB = PSI_DIVISOR_32;
1176:Generated_Source\PSoC5/PSI.c ****                 break;
1177:Generated_Source\PSoC5/PSI.c ****         #endif /* PSI__BITS_16 */    
1178:Generated_Source\PSoC5/PSI.c ****         #if( (PSI_CFG1_RESOLUTION == PSI__BITS_17) || \
1179:Generated_Source\PSoC5/PSI.c ****              (PSI_CFG2_RESOLUTION == PSI__BITS_17) || \
1180:Generated_Source\PSoC5/PSI.c ****              (PSI_CFG3_RESOLUTION == PSI__BITS_17) || \
1181:Generated_Source\PSoC5/PSI.c ****              (PSI_CFG4_RESOLUTION == PSI__BITS_17) )
1182:Generated_Source\PSoC5/PSI.c ****             case (uint8)PSI__BITS_17:
1183:Generated_Source\PSoC5/PSI.c ****                 coefA = PSI_1UV_COUNTS / PSI_DIVISOR_64;
1184:Generated_Source\PSoC5/PSI.c ****                 coefB = PSI_DIVISOR_64;
1185:Generated_Source\PSoC5/PSI.c ****                 break;
1186:Generated_Source\PSoC5/PSI.c ****         #endif /* PSI__BITS_17 */    
1187:Generated_Source\PSoC5/PSI.c ****         #if( (PSI_CFG1_RESOLUTION == PSI__BITS_18) || \
1188:Generated_Source\PSoC5/PSI.c ****              (PSI_CFG2_RESOLUTION == PSI__BITS_18) || \
1189:Generated_Source\PSoC5/PSI.c ****              (PSI_CFG3_RESOLUTION == PSI__BITS_18) || \
1190:Generated_Source\PSoC5/PSI.c ****              (PSI_CFG4_RESOLUTION == PSI__BITS_18) )
1191:Generated_Source\PSoC5/PSI.c ****             case (uint8)PSI__BITS_18:
1192:Generated_Source\PSoC5/PSI.c ****                 coefA = PSI_1UV_COUNTS / PSI_DIVISOR_125;
1193:Generated_Source\PSoC5/PSI.c ****                 coefB = PSI_DIVISOR_125;
1194:Generated_Source\PSoC5/PSI.c ****                 break;
1195:Generated_Source\PSoC5/PSI.c ****         #endif /* PSI__BITS_18 */    
1196:Generated_Source\PSoC5/PSI.c ****         #if( (PSI_CFG1_RESOLUTION == PSI__BITS_19) || \
1197:Generated_Source\PSoC5/PSI.c ****              (PSI_CFG2_RESOLUTION == PSI__BITS_19) || \
1198:Generated_Source\PSoC5/PSI.c ****              (PSI_CFG3_RESOLUTION == PSI__BITS_19) || \
1199:Generated_Source\PSoC5/PSI.c ****              (PSI_CFG4_RESOLUTION == PSI__BITS_19) )
1200:Generated_Source\PSoC5/PSI.c ****             case (uint8)PSI__BITS_19:
1201:Generated_Source\PSoC5/PSI.c ****                 coefA = PSI_1UV_COUNTS / PSI_DIVISOR_250;
1202:Generated_Source\PSoC5/PSI.c ****                 coefB = PSI_DIVISOR_250;
1203:Generated_Source\PSoC5/PSI.c ****                 break;
1204:Generated_Source\PSoC5/PSI.c ****         #endif /* PSI__BITS_19 */    
1205:Generated_Source\PSoC5/PSI.c ****         #if( (PSI_CFG1_RESOLUTION == PSI__BITS_20) || \
1206:Generated_Source\PSoC5/PSI.c ****              (PSI_CFG2_RESOLUTION == PSI__BITS_20) || \
1207:Generated_Source\PSoC5/PSI.c ****              (PSI_CFG3_RESOLUTION == PSI__BITS_20) || \
1208:Generated_Source\PSoC5/PSI.c ****              (PSI_CFG4_RESOLUTION == PSI__BITS_20) )
1209:Generated_Source\PSoC5/PSI.c ****             case (uint8)PSI__BITS_20:
1210:Generated_Source\PSoC5/PSI.c ****                 coefA = PSI_1UV_COUNTS / PSI_DIVISOR_500;
1211:Generated_Source\PSoC5/PSI.c ****                 coefB = PSI_DIVISOR_500;
1212:Generated_Source\PSoC5/PSI.c ****                 break;
1213:Generated_Source\PSoC5/PSI.c ****         #endif /* PSI__BITS_20 */    
1214:Generated_Source\PSoC5/PSI.c ****         default:    /* resolution < 12 */
1215:Generated_Source\PSoC5/PSI.c ****             /* 11 bits ADC + 2^20(1048576) = 31 bits */
1216:Generated_Source\PSoC5/PSI.c ****             coefA = PSI_1UV_COUNTS;
1217:Generated_Source\PSoC5/PSI.c ****             coefB = PSI_DIVISOR_1;
1218:Generated_Source\PSoC5/PSI.c ****             break;
1219:Generated_Source\PSoC5/PSI.c ****     }
1220:Generated_Source\PSoC5/PSI.c ****     coefB = PSI_CountsPerVolt / coefB;
1221:Generated_Source\PSoC5/PSI.c ****     uVolts = ((coefA * adcCounts) / coefB) - ((coefA * PSI_Offset) / coefB);
1222:Generated_Source\PSoC5/PSI.c **** 
1223:Generated_Source\PSoC5/PSI.c ****     return( uVolts );
1224:Generated_Source\PSoC5/PSI.c **** }
1225:Generated_Source\PSoC5/PSI.c **** 
1226:Generated_Source\PSoC5/PSI.c **** 
1227:Generated_Source\PSoC5/PSI.c **** /*******************************************************************************
1228:Generated_Source\PSoC5/PSI.c **** * Function Name: PSI_InitConfig(uint8 config)
ARM GAS  C:\Users\scott\AppData\Local\Temp\cciBmnUj.s 			page 23


1229:Generated_Source\PSoC5/PSI.c **** ********************************************************************************
1230:Generated_Source\PSoC5/PSI.c **** *
1231:Generated_Source\PSoC5/PSI.c **** * Summary:
1232:Generated_Source\PSoC5/PSI.c **** *  Initializes all registers based on customizer settings
1233:Generated_Source\PSoC5/PSI.c **** *
1234:Generated_Source\PSoC5/PSI.c **** * Parameters:
1235:Generated_Source\PSoC5/PSI.c **** *   void
1236:Generated_Source\PSoC5/PSI.c **** *
1237:Generated_Source\PSoC5/PSI.c **** * Return:
1238:Generated_Source\PSoC5/PSI.c **** *  None
1239:Generated_Source\PSoC5/PSI.c **** *
1240:Generated_Source\PSoC5/PSI.c **** * Global variables:
1241:Generated_Source\PSoC5/PSI.c **** *  PSI_CountsPerVolt:  Used to set the default counts per volt.
1242:Generated_Source\PSoC5/PSI.c **** *
1243:Generated_Source\PSoC5/PSI.c **** * Side Effects: Rewrites the coherency set by PSI_SetCoherency()
1244:Generated_Source\PSoC5/PSI.c **** *   API to the default value.
1245:Generated_Source\PSoC5/PSI.c **** *
1246:Generated_Source\PSoC5/PSI.c **** *******************************************************************************/
1247:Generated_Source\PSoC5/PSI.c **** static void PSI_InitConfig(uint8 config) 
1248:Generated_Source\PSoC5/PSI.c **** {
1249:Generated_Source\PSoC5/PSI.c ****     PSI_stopConversion = 0u;
1250:Generated_Source\PSoC5/PSI.c **** 
1251:Generated_Source\PSoC5/PSI.c ****     if (config == 1u)
1252:Generated_Source\PSoC5/PSI.c ****     {
1253:Generated_Source\PSoC5/PSI.c ****         /* Default Config */
1254:Generated_Source\PSoC5/PSI.c ****         PSI_DEC_CR_REG      = PSI_CFG1_DEC_CR;
1255:Generated_Source\PSoC5/PSI.c ****         PSI_DEC_SHIFT1_REG  = PSI_CFG1_DEC_SHIFT1;
1256:Generated_Source\PSoC5/PSI.c ****         PSI_DEC_SHIFT2_REG  = PSI_CFG1_DEC_SHIFT2;
1257:Generated_Source\PSoC5/PSI.c ****         PSI_DEC_DR2_REG     = PSI_CFG1_DEC_DR2;
1258:Generated_Source\PSoC5/PSI.c ****         PSI_DEC_DR2H_REG    = PSI_CFG1_DEC_DR2H;
1259:Generated_Source\PSoC5/PSI.c ****         PSI_DEC_DR1_REG     = PSI_CFG1_DEC_DR1;
1260:Generated_Source\PSoC5/PSI.c ****         PSI_DEC_OCOR_REG    = PSI_CFG1_DEC_OCOR;
1261:Generated_Source\PSoC5/PSI.c ****         PSI_DEC_OCORM_REG   = PSI_CFG1_DEC_OCORM;
1262:Generated_Source\PSoC5/PSI.c ****         PSI_DEC_OCORH_REG   = PSI_CFG1_DEC_OCORH;
1263:Generated_Source\PSoC5/PSI.c ****         PSI_DEC_COHER_REG   = PSI_CFG1_DEC_COHER;
1264:Generated_Source\PSoC5/PSI.c **** 
1265:Generated_Source\PSoC5/PSI.c ****         PSI_DSM_CR4_REG     = PSI_CFG1_DSM_CR4;
1266:Generated_Source\PSoC5/PSI.c ****         PSI_DSM_CR5_REG     = PSI_CFG1_DSM_CR5;
1267:Generated_Source\PSoC5/PSI.c ****         PSI_DSM_CR6_REG     = PSI_CFG1_DSM_CR6;
1268:Generated_Source\PSoC5/PSI.c ****         PSI_DSM_CR7_REG     = PSI_CFG1_DSM_CR7;
1269:Generated_Source\PSoC5/PSI.c ****         PSI_DSM_CR10_REG    = PSI_CFG1_DSM_CR10;
1270:Generated_Source\PSoC5/PSI.c ****         PSI_DSM_CR11_REG    = PSI_CFG1_DSM_CR11;
1271:Generated_Source\PSoC5/PSI.c ****         PSI_DSM_CR12_REG    = PSI_CFG1_DSM_CR12;
1272:Generated_Source\PSoC5/PSI.c ****         PSI_DSM_CR14_REG    = PSI_CFG1_DSM_CR14;
1273:Generated_Source\PSoC5/PSI.c ****         PSI_DSM_CR15_REG    = PSI_CFG1_DSM_CR15;
1274:Generated_Source\PSoC5/PSI.c ****         PSI_DSM_CR16_REG    = PSI_CFG1_DSM_CR16;
1275:Generated_Source\PSoC5/PSI.c ****         PSI_DSM_CR17_REG    = PSI_CFG1_DSM_CR17;
1276:Generated_Source\PSoC5/PSI.c ****         /* Set DSM_REF0_REG by disabling and enabling the PRESS circuit */
1277:Generated_Source\PSoC5/PSI.c ****         PSI_SetDSMRef0Reg(PSI_CFG1_DSM_REF0);
1278:Generated_Source\PSoC5/PSI.c ****         PSI_DSM_REF2_REG    = PSI_CFG1_DSM_REF2;
1279:Generated_Source\PSoC5/PSI.c ****         PSI_DSM_REF3_REG    = PSI_CFG1_DSM_REF3;
1280:Generated_Source\PSoC5/PSI.c **** 
1281:Generated_Source\PSoC5/PSI.c ****         PSI_DSM_BUF0_REG    = PSI_CFG1_DSM_BUF0;
1282:Generated_Source\PSoC5/PSI.c ****         PSI_DSM_BUF1_REG    = PSI_CFG1_DSM_BUF1;
1283:Generated_Source\PSoC5/PSI.c ****         PSI_DSM_BUF2_REG    = PSI_CFG1_DSM_BUF2;
1284:Generated_Source\PSoC5/PSI.c ****         PSI_DSM_BUF3_REG    = PSI_CFG1_DSM_BUF3;
1285:Generated_Source\PSoC5/PSI.c **** 
ARM GAS  C:\Users\scott\AppData\Local\Temp\cciBmnUj.s 			page 24


1286:Generated_Source\PSoC5/PSI.c ****         /* To select either Vssa or Vref to -ve input of DSM depending on
1287:Generated_Source\PSoC5/PSI.c ****         *  the input  range selected.
1288:Generated_Source\PSoC5/PSI.c ****         */
1289:Generated_Source\PSoC5/PSI.c ****         #if(PSI_DEFAULT_INPUT_MODE)
1290:Generated_Source\PSoC5/PSI.c ****             #if (PSI_CFG1_INPUT_RANGE == PSI_IR_VSSA_TO_2VREF)
1291:Generated_Source\PSoC5/PSI.c ****                 PSI_AMux_Select(1u);
1292:Generated_Source\PSoC5/PSI.c ****             #else
1293:Generated_Source\PSoC5/PSI.c ****                 PSI_AMux_Select(0u);
1294:Generated_Source\PSoC5/PSI.c ****             #endif /* PSI_IR_VSSA_TO_2VREF) */
1295:Generated_Source\PSoC5/PSI.c ****         #endif /* PSI_DEFAULT_INPUT_MODE */
1296:Generated_Source\PSoC5/PSI.c **** 
1297:Generated_Source\PSoC5/PSI.c ****         /* Set the Conversion stop if resolution is above 16 bit and conversion
1298:Generated_Source\PSoC5/PSI.c ****         *   mode is Single sample
1299:Generated_Source\PSoC5/PSI.c ****         */
1300:Generated_Source\PSoC5/PSI.c ****         #if(PSI_CFG1_RESOLUTION > 16 && \
1301:Generated_Source\PSoC5/PSI.c ****             PSI_CFG1_CONV_MODE == PSI_MODE_SINGLE_SAMPLE)
1302:Generated_Source\PSoC5/PSI.c ****             PSI_stopConversion = 1u;
1303:Generated_Source\PSoC5/PSI.c ****         #endif /* Single sample with resolution above 16 bits. */
1304:Generated_Source\PSoC5/PSI.c **** 
1305:Generated_Source\PSoC5/PSI.c ****         PSI_CountsPerVolt = (int32)PSI_CFG1_COUNTS_PER_VOLT;
1306:Generated_Source\PSoC5/PSI.c **** 
1307:Generated_Source\PSoC5/PSI.c ****         PSI_Ext_CP_Clk_SetDividerRegister(PSI_CFG1_CP_CLK_DIVIDER, 1u);
1308:Generated_Source\PSoC5/PSI.c **** 
1309:Generated_Source\PSoC5/PSI.c ****         /* This is only valid if there is an internal clock */
1310:Generated_Source\PSoC5/PSI.c ****         #if(PSI_DEFAULT_INTERNAL_CLK)
1311:Generated_Source\PSoC5/PSI.c ****             PSI_theACLK_SetDividerRegister(PSI_CFG1_ADC_CLK_DIVIDER, 1u);
1312:Generated_Source\PSoC5/PSI.c ****         #endif /* PSI_DEFAULT_INTERNAL_CLK */
1313:Generated_Source\PSoC5/PSI.c **** 
1314:Generated_Source\PSoC5/PSI.c ****         #if(PSI_IRQ_REMOVE == 0u)
1315:Generated_Source\PSoC5/PSI.c ****             /* Set interrupt vector */
1316:Generated_Source\PSoC5/PSI.c ****             (void)CyIntSetVector(PSI_INTC_NUMBER, &PSI_ISR1);
1317:Generated_Source\PSoC5/PSI.c ****         #endif   /* End PSI_IRQ_REMOVE */
1318:Generated_Source\PSoC5/PSI.c ****     }
1319:Generated_Source\PSoC5/PSI.c **** 
1320:Generated_Source\PSoC5/PSI.c ****     #if(PSI_DEFAULT_NUM_CONFIGS > 1)
1321:Generated_Source\PSoC5/PSI.c ****         if(config == 2u)
1322:Generated_Source\PSoC5/PSI.c ****         {
1323:Generated_Source\PSoC5/PSI.c ****             /* Second Config */
1324:Generated_Source\PSoC5/PSI.c ****             PSI_DEC_CR_REG      = PSI_CFG2_DEC_CR;
1325:Generated_Source\PSoC5/PSI.c ****             PSI_DEC_SHIFT1_REG  = PSI_CFG2_DEC_SHIFT1;
1326:Generated_Source\PSoC5/PSI.c ****             PSI_DEC_SHIFT2_REG  = PSI_CFG2_DEC_SHIFT2;
1327:Generated_Source\PSoC5/PSI.c ****             PSI_DEC_DR2_REG     = PSI_CFG2_DEC_DR2;
1328:Generated_Source\PSoC5/PSI.c ****             PSI_DEC_DR2H_REG    = PSI_CFG2_DEC_DR2H;
1329:Generated_Source\PSoC5/PSI.c ****             PSI_DEC_DR1_REG     = PSI_CFG2_DEC_DR1;
1330:Generated_Source\PSoC5/PSI.c ****             PSI_DEC_OCOR_REG    = PSI_CFG2_DEC_OCOR;
1331:Generated_Source\PSoC5/PSI.c ****             PSI_DEC_OCORM_REG   = PSI_CFG2_DEC_OCORM;
1332:Generated_Source\PSoC5/PSI.c ****             PSI_DEC_OCORH_REG   = PSI_CFG2_DEC_OCORH;
1333:Generated_Source\PSoC5/PSI.c ****             PSI_DEC_COHER_REG   = PSI_CFG2_DEC_COHER;
1334:Generated_Source\PSoC5/PSI.c **** 
1335:Generated_Source\PSoC5/PSI.c ****             PSI_DSM_CR4_REG     = PSI_CFG2_DSM_CR4;
1336:Generated_Source\PSoC5/PSI.c ****             PSI_DSM_CR5_REG     = PSI_CFG2_DSM_CR5;
1337:Generated_Source\PSoC5/PSI.c ****             PSI_DSM_CR6_REG     = PSI_CFG2_DSM_CR6;
1338:Generated_Source\PSoC5/PSI.c ****             PSI_DSM_CR7_REG     = PSI_CFG2_DSM_CR7;
1339:Generated_Source\PSoC5/PSI.c ****             PSI_DSM_CR10_REG    = PSI_CFG2_DSM_CR10;
1340:Generated_Source\PSoC5/PSI.c ****             PSI_DSM_CR11_REG    = PSI_CFG2_DSM_CR11;
1341:Generated_Source\PSoC5/PSI.c ****             PSI_DSM_CR12_REG    = PSI_CFG2_DSM_CR12;
1342:Generated_Source\PSoC5/PSI.c ****             PSI_DSM_CR14_REG    = PSI_CFG2_DSM_CR14;
ARM GAS  C:\Users\scott\AppData\Local\Temp\cciBmnUj.s 			page 25


1343:Generated_Source\PSoC5/PSI.c ****             PSI_DSM_CR15_REG    = PSI_CFG2_DSM_CR15;
1344:Generated_Source\PSoC5/PSI.c ****             PSI_DSM_CR16_REG    = PSI_CFG2_DSM_CR16;
1345:Generated_Source\PSoC5/PSI.c ****             PSI_DSM_CR17_REG    = PSI_CFG2_DSM_CR17;
1346:Generated_Source\PSoC5/PSI.c ****             /* Set DSM_REF0_REG by disabling and enabling the PRESS cirucit */
1347:Generated_Source\PSoC5/PSI.c ****             PSI_SetDSMRef0Reg(PSI_CFG2_DSM_REF0);
1348:Generated_Source\PSoC5/PSI.c ****             PSI_DSM_REF2_REG    = PSI_CFG2_DSM_REF2;
1349:Generated_Source\PSoC5/PSI.c ****             PSI_DSM_REF3_REG    = PSI_CFG2_DSM_REF3;
1350:Generated_Source\PSoC5/PSI.c **** 
1351:Generated_Source\PSoC5/PSI.c ****             PSI_DSM_BUF0_REG    = PSI_CFG2_DSM_BUF0;
1352:Generated_Source\PSoC5/PSI.c ****             PSI_DSM_BUF1_REG    = PSI_CFG2_DSM_BUF1;
1353:Generated_Source\PSoC5/PSI.c ****             PSI_DSM_BUF2_REG    = PSI_CFG2_DSM_BUF2;
1354:Generated_Source\PSoC5/PSI.c ****             PSI_DSM_BUF3_REG    = PSI_CFG2_DSM_BUF3;
1355:Generated_Source\PSoC5/PSI.c **** 
1356:Generated_Source\PSoC5/PSI.c ****             /* To select either Vssa or Vref to -ve input of DSM depending on
1357:Generated_Source\PSoC5/PSI.c ****             *  the input range selected.
1358:Generated_Source\PSoC5/PSI.c ****             */
1359:Generated_Source\PSoC5/PSI.c **** 
1360:Generated_Source\PSoC5/PSI.c ****             #if(PSI_DEFAULT_INPUT_MODE)
1361:Generated_Source\PSoC5/PSI.c ****                 #if (PSI_CFG2_INPUT_RANGE == PSI_IR_VSSA_TO_2VREF)
1362:Generated_Source\PSoC5/PSI.c ****                     PSI_AMux_Select(1u);
1363:Generated_Source\PSoC5/PSI.c ****                 #else
1364:Generated_Source\PSoC5/PSI.c ****                     PSI_AMux_Select(0u);
1365:Generated_Source\PSoC5/PSI.c ****                 #endif /* PSI_IR_VSSA_TO_2VREF) */
1366:Generated_Source\PSoC5/PSI.c ****             #endif /* PSI_DEFAULT_INPUT_MODE */
1367:Generated_Source\PSoC5/PSI.c **** 
1368:Generated_Source\PSoC5/PSI.c ****             /* Set the Conversion stop if resolution is above 16 bit and
1369:Generated_Source\PSoC5/PSI.c ****             *   conversion mode is Single sample
1370:Generated_Source\PSoC5/PSI.c ****             */
1371:Generated_Source\PSoC5/PSI.c ****             #if(PSI_CFG2_RESOLUTION > 16 && \
1372:Generated_Source\PSoC5/PSI.c ****                 PSI_CFG2_CONV_MODE == PSI_MODE_SINGLE_SAMPLE)
1373:Generated_Source\PSoC5/PSI.c ****                 PSI_stopConversion = 1u;
1374:Generated_Source\PSoC5/PSI.c ****             #endif /* Single sample with resolution above 16 bits. */
1375:Generated_Source\PSoC5/PSI.c **** 
1376:Generated_Source\PSoC5/PSI.c ****             PSI_CountsPerVolt = (int32)PSI_CFG2_COUNTS_PER_VOLT;
1377:Generated_Source\PSoC5/PSI.c **** 
1378:Generated_Source\PSoC5/PSI.c ****             PSI_Ext_CP_Clk_SetDividerRegister(PSI_CFG2_CP_CLK_DIVIDER, 1u);
1379:Generated_Source\PSoC5/PSI.c **** 
1380:Generated_Source\PSoC5/PSI.c ****             /* This is only valid if there is an internal clock */
1381:Generated_Source\PSoC5/PSI.c ****             #if(PSI_DEFAULT_INTERNAL_CLK)
1382:Generated_Source\PSoC5/PSI.c ****                 PSI_theACLK_SetDividerRegister(PSI_CFG2_ADC_CLK_DIVIDER, 1u);
1383:Generated_Source\PSoC5/PSI.c ****             #endif /* PSI_DEFAULT_INTERNAL_CLK */
1384:Generated_Source\PSoC5/PSI.c **** 
1385:Generated_Source\PSoC5/PSI.c ****             #if(PSI_IRQ_REMOVE == 0u)
1386:Generated_Source\PSoC5/PSI.c ****                 /* Set interrupt vector */
1387:Generated_Source\PSoC5/PSI.c ****                 (void)CyIntSetVector(PSI_INTC_NUMBER, &PSI_ISR2);
1388:Generated_Source\PSoC5/PSI.c ****             #endif   /* End PSI_IRQ_REMOVE */
1389:Generated_Source\PSoC5/PSI.c ****         }
1390:Generated_Source\PSoC5/PSI.c ****     #endif /* PSI_DEFAULT_NUM_CONFIGS > 1 */
1391:Generated_Source\PSoC5/PSI.c **** 
1392:Generated_Source\PSoC5/PSI.c ****     #if(PSI_DEFAULT_NUM_CONFIGS > 2)
1393:Generated_Source\PSoC5/PSI.c ****         if(config == 3u)
1394:Generated_Source\PSoC5/PSI.c ****         {
1395:Generated_Source\PSoC5/PSI.c ****             /* Third Config */
1396:Generated_Source\PSoC5/PSI.c ****             PSI_DEC_CR_REG      = PSI_CFG3_DEC_CR;
1397:Generated_Source\PSoC5/PSI.c ****             PSI_DEC_SHIFT1_REG  = PSI_CFG3_DEC_SHIFT1;
1398:Generated_Source\PSoC5/PSI.c ****             PSI_DEC_SHIFT2_REG  = PSI_CFG3_DEC_SHIFT2;
1399:Generated_Source\PSoC5/PSI.c ****             PSI_DEC_DR2_REG     = PSI_CFG3_DEC_DR2;
ARM GAS  C:\Users\scott\AppData\Local\Temp\cciBmnUj.s 			page 26


1400:Generated_Source\PSoC5/PSI.c ****             PSI_DEC_DR2H_REG    = PSI_CFG3_DEC_DR2H;
1401:Generated_Source\PSoC5/PSI.c ****             PSI_DEC_DR1_REG     = PSI_CFG3_DEC_DR1;
1402:Generated_Source\PSoC5/PSI.c ****             PSI_DEC_OCOR_REG    = PSI_CFG3_DEC_OCOR;
1403:Generated_Source\PSoC5/PSI.c ****             PSI_DEC_OCORM_REG   = PSI_CFG3_DEC_OCORM;
1404:Generated_Source\PSoC5/PSI.c ****             PSI_DEC_OCORH_REG   = PSI_CFG3_DEC_OCORH;
1405:Generated_Source\PSoC5/PSI.c ****             PSI_DEC_COHER_REG   = PSI_CFG3_DEC_COHER;
1406:Generated_Source\PSoC5/PSI.c **** 
1407:Generated_Source\PSoC5/PSI.c ****             PSI_DSM_CR4_REG     = PSI_CFG3_DSM_CR4;
1408:Generated_Source\PSoC5/PSI.c ****             PSI_DSM_CR5_REG     = PSI_CFG3_DSM_CR5;
1409:Generated_Source\PSoC5/PSI.c ****             PSI_DSM_CR6_REG     = PSI_CFG3_DSM_CR6;
1410:Generated_Source\PSoC5/PSI.c ****             PSI_DSM_CR7_REG     = PSI_CFG3_DSM_CR7;
1411:Generated_Source\PSoC5/PSI.c ****             PSI_DSM_CR10_REG    = PSI_CFG3_DSM_CR10;
1412:Generated_Source\PSoC5/PSI.c ****             PSI_DSM_CR11_REG    = PSI_CFG3_DSM_CR11;
1413:Generated_Source\PSoC5/PSI.c ****             PSI_DSM_CR12_REG    = PSI_CFG3_DSM_CR12;
1414:Generated_Source\PSoC5/PSI.c ****             PSI_DSM_CR14_REG    = PSI_CFG3_DSM_CR14;
1415:Generated_Source\PSoC5/PSI.c ****             PSI_DSM_CR15_REG    = PSI_CFG3_DSM_CR15;
1416:Generated_Source\PSoC5/PSI.c ****             PSI_DSM_CR16_REG    = PSI_CFG3_DSM_CR16;
1417:Generated_Source\PSoC5/PSI.c ****             PSI_DSM_CR17_REG    = PSI_CFG3_DSM_CR17;
1418:Generated_Source\PSoC5/PSI.c ****             /* Set DSM_REF0_REG by disabling and enabling the PRESS circuit */
1419:Generated_Source\PSoC5/PSI.c ****             PSI_SetDSMRef0Reg(PSI_CFG3_DSM_REF0);
1420:Generated_Source\PSoC5/PSI.c ****             PSI_DSM_REF2_REG    = PSI_CFG3_DSM_REF2;
1421:Generated_Source\PSoC5/PSI.c ****             PSI_DSM_REF3_REG    = PSI_CFG3_DSM_REF3;
1422:Generated_Source\PSoC5/PSI.c **** 
1423:Generated_Source\PSoC5/PSI.c ****             PSI_DSM_BUF0_REG    = PSI_CFG3_DSM_BUF0;
1424:Generated_Source\PSoC5/PSI.c ****             PSI_DSM_BUF1_REG    = PSI_CFG3_DSM_BUF1;
1425:Generated_Source\PSoC5/PSI.c ****             PSI_DSM_BUF2_REG    = PSI_CFG3_DSM_BUF2;
1426:Generated_Source\PSoC5/PSI.c ****             PSI_DSM_BUF3_REG    = PSI_CFG3_DSM_BUF3;
1427:Generated_Source\PSoC5/PSI.c **** 
1428:Generated_Source\PSoC5/PSI.c ****             /* To select either Vssa or Vref to -ve input of DSM depending on
1429:Generated_Source\PSoC5/PSI.c ****             *  the input range selected.
1430:Generated_Source\PSoC5/PSI.c ****             */
1431:Generated_Source\PSoC5/PSI.c ****             #if(PSI_DEFAULT_INPUT_MODE)
1432:Generated_Source\PSoC5/PSI.c ****                 #if (PSI_CFG3_INPUT_RANGE == PSI_IR_VSSA_TO_2VREF)
1433:Generated_Source\PSoC5/PSI.c ****                     PSI_AMux_Select(1u);
1434:Generated_Source\PSoC5/PSI.c ****                 #else
1435:Generated_Source\PSoC5/PSI.c ****                     PSI_AMux_Select(0u);
1436:Generated_Source\PSoC5/PSI.c ****                 #endif /* PSI_IR_VSSA_TO_2VREF) */
1437:Generated_Source\PSoC5/PSI.c ****             #endif /* PSI_DEFAULT_INPUT_MODE */
1438:Generated_Source\PSoC5/PSI.c **** 
1439:Generated_Source\PSoC5/PSI.c ****             /* Set the Conversion stop if resolution is above 16 bit and
1440:Generated_Source\PSoC5/PSI.c ****                conversion  mode is Single sample */
1441:Generated_Source\PSoC5/PSI.c ****             #if(PSI_CFG3_RESOLUTION > 16 && \
1442:Generated_Source\PSoC5/PSI.c ****                 PSI_CFG3_CONV_MODE == PSI_MODE_SINGLE_SAMPLE)
1443:Generated_Source\PSoC5/PSI.c ****                 PSI_stopConversion = 1u;
1444:Generated_Source\PSoC5/PSI.c ****             #endif /* Single sample with resolution above 16 bits */
1445:Generated_Source\PSoC5/PSI.c **** 
1446:Generated_Source\PSoC5/PSI.c ****             PSI_CountsPerVolt = (int32)PSI_CFG3_COUNTS_PER_VOLT;
1447:Generated_Source\PSoC5/PSI.c **** 
1448:Generated_Source\PSoC5/PSI.c ****             PSI_Ext_CP_Clk_SetDividerRegister(PSI_CFG3_CP_CLK_DIVIDER, 1u);
1449:Generated_Source\PSoC5/PSI.c **** 
1450:Generated_Source\PSoC5/PSI.c ****             /* This is only valid if there is an internal clock */
1451:Generated_Source\PSoC5/PSI.c ****             #if(PSI_DEFAULT_INTERNAL_CLK)
1452:Generated_Source\PSoC5/PSI.c ****                 PSI_theACLK_SetDividerRegister(PSI_CFG3_ADC_CLK_DIVIDER, 1u);
1453:Generated_Source\PSoC5/PSI.c ****             #endif /* PSI_DEFAULT_INTERNAL_CLK */
1454:Generated_Source\PSoC5/PSI.c **** 
1455:Generated_Source\PSoC5/PSI.c ****             #if(PSI_IRQ_REMOVE == 0u)
1456:Generated_Source\PSoC5/PSI.c ****                 /* Set interrupt vector */
ARM GAS  C:\Users\scott\AppData\Local\Temp\cciBmnUj.s 			page 27


1457:Generated_Source\PSoC5/PSI.c ****                 (void)CyIntSetVector(PSI_INTC_NUMBER, &PSI_ISR3);
1458:Generated_Source\PSoC5/PSI.c ****             #endif   /* End PSI_IRQ_REMOVE */
1459:Generated_Source\PSoC5/PSI.c ****         }
1460:Generated_Source\PSoC5/PSI.c ****     #endif /* PSI_DEFAULT_NUM_CONFIGS > 2 */
1461:Generated_Source\PSoC5/PSI.c **** 
1462:Generated_Source\PSoC5/PSI.c ****     #if(PSI_DEFAULT_NUM_CONFIGS > 3)
1463:Generated_Source\PSoC5/PSI.c ****         if (config == 4u)
1464:Generated_Source\PSoC5/PSI.c ****         {
1465:Generated_Source\PSoC5/PSI.c ****             /* Fourth Config */
1466:Generated_Source\PSoC5/PSI.c ****             PSI_DEC_CR_REG      = PSI_CFG4_DEC_CR;
1467:Generated_Source\PSoC5/PSI.c ****             PSI_DEC_SHIFT1_REG  = PSI_CFG4_DEC_SHIFT1;
1468:Generated_Source\PSoC5/PSI.c ****             PSI_DEC_SHIFT2_REG  = PSI_CFG4_DEC_SHIFT2;
1469:Generated_Source\PSoC5/PSI.c ****             PSI_DEC_DR2_REG     = PSI_CFG4_DEC_DR2;
1470:Generated_Source\PSoC5/PSI.c ****             PSI_DEC_DR2H_REG    = PSI_CFG4_DEC_DR2H;
1471:Generated_Source\PSoC5/PSI.c ****             PSI_DEC_DR1_REG     = PSI_CFG4_DEC_DR1;
1472:Generated_Source\PSoC5/PSI.c ****             PSI_DEC_OCOR_REG    = PSI_CFG4_DEC_OCOR;
1473:Generated_Source\PSoC5/PSI.c ****             PSI_DEC_OCORM_REG   = PSI_CFG4_DEC_OCORM;
1474:Generated_Source\PSoC5/PSI.c ****             PSI_DEC_OCORH_REG   = PSI_CFG4_DEC_OCORH;
1475:Generated_Source\PSoC5/PSI.c ****             PSI_DEC_COHER_REG   = PSI_CFG4_DEC_COHER;
1476:Generated_Source\PSoC5/PSI.c **** 
1477:Generated_Source\PSoC5/PSI.c ****             PSI_DSM_CR4_REG     = PSI_CFG4_DSM_CR4;
1478:Generated_Source\PSoC5/PSI.c ****             PSI_DSM_CR5_REG     = PSI_CFG4_DSM_CR5;
1479:Generated_Source\PSoC5/PSI.c ****             PSI_DSM_CR6_REG     = PSI_CFG4_DSM_CR6;
1480:Generated_Source\PSoC5/PSI.c ****             PSI_DSM_CR7_REG     = PSI_CFG4_DSM_CR7;
1481:Generated_Source\PSoC5/PSI.c ****             PSI_DSM_CR10_REG    = PSI_CFG4_DSM_CR10;
1482:Generated_Source\PSoC5/PSI.c ****             PSI_DSM_CR11_REG    = PSI_CFG4_DSM_CR11;
1483:Generated_Source\PSoC5/PSI.c ****             PSI_DSM_CR12_REG    = PSI_CFG4_DSM_CR12;
1484:Generated_Source\PSoC5/PSI.c ****             PSI_DSM_CR14_REG    = PSI_CFG4_DSM_CR14;
1485:Generated_Source\PSoC5/PSI.c ****             PSI_DSM_CR15_REG    = PSI_CFG4_DSM_CR15;
1486:Generated_Source\PSoC5/PSI.c ****             PSI_DSM_CR16_REG    = PSI_CFG4_DSM_CR16;
1487:Generated_Source\PSoC5/PSI.c ****             PSI_DSM_CR17_REG    = PSI_CFG4_DSM_CR17;
1488:Generated_Source\PSoC5/PSI.c ****             /* Set DSM_REF0_REG by disabling and enabling the PRESS circuit */
1489:Generated_Source\PSoC5/PSI.c ****             PSI_SetDSMRef0Reg(PSI_CFG4_DSM_REF0);
1490:Generated_Source\PSoC5/PSI.c ****             PSI_DSM_REF2_REG    = PSI_CFG4_DSM_REF2;
1491:Generated_Source\PSoC5/PSI.c ****             PSI_DSM_REF3_REG    = PSI_CFG4_DSM_REF3;
1492:Generated_Source\PSoC5/PSI.c **** 
1493:Generated_Source\PSoC5/PSI.c ****             PSI_DSM_BUF0_REG    = PSI_CFG4_DSM_BUF0;
1494:Generated_Source\PSoC5/PSI.c ****             PSI_DSM_BUF1_REG    = PSI_CFG4_DSM_BUF1;
1495:Generated_Source\PSoC5/PSI.c ****             PSI_DSM_BUF2_REG    = PSI_CFG4_DSM_BUF2;
1496:Generated_Source\PSoC5/PSI.c ****             PSI_DSM_BUF3_REG    = PSI_CFG4_DSM_BUF3;
1497:Generated_Source\PSoC5/PSI.c **** 
1498:Generated_Source\PSoC5/PSI.c ****             /* To select either Vssa or Vref to -ve input of DSM depending on
1499:Generated_Source\PSoC5/PSI.c ****             *  the input range selected.
1500:Generated_Source\PSoC5/PSI.c ****             */
1501:Generated_Source\PSoC5/PSI.c ****             #if(PSI_DEFAULT_INPUT_MODE)
1502:Generated_Source\PSoC5/PSI.c ****                 #if (PSI_CFG4_INPUT_RANGE == PSI_IR_VSSA_TO_2VREF)
1503:Generated_Source\PSoC5/PSI.c ****                     PSI_AMux_Select(1u);
1504:Generated_Source\PSoC5/PSI.c ****                 #else
1505:Generated_Source\PSoC5/PSI.c ****                     PSI_AMux_Select(0u);
1506:Generated_Source\PSoC5/PSI.c ****                 #endif /* PSI_IR_VSSA_TO_2VREF) */
1507:Generated_Source\PSoC5/PSI.c ****             #endif /* PSI_DEFAULT_INPUT_MODE */
1508:Generated_Source\PSoC5/PSI.c **** 
1509:Generated_Source\PSoC5/PSI.c ****             /* Set the Conversion stop if resolution is above 16 bit and
1510:Generated_Source\PSoC5/PSI.c ****                conversion mode is Single sample */
1511:Generated_Source\PSoC5/PSI.c ****             #if(PSI_CFG4_RESOLUTION > 16 && \
1512:Generated_Source\PSoC5/PSI.c ****                 PSI_CFG4_CONV_MODE == PSI_MODE_SINGLE_SAMPLE)
1513:Generated_Source\PSoC5/PSI.c ****                 PSI_stopConversion = 1u;
ARM GAS  C:\Users\scott\AppData\Local\Temp\cciBmnUj.s 			page 28


1514:Generated_Source\PSoC5/PSI.c ****             #endif /* Single sample with resolution above 16 bits */
1515:Generated_Source\PSoC5/PSI.c **** 
1516:Generated_Source\PSoC5/PSI.c ****             PSI_CountsPerVolt = (int32)PSI_CFG4_COUNTS_PER_VOLT;
1517:Generated_Source\PSoC5/PSI.c **** 
1518:Generated_Source\PSoC5/PSI.c ****             PSI_Ext_CP_Clk_SetDividerRegister(PSI_CFG4_CP_CLK_DIVIDER, 1u);
1519:Generated_Source\PSoC5/PSI.c **** 
1520:Generated_Source\PSoC5/PSI.c ****             /* This is only valid if there is an internal clock */
1521:Generated_Source\PSoC5/PSI.c ****             #if(PSI_DEFAULT_INTERNAL_CLK)
1522:Generated_Source\PSoC5/PSI.c ****                 PSI_theACLK_SetDividerRegister(PSI_CFG4_ADC_CLK_DIVIDER, 1u);
1523:Generated_Source\PSoC5/PSI.c ****             #endif /* PSI_DEFAULT_INTERNAL_CLK */
1524:Generated_Source\PSoC5/PSI.c **** 
1525:Generated_Source\PSoC5/PSI.c ****             #if(PSI_IRQ_REMOVE == 0u)
1526:Generated_Source\PSoC5/PSI.c ****                 /* Set interrupt vector */
1527:Generated_Source\PSoC5/PSI.c ****                 (void)CyIntSetVector(PSI_INTC_NUMBER, &PSI_ISR4);
1528:Generated_Source\PSoC5/PSI.c ****             #endif   /* End PSI_IRQ_REMOVE */
1529:Generated_Source\PSoC5/PSI.c ****         }
1530:Generated_Source\PSoC5/PSI.c ****     #endif /* PSI_DEFAULT_NUM_CONFIGS > 3 */
1531:Generated_Source\PSoC5/PSI.c **** }
1532:Generated_Source\PSoC5/PSI.c **** 
1533:Generated_Source\PSoC5/PSI.c **** 
1534:Generated_Source\PSoC5/PSI.c **** /*******************************************************************************
1535:Generated_Source\PSoC5/PSI.c **** * Function Name: PSI_SelectCofiguration
1536:Generated_Source\PSoC5/PSI.c **** ********************************************************************************
1537:Generated_Source\PSoC5/PSI.c **** *
1538:Generated_Source\PSoC5/PSI.c **** * Summary:
1539:Generated_Source\PSoC5/PSI.c **** *  Sets one of up to four ADC configurations. Before setting the new
1540:Generated_Source\PSoC5/PSI.c **** *  configuration, the ADC is stopped and powered down. After setting
1541:Generated_Source\PSoC5/PSI.c **** *  the new configuration, the ADC can be powered and conversion
1542:Generated_Source\PSoC5/PSI.c **** *  can be restarted depending up on the value of second parameter
1543:Generated_Source\PSoC5/PSI.c **** *  restart. If the value of this parameter is 1, then ADC will be
1544:Generated_Source\PSoC5/PSI.c **** *  restarted. If this value is zero, then user must call PSI_Start
1545:Generated_Source\PSoC5/PSI.c **** *  and PSI_StartConvert() to restart the conversion.
1546:Generated_Source\PSoC5/PSI.c **** *
1547:Generated_Source\PSoC5/PSI.c **** * Parameters:
1548:Generated_Source\PSoC5/PSI.c **** *  config:  configuration user wants to select.
1549:Generated_Source\PSoC5/PSI.c **** *           Valid range: 1..4
1550:Generated_Source\PSoC5/PSI.c **** *  restart:  Restart option. 1 means start the ADC and restart the conversion.
1551:Generated_Source\PSoC5/PSI.c **** *                            0 means do not start the ADC and conversion.
1552:Generated_Source\PSoC5/PSI.c **** *
1553:Generated_Source\PSoC5/PSI.c **** * Return:
1554:Generated_Source\PSoC5/PSI.c **** *  None
1555:Generated_Source\PSoC5/PSI.c **** *
1556:Generated_Source\PSoC5/PSI.c **** * Side Effects: 
1557:Generated_Source\PSoC5/PSI.c **** *  Enables internal interrupt.
1558:Generated_Source\PSoC5/PSI.c **** *
1559:Generated_Source\PSoC5/PSI.c **** *******************************************************************************/
1560:Generated_Source\PSoC5/PSI.c **** void PSI_SelectConfiguration(uint8 config, uint8 restart)
1561:Generated_Source\PSoC5/PSI.c ****                                               
1562:Generated_Source\PSoC5/PSI.c **** {
1563:Generated_Source\PSoC5/PSI.c ****     /* Check whether the configuration number is valid or not */
1564:Generated_Source\PSoC5/PSI.c ****     if((config > 0u) && (config <= PSI_DEFAULT_NUM_CONFIGS))
1565:Generated_Source\PSoC5/PSI.c ****     {
1566:Generated_Source\PSoC5/PSI.c ****         /* Set the flag to ensure Start() API doesn't override the 
1567:Generated_Source\PSoC5/PSI.c **** 		*  selected configuration
1568:Generated_Source\PSoC5/PSI.c **** 		*/
1569:Generated_Source\PSoC5/PSI.c ****         if(PSI_initVar == 0u)
1570:Generated_Source\PSoC5/PSI.c ****         {
ARM GAS  C:\Users\scott\AppData\Local\Temp\cciBmnUj.s 			page 29


1571:Generated_Source\PSoC5/PSI.c ****             PSI_started = 1u;
1572:Generated_Source\PSoC5/PSI.c ****         }
1573:Generated_Source\PSoC5/PSI.c **** 
1574:Generated_Source\PSoC5/PSI.c ****         /* Update the config flag */
1575:Generated_Source\PSoC5/PSI.c ****         PSI_Config = config;
1576:Generated_Source\PSoC5/PSI.c **** 
1577:Generated_Source\PSoC5/PSI.c ****         /* Stop the ADC  */
1578:Generated_Source\PSoC5/PSI.c ****         PSI_Stop();
1579:Generated_Source\PSoC5/PSI.c **** 
1580:Generated_Source\PSoC5/PSI.c ****         /* Set the  ADC registers based on the configuration */
1581:Generated_Source\PSoC5/PSI.c ****         PSI_InitConfig(config);
1582:Generated_Source\PSoC5/PSI.c **** 
1583:Generated_Source\PSoC5/PSI.c ****         /* Compensate the gain */
1584:Generated_Source\PSoC5/PSI.c ****         PSI_DEC_GVAL_REG = PSI_gcor[config - 1u].gval;
1585:Generated_Source\PSoC5/PSI.c ****         CY_SET_REG16(PSI_DEC_GCOR_16B_PTR, PSI_gcor[config - 1u].gcor);
1586:Generated_Source\PSoC5/PSI.c **** 
1587:Generated_Source\PSoC5/PSI.c ****         if(restart == 1u)
1588:Generated_Source\PSoC5/PSI.c ****         {
1589:Generated_Source\PSoC5/PSI.c ****             /* Restart the ADC */
1590:Generated_Source\PSoC5/PSI.c ****             PSI_Start();
1591:Generated_Source\PSoC5/PSI.c **** 
1592:Generated_Source\PSoC5/PSI.c ****             /* Restart the ADC conversion */
1593:Generated_Source\PSoC5/PSI.c ****             PSI_StartConvert();
1594:Generated_Source\PSoC5/PSI.c ****         }
1595:Generated_Source\PSoC5/PSI.c ****     }
1596:Generated_Source\PSoC5/PSI.c ****     else
1597:Generated_Source\PSoC5/PSI.c ****     {
1598:Generated_Source\PSoC5/PSI.c ****         /* Halt CPU in debug mode if config is out of valid range */
1599:Generated_Source\PSoC5/PSI.c ****         CYASSERT(0u != 0u);
1600:Generated_Source\PSoC5/PSI.c ****     }
1601:Generated_Source\PSoC5/PSI.c **** }
1602:Generated_Source\PSoC5/PSI.c **** 
1603:Generated_Source\PSoC5/PSI.c **** 
1604:Generated_Source\PSoC5/PSI.c **** /*******************************************************************************
1605:Generated_Source\PSoC5/PSI.c **** * Function Name: PSI_GainCompensation
1606:Generated_Source\PSoC5/PSI.c **** ********************************************************************************
1607:Generated_Source\PSoC5/PSI.c **** *
1608:Generated_Source\PSoC5/PSI.c **** * Summary:
1609:Generated_Source\PSoC5/PSI.c **** *  This API calculates the trim value and then store this to gcor structure.
1610:Generated_Source\PSoC5/PSI.c **** *
1611:Generated_Source\PSoC5/PSI.c **** * Parameters:
1612:Generated_Source\PSoC5/PSI.c **** *  inputRange:  input range for which trim value is to be calculated.
1613:Generated_Source\PSoC5/PSI.c **** *  IdealDecGain:  Ideal Decimator gain for the selected resolution and
1614:Generated_Source\PSoC5/PSI.c **** *                 conversion  mode.
1615:Generated_Source\PSoC5/PSI.c **** *  IdealOddDecGain:  Ideal odd decimation gain for the selected resolution and
1616:Generated_Source\PSoC5/PSI.c ****                      conversion mode.
1617:Generated_Source\PSoC5/PSI.c **** *  resolution:  Resolution to select the proper flash location for trim value.
1618:Generated_Source\PSoC5/PSI.c **** *  config:      Specifies the configuration number
1619:Generated_Source\PSoC5/PSI.c **** *               Valid range: 1..4
1620:Generated_Source\PSoC5/PSI.c **** *
1621:Generated_Source\PSoC5/PSI.c **** * Return:
1622:Generated_Source\PSoC5/PSI.c **** *  None
1623:Generated_Source\PSoC5/PSI.c **** *
1624:Generated_Source\PSoC5/PSI.c **** *******************************************************************************/
1625:Generated_Source\PSoC5/PSI.c **** static void PSI_GainCompensation(uint8 inputRange, uint16 idealDecGain, uint16 idealOddDecGain,
1626:Generated_Source\PSoC5/PSI.c ****                               uint8 resolution, uint8 config) 
1627:Generated_Source\PSoC5/PSI.c **** {
ARM GAS  C:\Users\scott\AppData\Local\Temp\cciBmnUj.s 			page 30


  27              		.loc 1 1627 0
  28              		.cfi_startproc
  29              		@ args = 4, pretend = 0, frame = 0
  30              		@ frame_needed = 0, uses_anonymous_args = 0
  31              	.LVL0:
  32 0000 10B5     		push	{r4, lr}
  33              		.cfi_def_cfa_offset 8
  34              		.cfi_offset 4, -8
  35              		.cfi_offset 14, -4
  36 0002 9DF80840 		ldrb	r4, [sp, #8]	@ zero_extendqisi2
1628:Generated_Source\PSoC5/PSI.c ****     int8 flash;
1629:Generated_Source\PSoC5/PSI.c **** 	int32 normalised;
1630:Generated_Source\PSoC5/PSI.c **** 	uint16 gcorValue;
1631:Generated_Source\PSoC5/PSI.c ****     uint32 gcorTmp;
1632:Generated_Source\PSoC5/PSI.c **** 
1633:Generated_Source\PSoC5/PSI.c ****     if((config > 0u) && (config <= PSI_DEFAULT_NUM_CONFIGS))
  37              		.loc 1 1633 0
  38 0006 012C     		cmp	r4, #1
  39 0008 51D1     		bne	.L2
1634:Generated_Source\PSoC5/PSI.c ****     {
1635:Generated_Source\PSoC5/PSI.c ****         switch(inputRange)
  40              		.loc 1 1635 0
  41 000a 0138     		subs	r0, r0, #1
  42              	.LVL1:
  43 000c 0928     		cmp	r0, #9
  44 000e 2ED8     		bhi	.L16
  45 0010 DFE800F0 		tbb	[pc, r0]
  46              	.L5:
  47 0014 05       		.byte	(.L4-.L5)/2
  48 0015 2D       		.byte	(.L16-.L5)/2
  49 0016 2D       		.byte	(.L16-.L5)/2
  50 0017 05       		.byte	(.L4-.L5)/2
  51 0018 2D       		.byte	(.L16-.L5)/2
  52 0019 2D       		.byte	(.L16-.L5)/2
  53 001a 0F       		.byte	(.L6-.L5)/2
  54 001b 19       		.byte	(.L7-.L5)/2
  55 001c 2D       		.byte	(.L16-.L5)/2
  56 001d 23       		.byte	(.L8-.L5)/2
  57              		.p2align 1
  58              	.L4:
1636:Generated_Source\PSoC5/PSI.c ****         {
1637:Generated_Source\PSoC5/PSI.c ****             case PSI_IR_VNEG_VREF_DIFF:
1638:Generated_Source\PSoC5/PSI.c ****             case PSI_IR_VSSA_TO_2VREF:
1639:Generated_Source\PSoC5/PSI.c ****                 /* Normalize the flash Value */
1640:Generated_Source\PSoC5/PSI.c ****                 if(resolution > 15u)
  59              		.loc 1 1640 0
  60 001e 0F2B     		cmp	r3, #15
  61 0020 03D9     		bls	.L9
1641:Generated_Source\PSoC5/PSI.c ****                 {
1642:Generated_Source\PSoC5/PSI.c ****                     flash = PSI_DEC_TRIM_VREF_DIFF_16_20;
  62              		.loc 1 1642 0
  63 0022 2548     		ldr	r0, .L18
  64 0024 0078     		ldrb	r0, [r0]	@ zero_extendqisi2
  65 0026 40B2     		sxtb	r0, r0
  66              	.LVL2:
  67 0028 22E0     		b	.L3
  68              	.LVL3:
ARM GAS  C:\Users\scott\AppData\Local\Temp\cciBmnUj.s 			page 31


  69              	.L9:
1643:Generated_Source\PSoC5/PSI.c ****                 }
1644:Generated_Source\PSoC5/PSI.c ****                 else
1645:Generated_Source\PSoC5/PSI.c ****                 {
1646:Generated_Source\PSoC5/PSI.c ****                     flash = PSI_DEC_TRIM_VREF_DIFF_8_15;
  70              		.loc 1 1646 0
  71 002a 2448     		ldr	r0, .L18+4
  72 002c 0078     		ldrb	r0, [r0]	@ zero_extendqisi2
  73 002e 40B2     		sxtb	r0, r0
  74              	.LVL4:
  75 0030 1EE0     		b	.L3
  76              	.LVL5:
  77              	.L6:
1647:Generated_Source\PSoC5/PSI.c ****                 }
1648:Generated_Source\PSoC5/PSI.c ****                 break;
1649:Generated_Source\PSoC5/PSI.c **** 
1650:Generated_Source\PSoC5/PSI.c ****             case PSI_IR_VNEG_VREF_2_DIFF:
1651:Generated_Source\PSoC5/PSI.c ****                 /* Normalize the flash Value */
1652:Generated_Source\PSoC5/PSI.c ****                 if(resolution > 15u)
  78              		.loc 1 1652 0
  79 0032 0F2B     		cmp	r3, #15
  80 0034 03D9     		bls	.L10
1653:Generated_Source\PSoC5/PSI.c ****                 {
1654:Generated_Source\PSoC5/PSI.c ****                     flash = PSI_DEC_TRIM_VREF_2_DIFF_16_20;
  81              		.loc 1 1654 0
  82 0036 2248     		ldr	r0, .L18+8
  83 0038 0078     		ldrb	r0, [r0]	@ zero_extendqisi2
  84 003a 40B2     		sxtb	r0, r0
  85              	.LVL6:
  86 003c 18E0     		b	.L3
  87              	.LVL7:
  88              	.L10:
1655:Generated_Source\PSoC5/PSI.c ****                 }
1656:Generated_Source\PSoC5/PSI.c ****                 else
1657:Generated_Source\PSoC5/PSI.c ****                 {
1658:Generated_Source\PSoC5/PSI.c ****                     flash = PSI_DEC_TRIM_VREF_2_DIFF_8_15;
  89              		.loc 1 1658 0
  90 003e 2148     		ldr	r0, .L18+12
  91 0040 0078     		ldrb	r0, [r0]	@ zero_extendqisi2
  92 0042 40B2     		sxtb	r0, r0
  93              	.LVL8:
  94 0044 14E0     		b	.L3
  95              	.LVL9:
  96              	.L7:
1659:Generated_Source\PSoC5/PSI.c ****                 }
1660:Generated_Source\PSoC5/PSI.c ****                 break;
1661:Generated_Source\PSoC5/PSI.c **** 
1662:Generated_Source\PSoC5/PSI.c ****             case PSI_IR_VNEG_VREF_4_DIFF:
1663:Generated_Source\PSoC5/PSI.c ****                 /* Normalize the flash Value */
1664:Generated_Source\PSoC5/PSI.c ****                 if(resolution > 15u)
  97              		.loc 1 1664 0
  98 0046 0F2B     		cmp	r3, #15
  99 0048 03D9     		bls	.L11
1665:Generated_Source\PSoC5/PSI.c ****                 {
1666:Generated_Source\PSoC5/PSI.c ****                     flash = PSI_DEC_TRIM_VREF_4_DIFF_16_20;
 100              		.loc 1 1666 0
 101 004a 1F48     		ldr	r0, .L18+16
ARM GAS  C:\Users\scott\AppData\Local\Temp\cciBmnUj.s 			page 32


 102 004c 0078     		ldrb	r0, [r0]	@ zero_extendqisi2
 103 004e 40B2     		sxtb	r0, r0
 104              	.LVL10:
 105 0050 0EE0     		b	.L3
 106              	.LVL11:
 107              	.L11:
1667:Generated_Source\PSoC5/PSI.c ****                 }
1668:Generated_Source\PSoC5/PSI.c ****                 else
1669:Generated_Source\PSoC5/PSI.c ****                 {
1670:Generated_Source\PSoC5/PSI.c ****                     flash = PSI_DEC_TRIM_VREF_4_DIFF_8_15;
 108              		.loc 1 1670 0
 109 0052 1E48     		ldr	r0, .L18+20
 110 0054 0078     		ldrb	r0, [r0]	@ zero_extendqisi2
 111 0056 40B2     		sxtb	r0, r0
 112              	.LVL12:
 113 0058 0AE0     		b	.L3
 114              	.LVL13:
 115              	.L8:
1671:Generated_Source\PSoC5/PSI.c ****                 }
1672:Generated_Source\PSoC5/PSI.c ****                 break;
1673:Generated_Source\PSoC5/PSI.c **** 
1674:Generated_Source\PSoC5/PSI.c ****             case PSI_IR_VNEG_VREF_16_DIFF:
1675:Generated_Source\PSoC5/PSI.c ****                 /* Normalize the flash Value */
1676:Generated_Source\PSoC5/PSI.c ****                 if(resolution > 15u)
 116              		.loc 1 1676 0
 117 005a 0F2B     		cmp	r3, #15
 118 005c 03D9     		bls	.L12
1677:Generated_Source\PSoC5/PSI.c ****                 {
1678:Generated_Source\PSoC5/PSI.c ****                     flash = PSI_DEC_TRIM_VREF_16_DIFF_16_20;
 119              		.loc 1 1678 0
 120 005e 1C48     		ldr	r0, .L18+24
 121 0060 0078     		ldrb	r0, [r0]	@ zero_extendqisi2
 122 0062 40B2     		sxtb	r0, r0
 123              	.LVL14:
 124 0064 04E0     		b	.L3
 125              	.LVL15:
 126              	.L12:
1679:Generated_Source\PSoC5/PSI.c ****                 }
1680:Generated_Source\PSoC5/PSI.c ****                 else
1681:Generated_Source\PSoC5/PSI.c ****                 {
1682:Generated_Source\PSoC5/PSI.c ****                     flash = PSI_DEC_TRIM_VREF_16_DIFF_8_15;
 127              		.loc 1 1682 0
 128 0066 1B48     		ldr	r0, .L18+28
 129 0068 0078     		ldrb	r0, [r0]	@ zero_extendqisi2
 130 006a 40B2     		sxtb	r0, r0
 131              	.LVL16:
 132 006c 00E0     		b	.L3
 133              	.LVL17:
 134              	.L16:
1683:Generated_Source\PSoC5/PSI.c ****                 }
1684:Generated_Source\PSoC5/PSI.c ****                 break;
1685:Generated_Source\PSoC5/PSI.c **** 
1686:Generated_Source\PSoC5/PSI.c ****             default:
1687:Generated_Source\PSoC5/PSI.c ****                 flash = 0;
 135              		.loc 1 1687 0
 136 006e 0020     		movs	r0, #0
 137              	.L3:
ARM GAS  C:\Users\scott\AppData\Local\Temp\cciBmnUj.s 			page 33


 138              	.LVL18:
1688:Generated_Source\PSoC5/PSI.c ****                 break;
1689:Generated_Source\PSoC5/PSI.c ****         }
1690:Generated_Source\PSoC5/PSI.c **** 
1691:Generated_Source\PSoC5/PSI.c ****         /* Add two values */
1692:Generated_Source\PSoC5/PSI.c **** 		normalised = (int32)idealDecGain + ((int32)flash * 32);
 139              		.loc 1 1692 0
 140 0070 01EB4011 		add	r1, r1, r0, lsl #5
 141              	.LVL19:
1693:Generated_Source\PSoC5/PSI.c ****         gcorTmp = (uint32)normalised * (uint32)idealOddDecGain;
 142              		.loc 1 1693 0
 143 0074 01FB02F1 		mul	r1, r1, r2
 144              	.LVL20:
1694:Generated_Source\PSoC5/PSI.c ****         gcorValue = (uint16)(gcorTmp / PSI_IDEAL_GAIN_CONST);
 145              		.loc 1 1694 0
 146 0078 C90B     		lsrs	r1, r1, #15
 147              	.LVL21:
 148 007a 8AB2     		uxth	r2, r1
 149              	.LVL22:
1695:Generated_Source\PSoC5/PSI.c **** 
1696:Generated_Source\PSoC5/PSI.c ****         if (resolution < (PSI_MAX_GVAL - 1u))
 150              		.loc 1 1696 0
 151 007c 0D2B     		cmp	r3, #13
 152 007e 0BD8     		bhi	.L13
1697:Generated_Source\PSoC5/PSI.c ****         {
1698:Generated_Source\PSoC5/PSI.c ****             gcorValue = (gcorValue >> (PSI_MAX_GVAL - (resolution + 1u)));
 153              		.loc 1 1698 0
 154 0080 C3F10E02 		rsb	r2, r3, #14
 155              	.LVL23:
 156 0084 89B2     		uxth	r1, r1
 157 0086 1141     		asrs	r1, r1, r2
 158              	.LVL24:
 159 0088 8AB2     		uxth	r2, r1
 160              	.LVL25:
1699:Generated_Source\PSoC5/PSI.c ****             PSI_gcor[config - 1u].gval = (resolution + 1u);
 161              		.loc 1 1699 0
 162 008a 611E     		subs	r1, r4, #1
 163 008c 1248     		ldr	r0, .L18+32
 164              	.LVL26:
 165 008e 00EB8101 		add	r1, r0, r1, lsl #2
 166 0092 0133     		adds	r3, r3, #1
 167              	.LVL27:
 168 0094 8B70     		strb	r3, [r1, #2]
 169 0096 05E0     		b	.L14
 170              	.LVL28:
 171              	.L13:
1700:Generated_Source\PSoC5/PSI.c ****         }
1701:Generated_Source\PSoC5/PSI.c ****         else
1702:Generated_Source\PSoC5/PSI.c ****         {
1703:Generated_Source\PSoC5/PSI.c ****             /* Use all 16 bits */
1704:Generated_Source\PSoC5/PSI.c ****             PSI_gcor[config - 1u].gval = PSI_MAX_GVAL;
 172              		.loc 1 1704 0
 173 0098 631E     		subs	r3, r4, #1
 174              	.LVL29:
 175 009a 0F49     		ldr	r1, .L18+32
 176 009c 01EB8303 		add	r3, r1, r3, lsl #2
 177 00a0 0F21     		movs	r1, #15
ARM GAS  C:\Users\scott\AppData\Local\Temp\cciBmnUj.s 			page 34


 178 00a2 9970     		strb	r1, [r3, #2]
 179              	.LVL30:
 180              	.L14:
1705:Generated_Source\PSoC5/PSI.c ****         }
1706:Generated_Source\PSoC5/PSI.c **** 
1707:Generated_Source\PSoC5/PSI.c ****         /* Save the gain correction register value */
1708:Generated_Source\PSoC5/PSI.c ****         PSI_gcor[config - 1u].gcor = gcorValue;
 181              		.loc 1 1708 0
 182 00a4 013C     		subs	r4, r4, #1
 183 00a6 0C4B     		ldr	r3, .L18+32
 184 00a8 23F82420 		strh	r2, [r3, r4, lsl #2]	@ movhi
 185 00ac 10BD     		pop	{r4, pc}
 186              	.LVL31:
 187              	.L2:
1709:Generated_Source\PSoC5/PSI.c ****     }
1710:Generated_Source\PSoC5/PSI.c ****     else
1711:Generated_Source\PSoC5/PSI.c ****     {
1712:Generated_Source\PSoC5/PSI.c ****         /* Halt CPU in debug mode if config is out of valid range */
1713:Generated_Source\PSoC5/PSI.c ****         CYASSERT(0u != 0u);
 188              		.loc 1 1713 0 discriminator 1
 189 00ae 0020     		movs	r0, #0
 190              	.LVL32:
 191 00b0 FFF7FEFF 		bl	CyHalt
 192              	.LVL33:
 193 00b4 10BD     		pop	{r4, pc}
 194              	.LVL34:
 195              	.L19:
 196 00b6 00BF     		.align	2
 197              	.L18:
 198 00b8 18010049 		.word	1224737048
 199 00bc 1C010049 		.word	1224737052
 200 00c0 19010049 		.word	1224737049
 201 00c4 1D010049 		.word	1224737053
 202 00c8 1A010049 		.word	1224737050
 203 00cc 1E010049 		.word	1224737054
 204 00d0 1B010049 		.word	1224737051
 205 00d4 1F010049 		.word	1224737055
 206 00d8 00000000 		.word	.LANCHOR0
 207              		.cfi_endproc
 208              	.LFE21:
 209              		.size	PSI_GainCompensation, .-PSI_GainCompensation
 210              		.section	.text.PSI_SetDSMRef0Reg,"ax",%progbits
 211              		.align	2
 212              		.thumb
 213              		.thumb_func
 214              		.type	PSI_SetDSMRef0Reg, %function
 215              	PSI_SetDSMRef0Reg:
 216              	.LFB22:
1714:Generated_Source\PSoC5/PSI.c ****     }
1715:Generated_Source\PSoC5/PSI.c **** }
1716:Generated_Source\PSoC5/PSI.c **** 
1717:Generated_Source\PSoC5/PSI.c **** 
1718:Generated_Source\PSoC5/PSI.c **** /******************************************************************************
1719:Generated_Source\PSoC5/PSI.c **** * Function Name: PSI_SetDSMRef0Reg(uint8)
1720:Generated_Source\PSoC5/PSI.c **** ******************************************************************************
1721:Generated_Source\PSoC5/PSI.c **** *
1722:Generated_Source\PSoC5/PSI.c **** * Summary:
ARM GAS  C:\Users\scott\AppData\Local\Temp\cciBmnUj.s 			page 35


1723:Generated_Source\PSoC5/PSI.c **** *  This API sets the DSM_REF0 register. This is written for internal use.
1724:Generated_Source\PSoC5/PSI.c **** *
1725:Generated_Source\PSoC5/PSI.c **** * Parameters:
1726:Generated_Source\PSoC5/PSI.c **** *  value:  Value to be written to DSM_REF0 register.
1727:Generated_Source\PSoC5/PSI.c **** *
1728:Generated_Source\PSoC5/PSI.c **** * Return:
1729:Generated_Source\PSoC5/PSI.c **** *  None
1730:Generated_Source\PSoC5/PSI.c **** *
1731:Generated_Source\PSoC5/PSI.c **** ******************************************************************************/
1732:Generated_Source\PSoC5/PSI.c **** static void PSI_SetDSMRef0Reg(uint8 value) 
1733:Generated_Source\PSoC5/PSI.c **** {
 217              		.loc 1 1733 0
 218              		.cfi_startproc
 219              		@ args = 0, pretend = 0, frame = 0
 220              		@ frame_needed = 0, uses_anonymous_args = 0
 221              	.LVL35:
 222 0000 F8B5     		push	{r3, r4, r5, r6, r7, lr}
 223              		.cfi_def_cfa_offset 24
 224              		.cfi_offset 3, -24
 225              		.cfi_offset 4, -20
 226              		.cfi_offset 5, -16
 227              		.cfi_offset 6, -12
 228              		.cfi_offset 7, -8
 229              		.cfi_offset 14, -4
 230 0002 0746     		mov	r7, r0
1734:Generated_Source\PSoC5/PSI.c ****     uint8 enableInterrupts;
1735:Generated_Source\PSoC5/PSI.c ****     enableInterrupts = CyEnterCriticalSection();
 231              		.loc 1 1735 0
 232 0004 FFF7FEFF 		bl	CyEnterCriticalSection
 233              	.LVL36:
 234 0008 0646     		mov	r6, r0
 235              	.LVL37:
1736:Generated_Source\PSoC5/PSI.c **** 
1737:Generated_Source\PSoC5/PSI.c ****     /* Disable PRES, Enable power to VCMBUF0, REFBUF0 and REFBUF1, enable PRES */
1738:Generated_Source\PSoC5/PSI.c ****     PSI_RESET_CR4_REG |= (PSI_IGNORE_PRESA1 | PSI_IGNORE_PRESD1);
 236              		.loc 1 1738 0
 237 000a 0D4D     		ldr	r5, .L22
 238 000c 2B78     		ldrb	r3, [r5]	@ zero_extendqisi2
 239 000e 43F00303 		orr	r3, r3, #3
 240 0012 2B70     		strb	r3, [r5]
1739:Generated_Source\PSoC5/PSI.c ****     PSI_RESET_CR5_REG |= (PSI_IGNORE_PRESA2 | PSI_IGNORE_PRESD2);
 241              		.loc 1 1739 0
 242 0014 0B4C     		ldr	r4, .L22+4
 243 0016 2378     		ldrb	r3, [r4]	@ zero_extendqisi2
 244 0018 43F00303 		orr	r3, r3, #3
 245 001c 2370     		strb	r3, [r4]
1740:Generated_Source\PSoC5/PSI.c ****     PSI_DSM_REF0_REG = value;
 246              		.loc 1 1740 0
 247 001e 0A4B     		ldr	r3, .L22+8
 248 0020 1F70     		strb	r7, [r3]
1741:Generated_Source\PSoC5/PSI.c **** 
1742:Generated_Source\PSoC5/PSI.c ****     /* Wait for 3 microseconds */
1743:Generated_Source\PSoC5/PSI.c ****     CyDelayUs(PSI_PRES_DELAY_TIME);
 249              		.loc 1 1743 0
 250 0022 0320     		movs	r0, #3
 251 0024 FFF7FEFF 		bl	CyDelayUs
 252              	.LVL38:
ARM GAS  C:\Users\scott\AppData\Local\Temp\cciBmnUj.s 			page 36


1744:Generated_Source\PSoC5/PSI.c ****     /* Enable the press circuit */
1745:Generated_Source\PSoC5/PSI.c ****     PSI_RESET_CR4_REG &= (uint8)~(PSI_IGNORE_PRESA1 | PSI_IGNORE_PRESD1);
 253              		.loc 1 1745 0
 254 0028 2B78     		ldrb	r3, [r5]	@ zero_extendqisi2
 255 002a 03F0FC03 		and	r3, r3, #252
 256 002e 2B70     		strb	r3, [r5]
1746:Generated_Source\PSoC5/PSI.c ****     PSI_RESET_CR5_REG &= (uint8)~(PSI_IGNORE_PRESA2 | PSI_IGNORE_PRESD2);
 257              		.loc 1 1746 0
 258 0030 2378     		ldrb	r3, [r4]	@ zero_extendqisi2
 259 0032 03F0FC03 		and	r3, r3, #252
 260 0036 2370     		strb	r3, [r4]
1747:Generated_Source\PSoC5/PSI.c **** 
1748:Generated_Source\PSoC5/PSI.c ****     CyExitCriticalSection(enableInterrupts);
 261              		.loc 1 1748 0
 262 0038 3046     		mov	r0, r6
 263 003a FFF7FEFF 		bl	CyExitCriticalSection
 264              	.LVL39:
 265 003e F8BD     		pop	{r3, r4, r5, r6, r7, pc}
 266              	.LVL40:
 267              	.L23:
 268              		.align	2
 269              	.L22:
 270 0040 F8460040 		.word	1073759992
 271 0044 F9460040 		.word	1073759993
 272 0048 92580040 		.word	1073764498
 273              		.cfi_endproc
 274              	.LFE22:
 275              		.size	PSI_SetDSMRef0Reg, .-PSI_SetDSMRef0Reg
 276              		.section	.text.PSI_InitConfig,"ax",%progbits
 277              		.align	2
 278              		.thumb
 279              		.thumb_func
 280              		.type	PSI_InitConfig, %function
 281              	PSI_InitConfig:
 282              	.LFB19:
1248:Generated_Source\PSoC5/PSI.c ****     PSI_stopConversion = 0u;
 283              		.loc 1 1248 0
 284              		.cfi_startproc
 285              		@ args = 0, pretend = 0, frame = 0
 286              		@ frame_needed = 0, uses_anonymous_args = 0
 287              	.LVL41:
1249:Generated_Source\PSoC5/PSI.c **** 
 288              		.loc 1 1249 0
 289 0000 0022     		movs	r2, #0
 290 0002 314B     		ldr	r3, .L28
 291 0004 1A71     		strb	r2, [r3, #4]
1251:Generated_Source\PSoC5/PSI.c ****     {
 292              		.loc 1 1251 0
 293 0006 0128     		cmp	r0, #1
 294 0008 5CD1     		bne	.L27
1248:Generated_Source\PSoC5/PSI.c ****     PSI_stopConversion = 0u;
 295              		.loc 1 1248 0
 296 000a 70B5     		push	{r4, r5, r6, lr}
 297              		.cfi_def_cfa_offset 16
 298              		.cfi_offset 4, -16
 299              		.cfi_offset 5, -12
 300              		.cfi_offset 6, -8
ARM GAS  C:\Users\scott\AppData\Local\Temp\cciBmnUj.s 			page 37


 301              		.cfi_offset 14, -4
1254:Generated_Source\PSoC5/PSI.c ****         PSI_DEC_SHIFT1_REG  = PSI_CFG1_DEC_SHIFT1;
 302              		.loc 1 1254 0
 303 000c 7822     		movs	r2, #120
 304 000e 2F4B     		ldr	r3, .L28+4
 305 0010 1A70     		strb	r2, [r3]
1255:Generated_Source\PSoC5/PSI.c ****         PSI_DEC_SHIFT2_REG  = PSI_CFG1_DEC_SHIFT2;
 306              		.loc 1 1255 0
 307 0012 0024     		movs	r4, #0
 308 0014 0233     		adds	r3, r3, #2
 309 0016 1C70     		strb	r4, [r3]
1256:Generated_Source\PSoC5/PSI.c ****         PSI_DEC_DR2_REG     = PSI_CFG1_DEC_DR2;
 310              		.loc 1 1256 0
 311 0018 0922     		movs	r2, #9
 312 001a 0133     		adds	r3, r3, #1
 313 001c 1A70     		strb	r2, [r3]
1257:Generated_Source\PSoC5/PSI.c ****         PSI_DEC_DR2H_REG    = PSI_CFG1_DEC_DR2H;
 314              		.loc 1 1257 0
 315 001e 7F23     		movs	r3, #127
 316 0020 2B4A     		ldr	r2, .L28+8
 317 0022 1370     		strb	r3, [r2]
1258:Generated_Source\PSoC5/PSI.c ****         PSI_DEC_DR1_REG     = PSI_CFG1_DEC_DR1;
 318              		.loc 1 1258 0
 319 0024 0132     		adds	r2, r2, #1
 320 0026 1470     		strb	r4, [r2]
1259:Generated_Source\PSoC5/PSI.c ****         PSI_DEC_OCOR_REG    = PSI_CFG1_DEC_OCOR;
 321              		.loc 1 1259 0
 322 0028 0132     		adds	r2, r2, #1
 323 002a 1370     		strb	r3, [r2]
1260:Generated_Source\PSoC5/PSI.c ****         PSI_DEC_OCORM_REG   = PSI_CFG1_DEC_OCORM;
 324              		.loc 1 1260 0
 325 002c 294B     		ldr	r3, .L28+12
 326 002e 1C70     		strb	r4, [r3]
1261:Generated_Source\PSoC5/PSI.c ****         PSI_DEC_OCORH_REG   = PSI_CFG1_DEC_OCORH;
 327              		.loc 1 1261 0
 328 0030 0133     		adds	r3, r3, #1
 329 0032 1C70     		strb	r4, [r3]
1262:Generated_Source\PSoC5/PSI.c ****         PSI_DEC_COHER_REG   = PSI_CFG1_DEC_COHER;
 330              		.loc 1 1262 0
 331 0034 0133     		adds	r3, r3, #1
 332 0036 1C70     		strb	r4, [r3]
1263:Generated_Source\PSoC5/PSI.c **** 
 333              		.loc 1 1263 0
 334 0038 0125     		movs	r5, #1
 335 003a 0A33     		adds	r3, r3, #10
 336 003c 1D70     		strb	r5, [r3]
1265:Generated_Source\PSoC5/PSI.c ****         PSI_DSM_CR5_REG     = PSI_CFG1_DSM_CR5;
 337              		.loc 1 1265 0
 338 003e 5022     		movs	r2, #80
 339 0040 03F52763 		add	r3, r3, #2672
 340 0044 1A70     		strb	r2, [r3]
1266:Generated_Source\PSoC5/PSI.c ****         PSI_DSM_CR6_REG     = PSI_CFG1_DSM_CR6;
 341              		.loc 1 1266 0
 342 0046 0A26     		movs	r6, #10
 343 0048 0133     		adds	r3, r3, #1
 344 004a 1E70     		strb	r6, [r3]
1267:Generated_Source\PSoC5/PSI.c ****         PSI_DSM_CR7_REG     = PSI_CFG1_DSM_CR7;
ARM GAS  C:\Users\scott\AppData\Local\Temp\cciBmnUj.s 			page 38


 345              		.loc 1 1267 0
 346 004c 2C22     		movs	r2, #44
 347 004e 0133     		adds	r3, r3, #1
 348 0050 1A70     		strb	r2, [r3]
1268:Generated_Source\PSoC5/PSI.c ****         PSI_DSM_CR10_REG    = PSI_CFG1_DSM_CR10;
 349              		.loc 1 1268 0
 350 0052 0133     		adds	r3, r3, #1
 351 0054 1C70     		strb	r4, [r3]
1269:Generated_Source\PSoC5/PSI.c ****         PSI_DSM_CR11_REG    = PSI_CFG1_DSM_CR11;
 352              		.loc 1 1269 0
 353 0056 4422     		movs	r2, #68
 354 0058 0333     		adds	r3, r3, #3
 355 005a 1A70     		strb	r2, [r3]
1270:Generated_Source\PSoC5/PSI.c ****         PSI_DSM_CR12_REG    = PSI_CFG1_DSM_CR12;
 356              		.loc 1 1270 0
 357 005c 4822     		movs	r2, #72
 358 005e 0133     		adds	r3, r3, #1
 359 0060 1A70     		strb	r2, [r3]
1271:Generated_Source\PSoC5/PSI.c ****         PSI_DSM_CR14_REG    = PSI_CFG1_DSM_CR14;
 360              		.loc 1 1271 0
 361 0062 0133     		adds	r3, r3, #1
 362 0064 1D70     		strb	r5, [r3]
1272:Generated_Source\PSoC5/PSI.c ****         PSI_DSM_CR15_REG    = PSI_CFG1_DSM_CR15;
 363              		.loc 1 1272 0
 364 0066 0222     		movs	r2, #2
 365 0068 0233     		adds	r3, r3, #2
 366 006a 1A70     		strb	r2, [r3]
1273:Generated_Source\PSoC5/PSI.c ****         PSI_DSM_CR16_REG    = PSI_CFG1_DSM_CR16;
 367              		.loc 1 1273 0
 368 006c 1222     		movs	r2, #18
 369 006e 0133     		adds	r3, r3, #1
 370 0070 1A70     		strb	r2, [r3]
1274:Generated_Source\PSoC5/PSI.c ****         PSI_DSM_CR17_REG    = PSI_CFG1_DSM_CR17;
 371              		.loc 1 1274 0
 372 0072 2822     		movs	r2, #40
 373 0074 0133     		adds	r3, r3, #1
 374 0076 1A70     		strb	r2, [r3]
1275:Generated_Source\PSoC5/PSI.c ****         /* Set DSM_REF0_REG by disabling and enabling the PRESS circuit */
 375              		.loc 1 1275 0
 376 0078 EB22     		movs	r2, #235
 377 007a 0133     		adds	r3, r3, #1
 378 007c 1A70     		strb	r2, [r3]
1277:Generated_Source\PSoC5/PSI.c ****         PSI_DSM_REF2_REG    = PSI_CFG1_DSM_REF2;
 379              		.loc 1 1277 0
 380 007e 5220     		movs	r0, #82
 381              	.LVL42:
 382 0080 FFF7FEFF 		bl	PSI_SetDSMRef0Reg
 383              	.LVL43:
1278:Generated_Source\PSoC5/PSI.c ****         PSI_DSM_REF3_REG    = PSI_CFG1_DSM_REF3;
 384              		.loc 1 1278 0
 385 0084 5822     		movs	r2, #88
 386 0086 144B     		ldr	r3, .L28+16
 387 0088 1A70     		strb	r2, [r3]
1279:Generated_Source\PSoC5/PSI.c **** 
 388              		.loc 1 1279 0
 389 008a 0133     		adds	r3, r3, #1
 390 008c 1C70     		strb	r4, [r3]
ARM GAS  C:\Users\scott\AppData\Local\Temp\cciBmnUj.s 			page 39


1281:Generated_Source\PSoC5/PSI.c ****         PSI_DSM_BUF1_REG    = PSI_CFG1_DSM_BUF1;
 391              		.loc 1 1281 0
 392 008e 0533     		adds	r3, r3, #5
 393 0090 1D70     		strb	r5, [r3]
1282:Generated_Source\PSoC5/PSI.c ****         PSI_DSM_BUF2_REG    = PSI_CFG1_DSM_BUF2;
 394              		.loc 1 1282 0
 395 0092 0133     		adds	r3, r3, #1
 396 0094 1D70     		strb	r5, [r3]
1283:Generated_Source\PSoC5/PSI.c ****         PSI_DSM_BUF3_REG    = PSI_CFG1_DSM_BUF3;
 397              		.loc 1 1283 0
 398 0096 0133     		adds	r3, r3, #1
 399 0098 1C70     		strb	r4, [r3]
1284:Generated_Source\PSoC5/PSI.c **** 
 400              		.loc 1 1284 0
 401 009a 0133     		adds	r3, r3, #1
 402 009c 1E70     		strb	r6, [r3]
1293:Generated_Source\PSoC5/PSI.c ****             #endif /* PSI_IR_VSSA_TO_2VREF) */
 403              		.loc 1 1293 0
 404 009e 2046     		mov	r0, r4
 405 00a0 FFF7FEFF 		bl	PSI_AMux_Select
 406              	.LVL44:
1305:Generated_Source\PSoC5/PSI.c **** 
 407              		.loc 1 1305 0
 408 00a4 0D4A     		ldr	r2, .L28+20
 409 00a6 0E4B     		ldr	r3, .L28+24
 410 00a8 1A60     		str	r2, [r3]
1307:Generated_Source\PSoC5/PSI.c **** 
 411              		.loc 1 1307 0
 412 00aa 2946     		mov	r1, r5
 413 00ac 2846     		mov	r0, r5
 414 00ae FFF7FEFF 		bl	PSI_Ext_CP_Clk_SetDividerRegister
 415              	.LVL45:
1311:Generated_Source\PSoC5/PSI.c ****         #endif /* PSI_DEFAULT_INTERNAL_CLK */
 416              		.loc 1 1311 0
 417 00b2 2946     		mov	r1, r5
 418 00b4 0720     		movs	r0, #7
 419 00b6 FFF7FEFF 		bl	PSI_theACLK_SetDividerRegister
 420              	.LVL46:
1316:Generated_Source\PSoC5/PSI.c ****         #endif   /* End PSI_IRQ_REMOVE */
 421              		.loc 1 1316 0
 422 00ba 0A49     		ldr	r1, .L28+28
 423 00bc 1D20     		movs	r0, #29
 424 00be FFF7FEFF 		bl	CyIntSetVector
 425              	.LVL47:
 426 00c2 70BD     		pop	{r4, r5, r6, pc}
 427              	.LVL48:
 428              	.L27:
 429              		.cfi_def_cfa_offset 0
 430              		.cfi_restore 4
 431              		.cfi_restore 5
 432              		.cfi_restore 6
 433              		.cfi_restore 14
 434 00c4 7047     		bx	lr
 435              	.L29:
 436 00c6 00BF     		.align	2
 437              	.L28:
 438 00c8 00000000 		.word	.LANCHOR0
ARM GAS  C:\Users\scott\AppData\Local\Temp\cciBmnUj.s 			page 40


 439 00cc 004E0040 		.word	1073761792
 440 00d0 044E0040 		.word	1073761796
 441 00d4 084E0040 		.word	1073761800
 442 00d8 94580040 		.word	1073764500
 443 00dc 502E0300 		.word	208464
 444 00e0 00000000 		.word	PSI_CountsPerVolt
 445 00e4 00000000 		.word	PSI_ISR1
 446              		.cfi_endproc
 447              	.LFE19:
 448              		.size	PSI_InitConfig, .-PSI_InitConfig
 449              		.section	.text.PSI_Init,"ax",%progbits
 450              		.align	2
 451              		.global	PSI_Init
 452              		.thumb
 453              		.thumb_func
 454              		.type	PSI_Init, %function
 455              	PSI_Init:
 456              	.LFB0:
  92:Generated_Source\PSoC5/PSI.c **** 
 457              		.loc 1 92 0
 458              		.cfi_startproc
 459              		@ args = 0, pretend = 0, frame = 0
 460              		@ frame_needed = 0, uses_anonymous_args = 0
 461 0000 F0B5     		push	{r4, r5, r6, r7, lr}
 462              		.cfi_def_cfa_offset 20
 463              		.cfi_offset 4, -20
 464              		.cfi_offset 5, -16
 465              		.cfi_offset 6, -12
 466              		.cfi_offset 7, -8
 467              		.cfi_offset 14, -4
 468 0002 83B0     		sub	sp, sp, #12
 469              		.cfi_def_cfa_offset 32
  94:Generated_Source\PSoC5/PSI.c ****     PSI_convDone = 0u;
 470              		.loc 1 94 0
 471 0004 274D     		ldr	r5, .L32
 472 0006 0127     		movs	r7, #1
 473 0008 2F70     		strb	r7, [r5]
  95:Generated_Source\PSoC5/PSI.c **** 
 474              		.loc 1 95 0
 475 000a 274E     		ldr	r6, .L32+4
 476 000c 0024     		movs	r4, #0
 477 000e 7471     		strb	r4, [r6, #5]
  97:Generated_Source\PSoC5/PSI.c **** 
 478              		.loc 1 97 0
 479 0010 1020     		movs	r0, #16
 480 0012 FFF7FEFF 		bl	PSI_Ext_CP_Clk_SetModeRegister
 481              	.LVL49:
 101:Generated_Source\PSoC5/PSI.c ****     #endif /* PSI_DEFAULT_INTERNAL_CLK */
 482              		.loc 1 101 0
 483 0016 1020     		movs	r0, #16
 484 0018 FFF7FEFF 		bl	PSI_theACLK_SetModeRegister
 485              	.LVL50:
 106:Generated_Source\PSoC5/PSI.c ****     #endif   /* End PSI_IRQ_REMOVE */
 486              		.loc 1 106 0
 487 001c 0721     		movs	r1, #7
 488 001e 1D20     		movs	r0, #29
 489 0020 FFF7FEFF 		bl	CyIntSetPriority
ARM GAS  C:\Users\scott\AppData\Local\Temp\cciBmnUj.s 			page 41


 490              	.LVL51:
 110:Generated_Source\PSoC5/PSI.c ****     PSI_DSM_DEM1_REG    = PSI_CFG1_DSM_DEM1;
 491              		.loc 1 110 0
 492 0024 0422     		movs	r2, #4
 493 0026 214B     		ldr	r3, .L32+8
 494 0028 1A70     		strb	r2, [r3]
 111:Generated_Source\PSoC5/PSI.c ****     PSI_DSM_MISC_REG    = PSI_CFG1_DSM_MISC;
 495              		.loc 1 111 0
 496 002a 0133     		adds	r3, r3, #1
 497 002c 1C70     		strb	r4, [r3]
 112:Generated_Source\PSoC5/PSI.c ****     PSI_DSM_CLK_REG    |= PSI_CFG1_DSM_CLK;
 498              		.loc 1 112 0
 499 002e 0733     		adds	r3, r3, #7
 500 0030 1C70     		strb	r4, [r3]
 113:Generated_Source\PSoC5/PSI.c ****     PSI_DSM_REF1_REG    = PSI_CFG1_DSM_REF1;
 501              		.loc 1 113 0
 502 0032 1F4A     		ldr	r2, .L32+12
 503 0034 1378     		ldrb	r3, [r2]	@ zero_extendqisi2
 504 0036 43F01803 		orr	r3, r3, #24
 505 003a 1370     		strb	r3, [r2]
 114:Generated_Source\PSoC5/PSI.c **** 
 506              		.loc 1 114 0
 507 003c 1D4B     		ldr	r3, .L32+16
 508 003e 1C70     		strb	r4, [r3]
 116:Generated_Source\PSoC5/PSI.c ****     PSI_DSM_OUT1_REG    = PSI_CFG1_DSM_OUT1;
 509              		.loc 1 116 0
 510 0040 03F2F523 		addw	r3, r3, #757
 511 0044 1C70     		strb	r4, [r3]
 117:Generated_Source\PSoC5/PSI.c **** 
 512              		.loc 1 117 0
 513 0046 0133     		adds	r3, r3, #1
 514 0048 1C70     		strb	r4, [r3]
 119:Generated_Source\PSoC5/PSI.c ****     PSI_DSM_CR1_REG     = PSI_CFG1_DSM_CR1;
 515              		.loc 1 119 0
 516 004a 0A22     		movs	r2, #10
 517 004c A3F20933 		subw	r3, r3, #777
 518 0050 1A70     		strb	r2, [r3]
 120:Generated_Source\PSoC5/PSI.c **** #if(PSI_MI_ENABLE != 0u) /* Enable Modulator Input */
 519              		.loc 1 120 0
 520 0052 0133     		adds	r3, r3, #1
 521 0054 1C70     		strb	r4, [r3]
 124:Generated_Source\PSoC5/PSI.c **** #endif /* PSI_MI_ENABLE != 0u*/    
 522              		.loc 1 124 0
 523 0056 0233     		adds	r3, r3, #2
 524 0058 1C70     		strb	r4, [r3]
 126:Generated_Source\PSoC5/PSI.c ****     PSI_DSM_CR9_REG     = PSI_CFG1_DSM_CR9;
 525              		.loc 1 126 0
 526 005a 5B22     		movs	r2, #91
 527 005c 0533     		adds	r3, r3, #5
 528 005e 1A70     		strb	r2, [r3]
 127:Generated_Source\PSoC5/PSI.c ****     PSI_DSM_CR13_REG    = PSI_CFG1_DSM_CR13;
 529              		.loc 1 127 0
 530 0060 5E22     		movs	r2, #94
 531 0062 0133     		adds	r3, r3, #1
 532 0064 1A70     		strb	r2, [r3]
 128:Generated_Source\PSoC5/PSI.c **** 
 533              		.loc 1 128 0
ARM GAS  C:\Users\scott\AppData\Local\Temp\cciBmnUj.s 			page 42


 534 0066 0433     		adds	r3, r3, #4
 535 0068 1C70     		strb	r4, [r3]
 130:Generated_Source\PSoC5/PSI.c **** 
 536              		.loc 1 130 0
 537 006a 1423     		movs	r3, #20
 538 006c 124A     		ldr	r2, .L32+20
 539 006e 1370     		strb	r3, [r2]
 133:Generated_Source\PSoC5/PSI.c ****                                       PSI_CFG1_IDEAL_DEC_GAIN,
 540              		.loc 1 133 0
 541 0070 0097     		str	r7, [sp]
 542 0072 4FF40042 		mov	r2, #32768
 543 0076 48F6F051 		movw	r1, #36336
 544 007a 0220     		movs	r0, #2
 545 007c FFF7FEFF 		bl	PSI_GainCompensation
 546              	.LVL52:
 161:Generated_Source\PSoC5/PSI.c ****     CY_SET_REG16(PSI_DEC_GCOR_16B_PTR, PSI_gcor[PSI_Config - 1u].gcor);
 547              		.loc 1 161 0
 548 0080 2B78     		ldrb	r3, [r5]	@ zero_extendqisi2
 549 0082 013B     		subs	r3, r3, #1
 550 0084 06EB8303 		add	r3, r6, r3, lsl #2
 551 0088 9A78     		ldrb	r2, [r3, #2]	@ zero_extendqisi2
 552 008a 0C4B     		ldr	r3, .L32+24
 553 008c 1A70     		strb	r2, [r3]
 162:Generated_Source\PSoC5/PSI.c **** 
 554              		.loc 1 162 0
 555 008e 2B78     		ldrb	r3, [r5]	@ zero_extendqisi2
 556 0090 013B     		subs	r3, r3, #1
 557 0092 36F82320 		ldrh	r2, [r6, r3, lsl #2]
 558 0096 0A4B     		ldr	r3, .L32+28
 559 0098 1A80     		strh	r2, [r3]	@ movhi
 165:Generated_Source\PSoC5/PSI.c **** }
 560              		.loc 1 165 0
 561 009a 2878     		ldrb	r0, [r5]	@ zero_extendqisi2
 562 009c FFF7FEFF 		bl	PSI_InitConfig
 563              	.LVL53:
 166:Generated_Source\PSoC5/PSI.c **** 
 564              		.loc 1 166 0
 565 00a0 03B0     		add	sp, sp, #12
 566              		.cfi_def_cfa_offset 20
 567              		@ sp needed
 568 00a2 F0BD     		pop	{r4, r5, r6, r7, pc}
 569              	.L33:
 570              		.align	2
 571              	.L32:
 572 00a4 00000000 		.word	.LANCHOR1
 573 00a8 00000000 		.word	.LANCHOR0
 574 00ac 96580040 		.word	1073764502
 575 00b0 075B0040 		.word	1073765127
 576 00b4 93580040 		.word	1073764499
 577 00b8 014E0040 		.word	1073761793
 578 00bc 0E4E0040 		.word	1073761806
 579 00c0 0C4E0040 		.word	1073761804
 580              		.cfi_endproc
 581              	.LFE0:
 582              		.size	PSI_Init, .-PSI_Init
 583              		.section	.text.PSI_Enable,"ax",%progbits
 584              		.align	2
ARM GAS  C:\Users\scott\AppData\Local\Temp\cciBmnUj.s 			page 43


 585              		.global	PSI_Enable
 586              		.thumb
 587              		.thumb_func
 588              		.type	PSI_Enable, %function
 589              	PSI_Enable:
 590              	.LFB1:
 187:Generated_Source\PSoC5/PSI.c **** 	uint8 config;
 591              		.loc 1 187 0
 592              		.cfi_startproc
 593              		@ args = 0, pretend = 0, frame = 0
 594              		@ frame_needed = 0, uses_anonymous_args = 0
 595 0000 70B5     		push	{r4, r5, r6, lr}
 596              		.cfi_def_cfa_offset 16
 597              		.cfi_offset 4, -16
 598              		.cfi_offset 5, -12
 599              		.cfi_offset 6, -8
 600              		.cfi_offset 14, -4
 190:Generated_Source\PSoC5/PSI.c **** 
 601              		.loc 1 190 0
 602 0002 FFF7FEFF 		bl	CyEnterCriticalSection
 603              	.LVL54:
 604 0006 0646     		mov	r6, r0
 605              	.LVL55:
 193:Generated_Source\PSoC5/PSI.c ****     
 606              		.loc 1 193 0
 607 0008 2A4B     		ldr	r3, .L36
 608 000a 1B78     		ldrb	r3, [r3]	@ zero_extendqisi2
 609              	.LVL56:
 196:Generated_Source\PSoC5/PSI.c ****     PSI_PWRMGR_DSM_REG |= PSI_ACT_PWR_DSM_EN;
 610              		.loc 1 196 0
 611 000c 2A4B     		ldr	r3, .L36+4
 612 000e 1A78     		ldrb	r2, [r3]	@ zero_extendqisi2
 613 0010 42F00102 		orr	r2, r2, #1
 614 0014 1A70     		strb	r2, [r3]
 197:Generated_Source\PSoC5/PSI.c **** 
 615              		.loc 1 197 0
 616 0016 1A78     		ldrb	r2, [r3]	@ zero_extendqisi2
 617 0018 42F01002 		orr	r2, r2, #16
 618 001c 1A70     		strb	r2, [r3]
 200:Generated_Source\PSoC5/PSI.c ****     PSI_STBY_PWRMGR_DSM_REG |= PSI_STBY_PWR_DSM_EN;
 619              		.loc 1 200 0
 620 001e 1033     		adds	r3, r3, #16
 621 0020 1A78     		ldrb	r2, [r3]	@ zero_extendqisi2
 622 0022 42F00102 		orr	r2, r2, #1
 623 0026 1A70     		strb	r2, [r3]
 201:Generated_Source\PSoC5/PSI.c **** 
 624              		.loc 1 201 0
 625 0028 1A78     		ldrb	r2, [r3]	@ zero_extendqisi2
 626 002a 42F01002 		orr	r2, r2, #16
 627 002e 1A70     		strb	r2, [r3]
 204:Generated_Source\PSoC5/PSI.c ****     PSI_RESET_CR5_REG |= PSI_IGNORE_PRESA2;
 628              		.loc 1 204 0
 629 0030 224D     		ldr	r5, .L36+8
 630 0032 2B78     		ldrb	r3, [r5]	@ zero_extendqisi2
 631 0034 43F00203 		orr	r3, r3, #2
 632 0038 2B70     		strb	r3, [r5]
 205:Generated_Source\PSoC5/PSI.c **** 
ARM GAS  C:\Users\scott\AppData\Local\Temp\cciBmnUj.s 			page 44


 633              		.loc 1 205 0
 634 003a 214C     		ldr	r4, .L36+12
 635 003c 2378     		ldrb	r3, [r4]	@ zero_extendqisi2
 636 003e 43F00203 		orr	r3, r3, #2
 637 0042 2370     		strb	r3, [r4]
 207:Generated_Source\PSoC5/PSI.c **** 
 638              		.loc 1 207 0
 639 0044 1F4A     		ldr	r2, .L36+16
 640 0046 1378     		ldrb	r3, [r2]	@ zero_extendqisi2
 641 0048 43F00303 		orr	r3, r3, #3
 642 004c 1370     		strb	r3, [r2]
 273:Generated_Source\PSoC5/PSI.c **** 
 643              		.loc 1 273 0
 644 004e 0320     		movs	r0, #3
 645 0050 FFF7FEFF 		bl	CyDelayUs
 646              	.LVL57:
 276:Generated_Source\PSoC5/PSI.c ****     PSI_RESET_CR5_REG &= (uint8)~PSI_IGNORE_PRESA2;
 647              		.loc 1 276 0
 648 0054 2B78     		ldrb	r3, [r5]	@ zero_extendqisi2
 649 0056 03F0FD03 		and	r3, r3, #253
 650 005a 2B70     		strb	r3, [r5]
 277:Generated_Source\PSoC5/PSI.c **** 
 651              		.loc 1 277 0
 652 005c 2378     		ldrb	r3, [r4]	@ zero_extendqisi2
 653 005e 03F0FD03 		and	r3, r3, #253
 654 0062 2370     		strb	r3, [r4]
 280:Generated_Source\PSoC5/PSI.c **** 
 655              		.loc 1 280 0
 656 0064 184A     		ldr	r2, .L36+20
 657 0066 1378     		ldrb	r3, [r2]	@ zero_extendqisi2
 658 0068 43F00603 		orr	r3, r3, #6
 659 006c 1370     		strb	r3, [r2]
 283:Generated_Source\PSoC5/PSI.c **** 
 660              		.loc 1 283 0
 661 006e 7A22     		movs	r2, #122
 662 0070 164B     		ldr	r3, .L36+24
 663 0072 1A70     		strb	r2, [r3]
 287:Generated_Source\PSoC5/PSI.c ****         PSI_STBY_PWRMGR_CLK_REG |= PSI_STBY_PWR_CLK_EN;
 664              		.loc 1 287 0
 665 0074 164A     		ldr	r2, .L36+28
 666 0076 1378     		ldrb	r3, [r2]	@ zero_extendqisi2
 667 0078 43F00103 		orr	r3, r3, #1
 668 007c 1370     		strb	r3, [r2]
 288:Generated_Source\PSoC5/PSI.c ****     #endif /* PSI_DEFAULT_INTERNAL_CLK */
 669              		.loc 1 288 0
 670 007e 1032     		adds	r2, r2, #16
 671 0080 1378     		ldrb	r3, [r2]	@ zero_extendqisi2
 672 0082 43F00103 		orr	r3, r3, #1
 673 0086 1370     		strb	r3, [r2]
 292:Generated_Source\PSoC5/PSI.c ****     PSI_STBY_PWRMGR_CHARGE_PUMP_CLK_REG |= PSI_STBY_PWR_CHARGE_PUMP_CLK_EN;
 674              		.loc 1 292 0
 675 0088 0F3A     		subs	r2, r2, #15
 676 008a 1378     		ldrb	r3, [r2]	@ zero_extendqisi2
 677 008c 43F00103 		orr	r3, r3, #1
 678 0090 1370     		strb	r3, [r2]
 293:Generated_Source\PSoC5/PSI.c **** 
 679              		.loc 1 293 0
ARM GAS  C:\Users\scott\AppData\Local\Temp\cciBmnUj.s 			page 45


 680 0092 1032     		adds	r2, r2, #16
 681 0094 1378     		ldrb	r3, [r2]	@ zero_extendqisi2
 682 0096 43F00103 		orr	r3, r3, #1
 683 009a 1370     		strb	r3, [r2]
 297:Generated_Source\PSoC5/PSI.c ****         /* Enable interrupt */
 684              		.loc 1 297 0
 685 009c 4FF00053 		mov	r3, #536870912
 686 00a0 0C4A     		ldr	r2, .L36+32
 687 00a2 1360     		str	r3, [r2]
 299:Generated_Source\PSoC5/PSI.c ****     #endif   /* End PSI_IRQ_REMOVE */
 688              		.loc 1 299 0
 689 00a4 A2F5C072 		sub	r2, r2, #384
 690 00a8 1360     		str	r3, [r2]
 302:Generated_Source\PSoC5/PSI.c **** 
 691              		.loc 1 302 0
 692 00aa 3046     		mov	r0, r6
 693 00ac FFF7FEFF 		bl	CyExitCriticalSection
 694              	.LVL58:
 695 00b0 70BD     		pop	{r4, r5, r6, pc}
 696              	.LVL59:
 697              	.L37:
 698 00b2 00BF     		.align	2
 699              	.L36:
 700 00b4 00000000 		.word	.LANCHOR1
 701 00b8 AA430040 		.word	1073759146
 702 00bc F8460040 		.word	1073759992
 703 00c0 F9460040 		.word	1073759993
 704 00c4 91580040 		.word	1073764497
 705 00c8 77580040 		.word	1073764471
 706 00cc 82580040 		.word	1073764482
 707 00d0 A1430040 		.word	1073759137
 708 00d4 80E200E0 		.word	-536812928
 709              		.cfi_endproc
 710              	.LFE1:
 711              		.size	PSI_Enable, .-PSI_Enable
 712              		.section	.text.PSI_Start,"ax",%progbits
 713              		.align	2
 714              		.global	PSI_Start
 715              		.thumb
 716              		.thumb_func
 717              		.type	PSI_Start, %function
 718              	PSI_Start:
 719              	.LFB2:
 335:Generated_Source\PSoC5/PSI.c ****     if(PSI_initVar == 0u)
 720              		.loc 1 335 0
 721              		.cfi_startproc
 722              		@ args = 0, pretend = 0, frame = 0
 723              		@ frame_needed = 0, uses_anonymous_args = 0
 724 0000 08B5     		push	{r3, lr}
 725              		.cfi_def_cfa_offset 8
 726              		.cfi_offset 3, -8
 727              		.cfi_offset 14, -4
 336:Generated_Source\PSoC5/PSI.c ****     {
 728              		.loc 1 336 0
 729 0002 084B     		ldr	r3, .L42
 730 0004 9B79     		ldrb	r3, [r3, #6]	@ zero_extendqisi2
 731 0006 4BB9     		cbnz	r3, .L39
ARM GAS  C:\Users\scott\AppData\Local\Temp\cciBmnUj.s 			page 46


 338:Generated_Source\PSoC5/PSI.c ****         {
 732              		.loc 1 338 0
 733 0008 064B     		ldr	r3, .L42
 734 000a DB79     		ldrb	r3, [r3, #7]	@ zero_extendqisi2
 735 000c 13F0FF0F 		tst	r3, #255
 736 0010 01D1     		bne	.L40
 340:Generated_Source\PSoC5/PSI.c ****         }
 737              		.loc 1 340 0
 738 0012 FFF7FEFF 		bl	PSI_Init
 739              	.LVL60:
 740              	.L40:
 342:Generated_Source\PSoC5/PSI.c ****     }
 741              		.loc 1 342 0
 742 0016 0122     		movs	r2, #1
 743 0018 024B     		ldr	r3, .L42
 744 001a 9A71     		strb	r2, [r3, #6]
 745              	.L39:
 346:Generated_Source\PSoC5/PSI.c **** }
 746              		.loc 1 346 0
 747 001c FFF7FEFF 		bl	PSI_Enable
 748              	.LVL61:
 749 0020 08BD     		pop	{r3, pc}
 750              	.L43:
 751 0022 00BF     		.align	2
 752              	.L42:
 753 0024 00000000 		.word	.LANCHOR0
 754              		.cfi_endproc
 755              	.LFE2:
 756              		.size	PSI_Start, .-PSI_Start
 757              		.section	.text.PSI_Stop,"ax",%progbits
 758              		.align	2
 759              		.global	PSI_Stop
 760              		.thumb
 761              		.thumb_func
 762              		.type	PSI_Stop, %function
 763              	PSI_Stop:
 764              	.LFB3:
 368:Generated_Source\PSoC5/PSI.c ****     uint8 enableInterrupts;
 765              		.loc 1 368 0
 766              		.cfi_startproc
 767              		@ args = 0, pretend = 0, frame = 0
 768              		@ frame_needed = 0, uses_anonymous_args = 0
 769 0000 70B5     		push	{r4, r5, r6, lr}
 770              		.cfi_def_cfa_offset 16
 771              		.cfi_offset 4, -16
 772              		.cfi_offset 5, -12
 773              		.cfi_offset 6, -8
 774              		.cfi_offset 14, -4
 370:Generated_Source\PSoC5/PSI.c **** 
 775              		.loc 1 370 0
 776 0002 FFF7FEFF 		bl	CyEnterCriticalSection
 777              	.LVL62:
 778 0006 0646     		mov	r6, r0
 779              	.LVL63:
 373:Generated_Source\PSoC5/PSI.c ****     PSI_DEC_SR_REG |=  PSI_DEC_INTR_CLEAR;
 780              		.loc 1 373 0
 781 0008 314A     		ldr	r2, .L46
ARM GAS  C:\Users\scott\AppData\Local\Temp\cciBmnUj.s 			page 47


 782 000a 1378     		ldrb	r3, [r2]	@ zero_extendqisi2
 783 000c 03F0FE03 		and	r3, r3, #254
 784 0010 1370     		strb	r3, [r2]
 374:Generated_Source\PSoC5/PSI.c **** 
 785              		.loc 1 374 0
 786 0012 0132     		adds	r2, r2, #1
 787 0014 1378     		ldrb	r3, [r2]	@ zero_extendqisi2
 788 0016 43F00403 		orr	r3, r3, #4
 789 001a 1370     		strb	r3, [r2]
 378:Generated_Source\PSoC5/PSI.c ****     PSI_RESET_CR5_REG |= PSI_IGNORE_PRESA2;
 790              		.loc 1 378 0
 791 001c 2D4D     		ldr	r5, .L46+4
 792 001e 2B78     		ldrb	r3, [r5]	@ zero_extendqisi2
 793 0020 43F00203 		orr	r3, r3, #2
 794 0024 2B70     		strb	r3, [r5]
 379:Generated_Source\PSoC5/PSI.c **** 
 795              		.loc 1 379 0
 796 0026 2C4C     		ldr	r4, .L46+8
 797 0028 2378     		ldrb	r3, [r4]	@ zero_extendqisi2
 798 002a 43F00203 		orr	r3, r3, #2
 799 002e 2370     		strb	r3, [r4]
 381:Generated_Source\PSoC5/PSI.c ****     PSI_DSM_REF0_REG &= (uint8)~PSI_DSM_EN_BUF_VREF_INN;
 800              		.loc 1 381 0
 801 0030 02F52962 		add	r2, r2, #2704
 802 0034 1378     		ldrb	r3, [r2]	@ zero_extendqisi2
 803 0036 03F0FC03 		and	r3, r3, #252
 804 003a 1370     		strb	r3, [r2]
 382:Generated_Source\PSoC5/PSI.c **** 
 805              		.loc 1 382 0
 806 003c 0132     		adds	r2, r2, #1
 807 003e 1378     		ldrb	r3, [r2]	@ zero_extendqisi2
 808 0040 03F0F703 		and	r3, r3, #247
 809 0044 1370     		strb	r3, [r2]
 385:Generated_Source\PSoC5/PSI.c **** 
 810              		.loc 1 385 0
 811 0046 0320     		movs	r0, #3
 812 0048 FFF7FEFF 		bl	CyDelayUs
 813              	.LVL64:
 388:Generated_Source\PSoC5/PSI.c ****     PSI_RESET_CR5_REG &= (uint8)~PSI_IGNORE_PRESA2;
 814              		.loc 1 388 0
 815 004c 2B78     		ldrb	r3, [r5]	@ zero_extendqisi2
 816 004e 03F0FD03 		and	r3, r3, #253
 817 0052 2B70     		strb	r3, [r5]
 389:Generated_Source\PSoC5/PSI.c **** 
 818              		.loc 1 389 0
 819 0054 2378     		ldrb	r3, [r4]	@ zero_extendqisi2
 820 0056 03F0FD03 		and	r3, r3, #253
 821 005a 2370     		strb	r3, [r4]
 392:Generated_Source\PSoC5/PSI.c **** 
 822              		.loc 1 392 0
 823 005c 1F4B     		ldr	r3, .L46+12
 824 005e 1A78     		ldrb	r2, [r3]	@ zero_extendqisi2
 825 0060 02F0EF02 		and	r2, r2, #239
 826 0064 1A70     		strb	r2, [r3]
 395:Generated_Source\PSoC5/PSI.c **** 
 827              		.loc 1 395 0
 828 0066 1A78     		ldrb	r2, [r3]	@ zero_extendqisi2
ARM GAS  C:\Users\scott\AppData\Local\Temp\cciBmnUj.s 			page 48


 829 0068 02F0FE02 		and	r2, r2, #254
 830 006c 1A70     		strb	r2, [r3]
 398:Generated_Source\PSoC5/PSI.c ****     PSI_STBY_PWRMGR_DSM_REG &= (uint8)~PSI_STBY_PWR_DSM_EN;
 831              		.loc 1 398 0
 832 006e 1033     		adds	r3, r3, #16
 833 0070 1A78     		ldrb	r2, [r3]	@ zero_extendqisi2
 834 0072 02F0FE02 		and	r2, r2, #254
 835 0076 1A70     		strb	r2, [r3]
 399:Generated_Source\PSoC5/PSI.c **** 
 836              		.loc 1 399 0
 837 0078 1A78     		ldrb	r2, [r3]	@ zero_extendqisi2
 838 007a 02F0EF02 		and	r2, r2, #239
 839 007e 1A70     		strb	r2, [r3]
 402:Generated_Source\PSoC5/PSI.c **** 
 840              		.loc 1 402 0
 841 0080 174A     		ldr	r2, .L46+16
 842 0082 1378     		ldrb	r3, [r2]	@ zero_extendqisi2
 843 0084 03F0F903 		and	r3, r3, #249
 844 0088 1370     		strb	r3, [r2]
 406:Generated_Source\PSoC5/PSI.c ****         PSI_STBY_PWRMGR_CLK_REG &= (uint8)~PSI_STBY_PWR_CLK_EN;
 845              		.loc 1 406 0
 846 008a A2F5A652 		sub	r2, r2, #5312
 847 008e 163A     		subs	r2, r2, #22
 848 0090 1378     		ldrb	r3, [r2]	@ zero_extendqisi2
 849 0092 03F0FE03 		and	r3, r3, #254
 850 0096 1370     		strb	r3, [r2]
 407:Generated_Source\PSoC5/PSI.c ****     #endif /* PSI_DEFAULT_INTERNAL_CLK */
 851              		.loc 1 407 0
 852 0098 1032     		adds	r2, r2, #16
 853 009a 1378     		ldrb	r3, [r2]	@ zero_extendqisi2
 854 009c 03F0FE03 		and	r3, r3, #254
 855 00a0 1370     		strb	r3, [r2]
 411:Generated_Source\PSoC5/PSI.c ****     /* Disable power to charge pump clock */
 856              		.loc 1 411 0
 857 00a2 02F5A652 		add	r2, r2, #5312
 858 00a6 1132     		adds	r2, r2, #17
 859 00a8 1378     		ldrb	r3, [r2]	@ zero_extendqisi2
 860 00aa 03F0F703 		and	r3, r3, #247
 861 00ae 1370     		strb	r3, [r2]
 413:Generated_Source\PSoC5/PSI.c ****     PSI_STBY_PWRMGR_CHARGE_PUMP_CLK_REG &= (uint8)~PSI_STBY_PWR_CHARGE_PUMP_CLK_EN;
 862              		.loc 1 413 0
 863 00b0 A2F5A752 		sub	r2, r2, #5344
 864 00b4 1378     		ldrb	r3, [r2]	@ zero_extendqisi2
 865 00b6 03F0FE03 		and	r3, r3, #254
 866 00ba 1370     		strb	r3, [r2]
 414:Generated_Source\PSoC5/PSI.c ****     
 867              		.loc 1 414 0
 868 00bc 1032     		adds	r2, r2, #16
 869 00be 1378     		ldrb	r3, [r2]	@ zero_extendqisi2
 870 00c0 03F0FE03 		and	r3, r3, #254
 871 00c4 1370     		strb	r3, [r2]
 416:Generated_Source\PSoC5/PSI.c **** }
 872              		.loc 1 416 0
 873 00c6 3046     		mov	r0, r6
 874 00c8 FFF7FEFF 		bl	CyExitCriticalSection
 875              	.LVL65:
 876 00cc 70BD     		pop	{r4, r5, r6, pc}
ARM GAS  C:\Users\scott\AppData\Local\Temp\cciBmnUj.s 			page 49


 877              	.LVL66:
 878              	.L47:
 879 00ce 00BF     		.align	2
 880              	.L46:
 881 00d0 004E0040 		.word	1073761792
 882 00d4 F8460040 		.word	1073759992
 883 00d8 F9460040 		.word	1073759993
 884 00dc AA430040 		.word	1073759146
 885 00e0 77580040 		.word	1073764471
 886              		.cfi_endproc
 887              	.LFE3:
 888              		.size	PSI_Stop, .-PSI_Stop
 889              		.section	.text.PSI_SetBufferGain,"ax",%progbits
 890              		.align	2
 891              		.global	PSI_SetBufferGain
 892              		.thumb
 893              		.thumb_func
 894              		.type	PSI_SetBufferGain, %function
 895              	PSI_SetBufferGain:
 896              	.LFB4:
 435:Generated_Source\PSoC5/PSI.c ****     uint8 tmpReg;
 897              		.loc 1 435 0
 898              		.cfi_startproc
 899              		@ args = 0, pretend = 0, frame = 0
 900              		@ frame_needed = 0, uses_anonymous_args = 0
 901              		@ link register save eliminated.
 902              	.LVL67:
 437:Generated_Source\PSoC5/PSI.c ****     tmpReg |= (uint8)(gain << PSI_DSM_GAIN_SHIFT) & PSI_DSM_GAIN_MASK;
 903              		.loc 1 437 0
 904 0000 044A     		ldr	r2, .L49
 905 0002 1378     		ldrb	r3, [r2]	@ zero_extendqisi2
 906 0004 03F0F303 		and	r3, r3, #243
 907              	.LVL68:
 438:Generated_Source\PSoC5/PSI.c ****     PSI_DSM_BUF1_REG = tmpReg;
 908              		.loc 1 438 0
 909 0008 8000     		lsls	r0, r0, #2
 910              	.LVL69:
 911 000a 00F00C00 		and	r0, r0, #12
 912 000e 1843     		orrs	r0, r0, r3
 913              	.LVL70:
 439:Generated_Source\PSoC5/PSI.c **** }
 914              		.loc 1 439 0
 915 0010 1070     		strb	r0, [r2]
 916 0012 7047     		bx	lr
 917              	.L50:
 918              		.align	2
 919              	.L49:
 920 0014 9B580040 		.word	1073764507
 921              		.cfi_endproc
 922              	.LFE4:
 923              		.size	PSI_SetBufferGain, .-PSI_SetBufferGain
 924              		.section	.text.PSI_SetCoherency,"ax",%progbits
 925              		.align	2
 926              		.global	PSI_SetCoherency
 927              		.thumb
 928              		.thumb_func
 929              		.type	PSI_SetCoherency, %function
ARM GAS  C:\Users\scott\AppData\Local\Temp\cciBmnUj.s 			page 50


 930              	PSI_SetCoherency:
 931              	.LFB5:
 471:Generated_Source\PSoC5/PSI.c ****     uint8 tmpReg;
 932              		.loc 1 471 0
 933              		.cfi_startproc
 934              		@ args = 0, pretend = 0, frame = 0
 935              		@ frame_needed = 0, uses_anonymous_args = 0
 936              		@ link register save eliminated.
 937              	.LVL71:
 474:Generated_Source\PSoC5/PSI.c ****     tmpReg |= coherency & PSI_DEC_SAMP_KEY_MASK;
 938              		.loc 1 474 0
 939 0000 044A     		ldr	r2, .L52
 940 0002 1378     		ldrb	r3, [r2]	@ zero_extendqisi2
 941 0004 03F0FC03 		and	r3, r3, #252
 942              	.LVL72:
 475:Generated_Source\PSoC5/PSI.c ****     PSI_DEC_COHER_REG = tmpReg;
 943              		.loc 1 475 0
 944 0008 00F00300 		and	r0, r0, #3
 945              	.LVL73:
 946 000c 1843     		orrs	r0, r0, r3
 947              	.LVL74:
 476:Generated_Source\PSoC5/PSI.c **** }
 948              		.loc 1 476 0
 949 000e 1070     		strb	r0, [r2]
 950 0010 7047     		bx	lr
 951              	.L53:
 952 0012 00BF     		.align	2
 953              	.L52:
 954 0014 144E0040 		.word	1073761812
 955              		.cfi_endproc
 956              	.LFE5:
 957              		.size	PSI_SetCoherency, .-PSI_SetCoherency
 958              		.global	__aeabi_ui2f
 959              		.global	__aeabi_fmul
 960              		.global	__aeabi_f2d
 961              		.global	__aeabi_dcmpgt
 962              		.global	__aeabi_f2uiz
 963              		.section	.text.PSI_SetGCOR,"ax",%progbits
 964              		.align	2
 965              		.global	PSI_SetGCOR
 966              		.thumb
 967              		.thumb_func
 968              		.type	PSI_SetGCOR, %function
 969              	PSI_SetGCOR:
 970              	.LFB6:
 511:Generated_Source\PSoC5/PSI.c ****     uint16 tmpReg;
 971              		.loc 1 511 0
 972              		.cfi_startproc
 973              		@ args = 0, pretend = 0, frame = 0
 974              		@ frame_needed = 0, uses_anonymous_args = 0
 975              	.LVL75:
 976 0000 10B5     		push	{r4, lr}
 977              		.cfi_def_cfa_offset 8
 978              		.cfi_offset 4, -8
 979              		.cfi_offset 14, -4
 980 0002 0446     		mov	r4, r0
 516:Generated_Source\PSoC5/PSI.c ****     tmpValue = ((float32)tmpReg / (float32)PSI_IDEAL_GAIN_CONST);
ARM GAS  C:\Users\scott\AppData\Local\Temp\cciBmnUj.s 			page 51


 981              		.loc 1 516 0
 982 0004 184B     		ldr	r3, .L58+8
 983 0006 1B78     		ldrb	r3, [r3]	@ zero_extendqisi2
 984 0008 013B     		subs	r3, r3, #1
 985              	.LVL76:
 517:Generated_Source\PSoC5/PSI.c ****     tmpValue = tmpValue * gainAdjust;
 986              		.loc 1 517 0
 987 000a 184A     		ldr	r2, .L58+12
 988 000c 32F82300 		ldrh	r0, [r2, r3, lsl #2]
 989              	.LVL77:
 990 0010 FFF7FEFF 		bl	__aeabi_ui2f
 991              	.LVL78:
 992 0014 4FF06051 		mov	r1, #939524096
 993 0018 FFF7FEFF 		bl	__aeabi_fmul
 994              	.LVL79:
 518:Generated_Source\PSoC5/PSI.c **** 
 995              		.loc 1 518 0
 996 001c 2146     		mov	r1, r4
 997 001e FFF7FEFF 		bl	__aeabi_fmul
 998              	.LVL80:
 999 0022 0446     		mov	r4, r0
 1000              	.LVL81:
 520:Generated_Source\PSoC5/PSI.c ****     {
 1001              		.loc 1 520 0
 1002 0024 FFF7FEFF 		bl	__aeabi_f2d
 1003              	.LVL82:
 1004 0028 0DA3     		adr	r3, .L58
 1005 002a D3E90023 		ldrd	r2, [r3]
 1006 002e FFF7FEFF 		bl	__aeabi_dcmpgt
 1007              	.LVL83:
 1008 0032 88B9     		cbnz	r0, .L56
 526:Generated_Source\PSoC5/PSI.c **** 		tmpReg = (uint16)tmpValue;
 1009              		.loc 1 526 0
 1010 0034 4FF08E41 		mov	r1, #1191182336
 1011 0038 2046     		mov	r0, r4
 1012 003a FFF7FEFF 		bl	__aeabi_fmul
 1013              	.LVL84:
 527:Generated_Source\PSoC5/PSI.c ****         CY_SET_REG16(PSI_DEC_GCOR_16B_PTR, tmpReg);
 1014              		.loc 1 527 0
 1015 003e FFF7FEFF 		bl	__aeabi_f2uiz
 1016              	.LVL85:
 1017 0042 80B2     		uxth	r0, r0
 1018              	.LVL86:
 528:Generated_Source\PSoC5/PSI.c ****         /* Update gain array to be used by SelectConfiguration() API */
 1019              		.loc 1 528 0
 1020 0044 0A4B     		ldr	r3, .L58+16
 1021 0046 1880     		strh	r0, [r3]	@ movhi
 530:Generated_Source\PSoC5/PSI.c **** 
 1022              		.loc 1 530 0
 1023 0048 074B     		ldr	r3, .L58+8
 1024 004a 1B78     		ldrb	r3, [r3]	@ zero_extendqisi2
 1025 004c 013B     		subs	r3, r3, #1
 1026 004e 074A     		ldr	r2, .L58+12
 1027 0050 22F82300 		strh	r0, [r2, r3, lsl #2]	@ movhi
 1028              	.LVL87:
 532:Generated_Source\PSoC5/PSI.c **** 
 1029              		.loc 1 532 0
ARM GAS  C:\Users\scott\AppData\Local\Temp\cciBmnUj.s 			page 52


 1030 0054 0020     		movs	r0, #0
 1031              	.LVL88:
 1032 0056 10BD     		pop	{r4, pc}
 1033              	.LVL89:
 1034              	.L56:
 522:Generated_Source\PSoC5/PSI.c ****     }
 1035              		.loc 1 522 0
 1036 0058 0120     		movs	r0, #1
 1037              	.LVL90:
 536:Generated_Source\PSoC5/PSI.c **** 
 1038              		.loc 1 536 0
 1039 005a 10BD     		pop	{r4, pc}
 1040              	.LVL91:
 1041              	.L59:
 1042 005c AFF30080 		.align	3
 1043              	.L58:
 1044 0060 8F537424 		.word	611603343
 1045 0064 97FFFF3F 		.word	1073741719
 1046 0068 00000000 		.word	.LANCHOR1
 1047 006c 00000000 		.word	.LANCHOR0
 1048 0070 0C4E0040 		.word	1073761804
 1049              		.cfi_endproc
 1050              	.LFE6:
 1051              		.size	PSI_SetGCOR, .-PSI_SetGCOR
 1052              		.section	.text.PSI_ReadGCOR,"ax",%progbits
 1053              		.align	2
 1054              		.global	PSI_ReadGCOR
 1055              		.thumb
 1056              		.thumb_func
 1057              		.type	PSI_ReadGCOR, %function
 1058              	PSI_ReadGCOR:
 1059              	.LFB7:
 558:Generated_Source\PSoC5/PSI.c ****     uint8 gValue;
 1060              		.loc 1 558 0
 1061              		.cfi_startproc
 1062              		@ args = 0, pretend = 0, frame = 0
 1063              		@ frame_needed = 0, uses_anonymous_args = 0
 1064              		@ link register save eliminated.
 562:Generated_Source\PSoC5/PSI.c ****     gcorValue = CY_GET_REG16(PSI_DEC_GCOR_16B_PTR);
 1065              		.loc 1 562 0
 1066 0000 064B     		ldr	r3, .L62
 1067 0002 1B78     		ldrb	r3, [r3]	@ zero_extendqisi2
 1068 0004 DBB2     		uxtb	r3, r3
 1069              	.LVL92:
 563:Generated_Source\PSoC5/PSI.c **** 
 1070              		.loc 1 563 0
 1071 0006 064A     		ldr	r2, .L62+4
 1072 0008 1088     		ldrh	r0, [r2]
 1073 000a 80B2     		uxth	r0, r0
 1074              	.LVL93:
 565:Generated_Source\PSoC5/PSI.c ****     {
 1075              		.loc 1 565 0
 1076 000c 0E2B     		cmp	r3, #14
 1077 000e 03D8     		bhi	.L61
 567:Generated_Source\PSoC5/PSI.c ****     }
 1078              		.loc 1 567 0
 1079 0010 C3F10F03 		rsb	r3, r3, #15
ARM GAS  C:\Users\scott\AppData\Local\Temp\cciBmnUj.s 			page 53


 1080              	.LVL94:
 1081 0014 9840     		lsls	r0, r0, r3
 1082              	.LVL95:
 1083 0016 80B2     		uxth	r0, r0
 1084              	.LVL96:
 1085              	.L61:
 571:Generated_Source\PSoC5/PSI.c **** 
 1086              		.loc 1 571 0
 1087 0018 7047     		bx	lr
 1088              	.L63:
 1089 001a 00BF     		.align	2
 1090              	.L62:
 1091 001c 0E4E0040 		.word	1073761806
 1092 0020 0C4E0040 		.word	1073761804
 1093              		.cfi_endproc
 1094              	.LFE7:
 1095              		.size	PSI_ReadGCOR, .-PSI_ReadGCOR
 1096              		.section	.text.PSI_StartConvert,"ax",%progbits
 1097              		.align	2
 1098              		.global	PSI_StartConvert
 1099              		.thumb
 1100              		.thumb_func
 1101              		.type	PSI_StartConvert, %function
 1102              	PSI_StartConvert:
 1103              	.LFB8:
 592:Generated_Source\PSoC5/PSI.c ****     /* Start the conversion */
 1104              		.loc 1 592 0
 1105              		.cfi_startproc
 1106              		@ args = 0, pretend = 0, frame = 0
 1107              		@ frame_needed = 0, uses_anonymous_args = 0
 1108              		@ link register save eliminated.
 594:Generated_Source\PSoC5/PSI.c **** }
 1109              		.loc 1 594 0
 1110 0000 024A     		ldr	r2, .L65
 1111 0002 1378     		ldrb	r3, [r2]	@ zero_extendqisi2
 1112 0004 43F00103 		orr	r3, r3, #1
 1113 0008 1370     		strb	r3, [r2]
 1114 000a 7047     		bx	lr
 1115              	.L66:
 1116              		.align	2
 1117              	.L65:
 1118 000c 004E0040 		.word	1073761792
 1119              		.cfi_endproc
 1120              	.LFE8:
 1121              		.size	PSI_StartConvert, .-PSI_StartConvert
 1122              		.section	.text.PSI_StopConvert,"ax",%progbits
 1123              		.align	2
 1124              		.global	PSI_StopConvert
 1125              		.thumb
 1126              		.thumb_func
 1127              		.type	PSI_StopConvert, %function
 1128              	PSI_StopConvert:
 1129              	.LFB9:
 615:Generated_Source\PSoC5/PSI.c ****     /* Stop all conversions */
 1130              		.loc 1 615 0
 1131              		.cfi_startproc
 1132              		@ args = 0, pretend = 0, frame = 0
ARM GAS  C:\Users\scott\AppData\Local\Temp\cciBmnUj.s 			page 54


 1133              		@ frame_needed = 0, uses_anonymous_args = 0
 1134              		@ link register save eliminated.
 617:Generated_Source\PSoC5/PSI.c **** }
 1135              		.loc 1 617 0
 1136 0000 024A     		ldr	r2, .L68
 1137 0002 1378     		ldrb	r3, [r2]	@ zero_extendqisi2
 1138 0004 03F0FE03 		and	r3, r3, #254
 1139 0008 1370     		strb	r3, [r2]
 1140 000a 7047     		bx	lr
 1141              	.L69:
 1142              		.align	2
 1143              	.L68:
 1144 000c 004E0040 		.word	1073761792
 1145              		.cfi_endproc
 1146              	.LFE9:
 1147              		.size	PSI_StopConvert, .-PSI_StopConvert
 1148              		.section	.text.PSI_IsEndConversion,"ax",%progbits
 1149              		.align	2
 1150              		.global	PSI_IsEndConversion
 1151              		.thumb
 1152              		.thumb_func
 1153              		.type	PSI_IsEndConversion, %function
 1154              	PSI_IsEndConversion:
 1155              	.LFB10:
 650:Generated_Source\PSoC5/PSI.c ****     uint8 status;
 1156              		.loc 1 650 0
 1157              		.cfi_startproc
 1158              		@ args = 0, pretend = 0, frame = 0
 1159              		@ frame_needed = 0, uses_anonymous_args = 0
 1160              		@ link register save eliminated.
 1161              	.LVL97:
 1162              	.L74:
 658:Generated_Source\PSoC5/PSI.c ****         {
 1163              		.loc 1 658 0
 1164 0000 094B     		ldr	r3, .L75
 1165 0002 1B79     		ldrb	r3, [r3, #4]	@ zero_extendqisi2
 1166 0004 13F0FF0F 		tst	r3, #255
 1167 0008 03D0     		beq	.L71
 660:Generated_Source\PSoC5/PSI.c ****         }
 1168              		.loc 1 660 0
 1169 000a 074B     		ldr	r3, .L75
 1170 000c 5B79     		ldrb	r3, [r3, #5]	@ zero_extendqisi2
 1171 000e DBB2     		uxtb	r3, r3
 1172              	.LVL98:
 1173 0010 03E0     		b	.L72
 1174              	.LVL99:
 1175              	.L71:
 664:Generated_Source\PSoC5/PSI.c ****         }
 1176              		.loc 1 664 0
 1177 0012 064B     		ldr	r3, .L75+4
 1178 0014 1B78     		ldrb	r3, [r3]	@ zero_extendqisi2
 1179 0016 03F00103 		and	r3, r3, #1
 1180              	.LVL100:
 1181              	.L72:
 666:Generated_Source\PSoC5/PSI.c **** 
 1182              		.loc 1 666 0
 1183 001a 012B     		cmp	r3, #1
ARM GAS  C:\Users\scott\AppData\Local\Temp\cciBmnUj.s 			page 55


 1184 001c 01D0     		beq	.L73
 666:Generated_Source\PSoC5/PSI.c **** 
 1185              		.loc 1 666 0 is_stmt 0 discriminator 1
 1186 001e 0028     		cmp	r0, #0
 1187 0020 EED0     		beq	.L74
 1188              	.L73:
 669:Generated_Source\PSoC5/PSI.c **** 
 1189              		.loc 1 669 0 is_stmt 1
 1190 0022 1846     		mov	r0, r3
 1191              	.LVL101:
 1192 0024 7047     		bx	lr
 1193              	.L76:
 1194 0026 00BF     		.align	2
 1195              	.L75:
 1196 0028 00000000 		.word	.LANCHOR0
 1197 002c 014E0040 		.word	1073761793
 1198              		.cfi_endproc
 1199              	.LFE10:
 1200              		.size	PSI_IsEndConversion, .-PSI_IsEndConversion
 1201              		.section	.text.PSI_GetResult8,"ax",%progbits
 1202              		.align	2
 1203              		.global	PSI_GetResult8
 1204              		.thumb
 1205              		.thumb_func
 1206              		.type	PSI_GetResult8, %function
 1207              	PSI_GetResult8:
 1208              	.LFB11:
 697:Generated_Source\PSoC5/PSI.c ****     int8 result;
 1209              		.loc 1 697 0
 1210              		.cfi_startproc
 1211              		@ args = 0, pretend = 0, frame = 0
 1212              		@ frame_needed = 0, uses_anonymous_args = 0
 1213              		@ link register save eliminated.
 702:Generated_Source\PSoC5/PSI.c **** 
 1214              		.loc 1 702 0
 1215 0000 0C4B     		ldr	r3, .L81
 1216 0002 1B78     		ldrb	r3, [r3]	@ zero_extendqisi2
 1217 0004 03F00303 		and	r3, r3, #3
 1218              	.LVL102:
 704:Generated_Source\PSoC5/PSI.c **** 
 1219              		.loc 1 704 0
 1220 0008 0B4A     		ldr	r2, .L81+4
 1221 000a 1078     		ldrb	r0, [r2]	@ zero_extendqisi2
 1222 000c 40B2     		sxtb	r0, r0
 1223              	.LVL103:
 706:Generated_Source\PSoC5/PSI.c ****     {   /* Dummy read of the middle byte to unlock the coherency */
 1224              		.loc 1 706 0
 1225 000e 022B     		cmp	r3, #2
 1226 0010 02D1     		bne	.L78
 708:Generated_Source\PSoC5/PSI.c ****     }
 1227              		.loc 1 708 0
 1228 0012 0A4B     		ldr	r3, .L81+8
 1229              	.LVL104:
 1230 0014 1B78     		ldrb	r3, [r3]	@ zero_extendqisi2
 1231 0016 03E0     		b	.L79
 1232              	.LVL105:
 1233              	.L78:
ARM GAS  C:\Users\scott\AppData\Local\Temp\cciBmnUj.s 			page 56


 710:Generated_Source\PSoC5/PSI.c ****     {   /* Dummy read of the MSB byte to unlock the coherency */
 1234              		.loc 1 710 0
 1235 0018 032B     		cmp	r3, #3
 1236 001a 01D1     		bne	.L79
 712:Generated_Source\PSoC5/PSI.c ****     }
 1237              		.loc 1 712 0
 1238 001c 084B     		ldr	r3, .L81+12
 1239              	.LVL106:
 1240 001e 1B78     		ldrb	r3, [r3]	@ zero_extendqisi2
 1241              	.L79:
 718:Generated_Source\PSoC5/PSI.c ****     {
 1242              		.loc 1 718 0
 1243 0020 084B     		ldr	r3, .L81+16
 1244 0022 1B79     		ldrb	r3, [r3, #4]	@ zero_extendqisi2
 1245 0024 13F0FF0F 		tst	r3, #255
 1246 0028 02D0     		beq	.L80
 720:Generated_Source\PSoC5/PSI.c ****     }
 1247              		.loc 1 720 0
 1248 002a 0022     		movs	r2, #0
 1249 002c 054B     		ldr	r3, .L81+16
 1250 002e 5A71     		strb	r2, [r3, #5]
 1251              	.L80:
 723:Generated_Source\PSoC5/PSI.c **** 
 1252              		.loc 1 723 0
 1253 0030 7047     		bx	lr
 1254              	.L82:
 1255 0032 00BF     		.align	2
 1256              	.L81:
 1257 0034 144E0040 		.word	1073761812
 1258 0038 104E0040 		.word	1073761808
 1259 003c 114E0040 		.word	1073761809
 1260 0040 124E0040 		.word	1073761810
 1261 0044 00000000 		.word	.LANCHOR0
 1262              		.cfi_endproc
 1263              	.LFE11:
 1264              		.size	PSI_GetResult8, .-PSI_GetResult8
 1265              		.section	.text.PSI_GetResult16,"ax",%progbits
 1266              		.align	2
 1267              		.global	PSI_GetResult16
 1268              		.thumb
 1269              		.thumb_func
 1270              		.type	PSI_GetResult16, %function
 1271              	PSI_GetResult16:
 1272              	.LFB12:
 751:Generated_Source\PSoC5/PSI.c ****     uint16 result;
 1273              		.loc 1 751 0
 1274              		.cfi_startproc
 1275              		@ args = 0, pretend = 0, frame = 0
 1276              		@ frame_needed = 0, uses_anonymous_args = 0
 1277              		@ link register save eliminated.
 756:Generated_Source\PSoC5/PSI.c **** 
 1278              		.loc 1 756 0
 1279 0000 0E4B     		ldr	r3, .L87
 1280 0002 1B78     		ldrb	r3, [r3]	@ zero_extendqisi2
 1281 0004 03F00303 		and	r3, r3, #3
 1282              	.LVL107:
 758:Generated_Source\PSoC5/PSI.c ****     {   /*  Use default method to read result registers i.e. LSB byte read at the end*/
ARM GAS  C:\Users\scott\AppData\Local\Temp\cciBmnUj.s 			page 57


 1283              		.loc 1 758 0
 1284 0008 012B     		cmp	r3, #1
 1285 000a 03D8     		bhi	.L84
 764:Generated_Source\PSoC5/PSI.c ****         #endif /* CY_PSOC3 */
 1286              		.loc 1 764 0
 1287 000c 0C4B     		ldr	r3, .L87+4
 1288              	.LVL108:
 1289 000e 1888     		ldrh	r0, [r3]
 1290 0010 80B2     		uxth	r0, r0
 1291              	.LVL109:
 1292 0012 09E0     		b	.L85
 1293              	.LVL110:
 1294              	.L84:
 772:Generated_Source\PSoC5/PSI.c ****             result |=  (uint16)((uint16)PSI_DEC_SAMPM_REG << 8u);
 1295              		.loc 1 772 0
 1296 0014 0A4A     		ldr	r2, .L87+4
 1297 0016 1278     		ldrb	r2, [r2]	@ zero_extendqisi2
 1298              	.LVL111:
 773:Generated_Source\PSoC5/PSI.c ****         #endif /* CY_PSOC3 */
 1299              		.loc 1 773 0
 1300 0018 0A49     		ldr	r1, .L87+8
 1301 001a 0878     		ldrb	r0, [r1]	@ zero_extendqisi2
 1302 001c 42EA0020 		orr	r0, r2, r0, lsl #8
 1303              	.LVL112:
 775:Generated_Source\PSoC5/PSI.c ****         {   /* Dummy read of the MSB byte to unlock the coherency */
 1304              		.loc 1 775 0
 1305 0020 032B     		cmp	r3, #3
 1306 0022 01D1     		bne	.L85
 777:Generated_Source\PSoC5/PSI.c ****         }
 1307              		.loc 1 777 0
 1308 0024 084B     		ldr	r3, .L87+12
 1309              	.LVL113:
 1310 0026 1B78     		ldrb	r3, [r3]	@ zero_extendqisi2
 1311              	.L85:
 781:Generated_Source\PSoC5/PSI.c ****     {
 1312              		.loc 1 781 0
 1313 0028 084B     		ldr	r3, .L87+16
 1314 002a 1B79     		ldrb	r3, [r3, #4]	@ zero_extendqisi2
 1315 002c 13F0FF0F 		tst	r3, #255
 1316 0030 02D0     		beq	.L86
 783:Generated_Source\PSoC5/PSI.c ****     }
 1317              		.loc 1 783 0
 1318 0032 0022     		movs	r2, #0
 1319 0034 054B     		ldr	r3, .L87+16
 1320 0036 5A71     		strb	r2, [r3, #5]
 1321              	.L86:
 787:Generated_Source\PSoC5/PSI.c **** 
 1322              		.loc 1 787 0
 1323 0038 00B2     		sxth	r0, r0
 1324 003a 7047     		bx	lr
 1325              	.L88:
 1326              		.align	2
 1327              	.L87:
 1328 003c 144E0040 		.word	1073761812
 1329 0040 104E0040 		.word	1073761808
 1330 0044 114E0040 		.word	1073761809
 1331 0048 124E0040 		.word	1073761810
ARM GAS  C:\Users\scott\AppData\Local\Temp\cciBmnUj.s 			page 58


 1332 004c 00000000 		.word	.LANCHOR0
 1333              		.cfi_endproc
 1334              	.LFE12:
 1335              		.size	PSI_GetResult16, .-PSI_GetResult16
 1336              		.section	.text.PSI_GetResult32,"ax",%progbits
 1337              		.align	2
 1338              		.global	PSI_GetResult32
 1339              		.thumb
 1340              		.thumb_func
 1341              		.type	PSI_GetResult32, %function
 1342              	PSI_GetResult32:
 1343              	.LFB13:
 811:Generated_Source\PSoC5/PSI.c ****     uint32 result;
 1344              		.loc 1 811 0
 1345              		.cfi_startproc
 1346              		@ args = 0, pretend = 0, frame = 0
 1347              		@ frame_needed = 0, uses_anonymous_args = 0
 1348              		@ link register save eliminated.
 819:Generated_Source\PSoC5/PSI.c **** 
 1349              		.loc 1 819 0
 1350 0000 154B     		ldr	r3, .L94
 1351 0002 1B78     		ldrb	r3, [r3]	@ zero_extendqisi2
 1352 0004 03F00303 		and	r3, r3, #3
 1353              	.LVL114:
 821:Generated_Source\PSoC5/PSI.c ****     {   /*  Use default method to read result registers i.e. LSB byte read at the end*/
 1354              		.loc 1 821 0
 1355 0008 012B     		cmp	r3, #1
 1356 000a 07D8     		bhi	.L90
 832:Generated_Source\PSoC5/PSI.c ****             result = (result << 16u) | (CY_GET_REG16(PSI_DEC_SAMP_16B_PTR));
 1357              		.loc 1 832 0
 1358 000c 134B     		ldr	r3, .L94+4
 1359              	.LVL115:
 1360 000e 1888     		ldrh	r0, [r3]
 1361              	.LVL116:
 833:Generated_Source\PSoC5/PSI.c ****         #endif /* CY_PSOC3 */
 1362              		.loc 1 833 0
 1363 0010 023B     		subs	r3, r3, #2
 1364 0012 1B88     		ldrh	r3, [r3]
 1365 0014 9BB2     		uxth	r3, r3
 1366 0016 43EA0040 		orr	r0, r3, r0, lsl #16
 1367              	.LVL117:
 1368 001a 13E0     		b	.L91
 1369              	.LVL118:
 1370              	.L90:
 836:Generated_Source\PSoC5/PSI.c ****     {   /* Read middle byte at the end */
 1371              		.loc 1 836 0
 1372 001c 022B     		cmp	r3, #2
 1373 001e 0AD1     		bne	.L92
 846:Generated_Source\PSoC5/PSI.c ****             result = (result << 16u) | PSI_DEC_SAMP_REG;
 1374              		.loc 1 846 0
 1375 0020 0E4B     		ldr	r3, .L94+4
 1376              	.LVL119:
 1377 0022 1888     		ldrh	r0, [r3]
 1378              	.LVL120:
 847:Generated_Source\PSoC5/PSI.c ****             result |=  (uint32)((uint32)PSI_DEC_SAMPM_REG << 8u);
 1379              		.loc 1 847 0
 1380 0024 023B     		subs	r3, r3, #2
ARM GAS  C:\Users\scott\AppData\Local\Temp\cciBmnUj.s 			page 59


 1381 0026 1B78     		ldrb	r3, [r3]	@ zero_extendqisi2
 1382 0028 43EA0043 		orr	r3, r3, r0, lsl #16
 1383              	.LVL121:
 848:Generated_Source\PSoC5/PSI.c ****         #endif /* CY_PSOC3 */
 1384              		.loc 1 848 0
 1385 002c 0C4A     		ldr	r2, .L94+8
 1386 002e 1078     		ldrb	r0, [r2]	@ zero_extendqisi2
 1387 0030 43EA0020 		orr	r0, r3, r0, lsl #8
 1388              	.LVL122:
 1389 0034 06E0     		b	.L91
 1390              	.LVL123:
 1391              	.L92:
 863:Generated_Source\PSoC5/PSI.c ****             result |= (uint32)((uint32)CY_GET_REG16(PSI_DEC_SAMPH_16B_PTR) << 16u);
 1392              		.loc 1 863 0
 1393 0036 0B4B     		ldr	r3, .L94+12
 1394              	.LVL124:
 1395 0038 1888     		ldrh	r0, [r3]
 1396 003a 83B2     		uxth	r3, r0
 1397              	.LVL125:
 864:Generated_Source\PSoC5/PSI.c ****         #endif /* CY_PSOC3 */
 1398              		.loc 1 864 0
 1399 003c 074A     		ldr	r2, .L94+4
 1400 003e 1088     		ldrh	r0, [r2]
 1401 0040 43EA0040 		orr	r0, r3, r0, lsl #16
 1402              	.LVL126:
 1403              	.L91:
 868:Generated_Source\PSoC5/PSI.c ****     {
 1404              		.loc 1 868 0
 1405 0044 084B     		ldr	r3, .L94+16
 1406 0046 1B79     		ldrb	r3, [r3, #4]	@ zero_extendqisi2
 1407 0048 13F0FF0F 		tst	r3, #255
 1408 004c 02D0     		beq	.L93
 870:Generated_Source\PSoC5/PSI.c ****     }
 1409              		.loc 1 870 0
 1410 004e 0022     		movs	r2, #0
 1411 0050 054B     		ldr	r3, .L94+16
 1412 0052 5A71     		strb	r2, [r3, #5]
 1413              	.L93:
 874:Generated_Source\PSoC5/PSI.c **** 
 1414              		.loc 1 874 0
 1415 0054 7047     		bx	lr
 1416              	.L95:
 1417 0056 00BF     		.align	2
 1418              	.L94:
 1419 0058 144E0040 		.word	1073761812
 1420 005c 124E0040 		.word	1073761810
 1421 0060 114E0040 		.word	1073761809
 1422 0064 104E0040 		.word	1073761808
 1423 0068 00000000 		.word	.LANCHOR0
 1424              		.cfi_endproc
 1425              	.LFE13:
 1426              		.size	PSI_GetResult32, .-PSI_GetResult32
 1427              		.section	.text.PSI_SetOffset,"ax",%progbits
 1428              		.align	2
 1429              		.global	PSI_SetOffset
 1430              		.thumb
 1431              		.thumb_func
ARM GAS  C:\Users\scott\AppData\Local\Temp\cciBmnUj.s 			page 60


 1432              		.type	PSI_SetOffset, %function
 1433              	PSI_SetOffset:
 1434              	.LFB14:
 904:Generated_Source\PSoC5/PSI.c **** 
 1435              		.loc 1 904 0
 1436              		.cfi_startproc
 1437              		@ args = 0, pretend = 0, frame = 0
 1438              		@ frame_needed = 0, uses_anonymous_args = 0
 1439              		@ link register save eliminated.
 1440              	.LVL127:
 906:Generated_Source\PSoC5/PSI.c **** }
 1441              		.loc 1 906 0
 1442 0000 014B     		ldr	r3, .L97
 1443 0002 9860     		str	r0, [r3, #8]
 1444 0004 7047     		bx	lr
 1445              	.L98:
 1446 0006 00BF     		.align	2
 1447              	.L97:
 1448 0008 00000000 		.word	.LANCHOR0
 1449              		.cfi_endproc
 1450              	.LFE14:
 1451              		.size	PSI_SetOffset, .-PSI_SetOffset
 1452              		.section	.text.PSI_SetGain,"ax",%progbits
 1453              		.align	2
 1454              		.global	PSI_SetGain
 1455              		.thumb
 1456              		.thumb_func
 1457              		.type	PSI_SetGain, %function
 1458              	PSI_SetGain:
 1459              	.LFB15:
 939:Generated_Source\PSoC5/PSI.c ****     PSI_CountsPerVolt = adcGain;
 1460              		.loc 1 939 0
 1461              		.cfi_startproc
 1462              		@ args = 0, pretend = 0, frame = 0
 1463              		@ frame_needed = 0, uses_anonymous_args = 0
 1464              		@ link register save eliminated.
 1465              	.LVL128:
 940:Generated_Source\PSoC5/PSI.c **** }
 1466              		.loc 1 940 0
 1467 0000 014B     		ldr	r3, .L100
 1468 0002 1860     		str	r0, [r3]
 1469 0004 7047     		bx	lr
 1470              	.L101:
 1471 0006 00BF     		.align	2
 1472              	.L100:
 1473 0008 00000000 		.word	PSI_CountsPerVolt
 1474              		.cfi_endproc
 1475              	.LFE15:
 1476              		.size	PSI_SetGain, .-PSI_SetGain
 1477              		.section	.text.PSI_CountsTo_mVolts,"ax",%progbits
 1478              		.align	2
 1479              		.global	PSI_CountsTo_mVolts
 1480              		.thumb
 1481              		.thumb_func
 1482              		.type	PSI_CountsTo_mVolts, %function
 1483              	PSI_CountsTo_mVolts:
 1484              	.LFB16:
ARM GAS  C:\Users\scott\AppData\Local\Temp\cciBmnUj.s 			page 61


 966:Generated_Source\PSoC5/PSI.c **** 
 1485              		.loc 1 966 0
 1486              		.cfi_startproc
 1487              		@ args = 0, pretend = 0, frame = 0
 1488              		@ frame_needed = 0, uses_anonymous_args = 0
 1489              		@ link register save eliminated.
 1490              	.LVL129:
 997:Generated_Source\PSoC5/PSI.c **** 
 1491              		.loc 1 997 0
 1492 0000 064B     		ldr	r3, .L103
 1493 0002 9B68     		ldr	r3, [r3, #8]
 1494 0004 C01A     		subs	r0, r0, r3
 1495              	.LVL130:
 999:Generated_Source\PSoC5/PSI.c **** 
 1496              		.loc 1 999 0
 1497 0006 4FF47A73 		mov	r3, #1000
 1498 000a 03FB00F0 		mul	r0, r3, r0
 1499              	.LVL131:
 1500 000e 044B     		ldr	r3, .L103+4
 1501 0010 1B68     		ldr	r3, [r3]
 1502 0012 90FBF3F0 		sdiv	r0, r0, r3
 1503              	.LVL132:
1002:Generated_Source\PSoC5/PSI.c **** 
 1504              		.loc 1 1002 0
 1505 0016 00B2     		sxth	r0, r0
 1506 0018 7047     		bx	lr
 1507              	.L104:
 1508 001a 00BF     		.align	2
 1509              	.L103:
 1510 001c 00000000 		.word	.LANCHOR0
 1511 0020 00000000 		.word	PSI_CountsPerVolt
 1512              		.cfi_endproc
 1513              	.LFE16:
 1514              		.size	PSI_CountsTo_mVolts, .-PSI_CountsTo_mVolts
 1515              		.global	__aeabi_i2f
 1516              		.global	__aeabi_fdiv
 1517              		.section	.text.PSI_CountsTo_Volts,"ax",%progbits
 1518              		.align	2
 1519              		.global	PSI_CountsTo_Volts
 1520              		.thumb
 1521              		.thumb_func
 1522              		.type	PSI_CountsTo_Volts, %function
 1523              	PSI_CountsTo_Volts:
 1524              	.LFB17:
1027:Generated_Source\PSoC5/PSI.c **** 
 1525              		.loc 1 1027 0
 1526              		.cfi_startproc
 1527              		@ args = 0, pretend = 0, frame = 0
 1528              		@ frame_needed = 0, uses_anonymous_args = 0
 1529              	.LVL133:
 1530 0000 10B5     		push	{r4, lr}
 1531              		.cfi_def_cfa_offset 8
 1532              		.cfi_offset 4, -8
 1533              		.cfi_offset 14, -4
1058:Generated_Source\PSoC5/PSI.c **** 
 1534              		.loc 1 1058 0
 1535 0002 074B     		ldr	r3, .L107
ARM GAS  C:\Users\scott\AppData\Local\Temp\cciBmnUj.s 			page 62


 1536 0004 9B68     		ldr	r3, [r3, #8]
 1537              	.LVL134:
1060:Generated_Source\PSoC5/PSI.c **** 
 1538              		.loc 1 1060 0
 1539 0006 C01A     		subs	r0, r0, r3
 1540              	.LVL135:
 1541 0008 FFF7FEFF 		bl	__aeabi_i2f
 1542              	.LVL136:
 1543 000c 0446     		mov	r4, r0
 1544 000e 054B     		ldr	r3, .L107+4
 1545 0010 1868     		ldr	r0, [r3]
 1546 0012 FFF7FEFF 		bl	__aeabi_i2f
 1547              	.LVL137:
 1548 0016 0146     		mov	r1, r0
 1549 0018 2046     		mov	r0, r4
 1550 001a FFF7FEFF 		bl	__aeabi_fdiv
 1551              	.LVL138:
1063:Generated_Source\PSoC5/PSI.c **** 
 1552              		.loc 1 1063 0
 1553 001e 10BD     		pop	{r4, pc}
 1554              	.L108:
 1555              		.align	2
 1556              	.L107:
 1557 0020 00000000 		.word	.LANCHOR0
 1558 0024 00000000 		.word	PSI_CountsPerVolt
 1559              		.cfi_endproc
 1560              	.LFE17:
 1561              		.size	PSI_CountsTo_Volts, .-PSI_CountsTo_Volts
 1562              		.section	.text.PSI_CountsTo_uVolts,"ax",%progbits
 1563              		.align	2
 1564              		.global	PSI_CountsTo_uVolts
 1565              		.thumb
 1566              		.thumb_func
 1567              		.type	PSI_CountsTo_uVolts, %function
 1568              	PSI_CountsTo_uVolts:
 1569              	.LFB18:
1093:Generated_Source\PSoC5/PSI.c **** 
 1570              		.loc 1 1093 0
 1571              		.cfi_startproc
 1572              		@ args = 0, pretend = 0, frame = 0
 1573              		@ frame_needed = 0, uses_anonymous_args = 0
 1574              		@ link register save eliminated.
 1575              	.LVL139:
 1576 0000 10B4     		push	{r4}
 1577              		.cfi_def_cfa_offset 4
 1578              		.cfi_offset 4, -4
1102:Generated_Source\PSoC5/PSI.c ****     {
 1579              		.loc 1 1102 0
 1580 0002 194B     		ldr	r3, .L119
 1581 0004 1B78     		ldrb	r3, [r3]	@ zero_extendqisi2
 1582 0006 DBB2     		uxtb	r3, r3
 1583 0008 012B     		cmp	r3, #1
 1584 000a 08D0     		beq	.L114
1109:Generated_Source\PSoC5/PSI.c ****     {
 1585              		.loc 1 1109 0
 1586 000c 164B     		ldr	r3, .L119
 1587 000e 1B78     		ldrb	r3, [r3]	@ zero_extendqisi2
ARM GAS  C:\Users\scott\AppData\Local\Temp\cciBmnUj.s 			page 63


 1588 0010 DBB2     		uxtb	r3, r3
 1589 0012 022B     		cmp	r3, #2
 1590 0014 05D0     		beq	.L115
1116:Generated_Source\PSoC5/PSI.c ****     {
 1591              		.loc 1 1116 0
 1592 0016 144B     		ldr	r3, .L119
 1593 0018 1B78     		ldrb	r3, [r3]	@ zero_extendqisi2
1118:Generated_Source\PSoC5/PSI.c ****         #if(PSI_CFG3_DEC_DIV != 0)
 1594              		.loc 1 1118 0
 1595 001a 1023     		movs	r3, #16
 1596 001c 02E0     		b	.L110
 1597              	.L114:
1104:Generated_Source\PSoC5/PSI.c ****         #if(PSI_CFG1_DEC_DIV != 0)
 1598              		.loc 1 1104 0
 1599 001e 1423     		movs	r3, #20
 1600 0020 00E0     		b	.L110
 1601              	.L115:
1111:Generated_Source\PSoC5/PSI.c ****         #if(PSI_CFG2_DEC_DIV != 0)
 1602              		.loc 1 1111 0
 1603 0022 1023     		movs	r3, #16
 1604              	.L110:
 1605              	.LVL140:
1131:Generated_Source\PSoC5/PSI.c ****     {
 1606              		.loc 1 1131 0
 1607 0024 102B     		cmp	r3, #16
 1608 0026 02D0     		beq	.L112
 1609 0028 142B     		cmp	r3, #20
 1610 002a 07D0     		beq	.L116
 1611 002c 03E0     		b	.L117
 1612              	.L112:
1175:Generated_Source\PSoC5/PSI.c ****                 break;
 1613              		.loc 1 1175 0
 1614 002e 2021     		movs	r1, #32
1174:Generated_Source\PSoC5/PSI.c ****                 coefB = PSI_DIVISOR_32;
 1615              		.loc 1 1174 0
 1616 0030 47F61224 		movw	r4, #31250
 1617 0034 06E0     		b	.L113
 1618              	.L117:
 1619              	.LVL141:
1217:Generated_Source\PSoC5/PSI.c ****             break;
 1620              		.loc 1 1217 0
 1621 0036 0121     		movs	r1, #1
1216:Generated_Source\PSoC5/PSI.c ****             coefB = PSI_DIVISOR_1;
 1622              		.loc 1 1216 0
 1623 0038 0C4C     		ldr	r4, .L119+4
1218:Generated_Source\PSoC5/PSI.c ****     }
 1624              		.loc 1 1218 0
 1625 003a 03E0     		b	.L113
 1626              	.LVL142:
 1627              	.L116:
1211:Generated_Source\PSoC5/PSI.c ****                 break;
 1628              		.loc 1 1211 0
 1629 003c 4FF4FA71 		mov	r1, #500
1210:Generated_Source\PSoC5/PSI.c ****                 coefB = PSI_DIVISOR_500;
 1630              		.loc 1 1210 0
 1631 0040 4FF4FA64 		mov	r4, #2000
 1632              	.L113:
ARM GAS  C:\Users\scott\AppData\Local\Temp\cciBmnUj.s 			page 64


 1633              	.LVL143:
1220:Generated_Source\PSoC5/PSI.c ****     uVolts = ((coefA * adcCounts) / coefB) - ((coefA * PSI_Offset) / coefB);
 1634              		.loc 1 1220 0
 1635 0044 0A4B     		ldr	r3, .L119+8
 1636              	.LVL144:
 1637 0046 1B68     		ldr	r3, [r3]
 1638 0048 93FBF1F1 		sdiv	r1, r3, r1
 1639              	.LVL145:
1221:Generated_Source\PSoC5/PSI.c **** 
 1640              		.loc 1 1221 0
 1641 004c 00FB04F0 		mul	r0, r0, r4
 1642              	.LVL146:
 1643 0050 90FBF1F3 		sdiv	r3, r0, r1
 1644 0054 074A     		ldr	r2, .L119+12
 1645 0056 9268     		ldr	r2, [r2, #8]
 1646 0058 02FB04F2 		mul	r2, r2, r4
 1647 005c 92FBF1F0 		sdiv	r0, r2, r1
 1648              	.LVL147:
1224:Generated_Source\PSoC5/PSI.c **** 
 1649              		.loc 1 1224 0
 1650 0060 181A     		subs	r0, r3, r0
 1651              	.LVL148:
 1652 0062 10BC     		pop	{r4}
 1653              		.cfi_restore 4
 1654              		.cfi_def_cfa_offset 0
 1655              	.LVL149:
 1656 0064 7047     		bx	lr
 1657              	.L120:
 1658 0066 00BF     		.align	2
 1659              	.L119:
 1660 0068 00000000 		.word	.LANCHOR1
 1661 006c 40420F00 		.word	1000000
 1662 0070 00000000 		.word	PSI_CountsPerVolt
 1663 0074 00000000 		.word	.LANCHOR0
 1664              		.cfi_endproc
 1665              	.LFE18:
 1666              		.size	PSI_CountsTo_uVolts, .-PSI_CountsTo_uVolts
 1667              		.section	.text.PSI_SelectConfiguration,"ax",%progbits
 1668              		.align	2
 1669              		.global	PSI_SelectConfiguration
 1670              		.thumb
 1671              		.thumb_func
 1672              		.type	PSI_SelectConfiguration, %function
 1673              	PSI_SelectConfiguration:
 1674              	.LFB20:
1562:Generated_Source\PSoC5/PSI.c ****     /* Check whether the configuration number is valid or not */
 1675              		.loc 1 1562 0
 1676              		.cfi_startproc
 1677              		@ args = 0, pretend = 0, frame = 0
 1678              		@ frame_needed = 0, uses_anonymous_args = 0
 1679              	.LVL150:
 1680 0000 38B5     		push	{r3, r4, r5, lr}
 1681              		.cfi_def_cfa_offset 16
 1682              		.cfi_offset 3, -16
 1683              		.cfi_offset 4, -12
 1684              		.cfi_offset 5, -8
 1685              		.cfi_offset 14, -4
ARM GAS  C:\Users\scott\AppData\Local\Temp\cciBmnUj.s 			page 65


1564:Generated_Source\PSoC5/PSI.c ****     {
 1686              		.loc 1 1564 0
 1687 0002 0128     		cmp	r0, #1
 1688 0004 20D1     		bne	.L122
 1689 0006 0446     		mov	r4, r0
 1690 0008 0D46     		mov	r5, r1
1569:Generated_Source\PSoC5/PSI.c ****         {
 1691              		.loc 1 1569 0
 1692 000a 114B     		ldr	r3, .L126
 1693 000c 9B79     		ldrb	r3, [r3, #6]	@ zero_extendqisi2
 1694 000e 13B9     		cbnz	r3, .L123
1571:Generated_Source\PSoC5/PSI.c ****         }
 1695              		.loc 1 1571 0
 1696 0010 0122     		movs	r2, #1
 1697 0012 0F4B     		ldr	r3, .L126
 1698 0014 DA71     		strb	r2, [r3, #7]
 1699              	.L123:
1575:Generated_Source\PSoC5/PSI.c **** 
 1700              		.loc 1 1575 0
 1701 0016 0F4B     		ldr	r3, .L126+4
 1702 0018 1C70     		strb	r4, [r3]
1578:Generated_Source\PSoC5/PSI.c **** 
 1703              		.loc 1 1578 0
 1704 001a FFF7FEFF 		bl	PSI_Stop
 1705              	.LVL151:
1581:Generated_Source\PSoC5/PSI.c **** 
 1706              		.loc 1 1581 0
 1707 001e 2046     		mov	r0, r4
 1708 0020 FFF7FEFF 		bl	PSI_InitConfig
 1709              	.LVL152:
1584:Generated_Source\PSoC5/PSI.c ****         CY_SET_REG16(PSI_DEC_GCOR_16B_PTR, PSI_gcor[config - 1u].gcor);
 1710              		.loc 1 1584 0
 1711 0024 013C     		subs	r4, r4, #1
 1712 0026 0A4B     		ldr	r3, .L126
 1713 0028 03EB8402 		add	r2, r3, r4, lsl #2
 1714 002c 9178     		ldrb	r1, [r2, #2]	@ zero_extendqisi2
 1715 002e 0A4A     		ldr	r2, .L126+8
 1716 0030 1170     		strb	r1, [r2]
1585:Generated_Source\PSoC5/PSI.c **** 
 1717              		.loc 1 1585 0
 1718 0032 33F82420 		ldrh	r2, [r3, r4, lsl #2]
 1719 0036 094B     		ldr	r3, .L126+12
 1720 0038 1A80     		strh	r2, [r3]	@ movhi
1587:Generated_Source\PSoC5/PSI.c ****         {
 1721              		.loc 1 1587 0
 1722 003a 012D     		cmp	r5, #1
 1723 003c 07D1     		bne	.L121
1590:Generated_Source\PSoC5/PSI.c **** 
 1724              		.loc 1 1590 0
 1725 003e FFF7FEFF 		bl	PSI_Start
 1726              	.LVL153:
1593:Generated_Source\PSoC5/PSI.c ****         }
 1727              		.loc 1 1593 0
 1728 0042 FFF7FEFF 		bl	PSI_StartConvert
 1729              	.LVL154:
 1730 0046 38BD     		pop	{r3, r4, r5, pc}
 1731              	.LVL155:
ARM GAS  C:\Users\scott\AppData\Local\Temp\cciBmnUj.s 			page 66


 1732              	.L122:
1599:Generated_Source\PSoC5/PSI.c ****     }
 1733              		.loc 1 1599 0 discriminator 1
 1734 0048 0020     		movs	r0, #0
 1735              	.LVL156:
 1736 004a FFF7FEFF 		bl	CyHalt
 1737              	.LVL157:
 1738              	.L121:
 1739 004e 38BD     		pop	{r3, r4, r5, pc}
 1740              	.L127:
 1741              		.align	2
 1742              	.L126:
 1743 0050 00000000 		.word	.LANCHOR0
 1744 0054 00000000 		.word	.LANCHOR1
 1745 0058 0E4E0040 		.word	1073761806
 1746 005c 0C4E0040 		.word	1073761804
 1747              		.cfi_endproc
 1748              	.LFE20:
 1749              		.size	PSI_SelectConfiguration, .-PSI_SelectConfiguration
 1750              		.section	.text.PSI_Read8,"ax",%progbits
 1751              		.align	2
 1752              		.global	PSI_Read8
 1753              		.thumb
 1754              		.thumb_func
 1755              		.type	PSI_Read8, %function
 1756              	PSI_Read8:
 1757              	.LFB23:
1749:Generated_Source\PSoC5/PSI.c **** }
1750:Generated_Source\PSoC5/PSI.c **** 
1751:Generated_Source\PSoC5/PSI.c **** 
1752:Generated_Source\PSoC5/PSI.c **** /*******************************************************************************
1753:Generated_Source\PSoC5/PSI.c **** * Function Name: PSI_Read8
1754:Generated_Source\PSoC5/PSI.c **** ********************************************************************************
1755:Generated_Source\PSoC5/PSI.c **** *
1756:Generated_Source\PSoC5/PSI.c **** * Summary:
1757:Generated_Source\PSoC5/PSI.c **** *  This function simplifies getting results from the ADC when only a
1758:Generated_Source\PSoC5/PSI.c **** *  single reading is required. When called, it will start ADC
1759:Generated_Source\PSoC5/PSI.c **** *  conversions, wait for the conversion to be complete, stop ADC
1760:Generated_Source\PSoC5/PSI.c **** *  conversion and return the result. This is a blocking function and will
1761:Generated_Source\PSoC5/PSI.c **** *  not return until the result is ready.
1762:Generated_Source\PSoC5/PSI.c **** *
1763:Generated_Source\PSoC5/PSI.c **** * Parameters:
1764:Generated_Source\PSoC5/PSI.c **** *  None
1765:Generated_Source\PSoC5/PSI.c **** *
1766:Generated_Source\PSoC5/PSI.c **** * Return:
1767:Generated_Source\PSoC5/PSI.c **** *  int8:  ADC result.
1768:Generated_Source\PSoC5/PSI.c **** *
1769:Generated_Source\PSoC5/PSI.c **** *******************************************************************************/
1770:Generated_Source\PSoC5/PSI.c **** int8 PSI_Read8(void) 
1771:Generated_Source\PSoC5/PSI.c **** {
 1758              		.loc 1 1771 0
 1759              		.cfi_startproc
 1760              		@ args = 0, pretend = 0, frame = 0
 1761              		@ frame_needed = 0, uses_anonymous_args = 0
 1762 0000 10B5     		push	{r4, lr}
 1763              		.cfi_def_cfa_offset 8
 1764              		.cfi_offset 4, -8
ARM GAS  C:\Users\scott\AppData\Local\Temp\cciBmnUj.s 			page 67


 1765              		.cfi_offset 14, -4
1772:Generated_Source\PSoC5/PSI.c ****     int8 result;
1773:Generated_Source\PSoC5/PSI.c **** 
1774:Generated_Source\PSoC5/PSI.c ****     /* Clear pending conversion done status */
1775:Generated_Source\PSoC5/PSI.c ****     PSI_DEC_SR_REG |= PSI_DEC_INTR_CLEAR;
 1766              		.loc 1 1775 0
 1767 0002 084A     		ldr	r2, .L130
 1768 0004 1378     		ldrb	r3, [r2]	@ zero_extendqisi2
 1769 0006 43F00403 		orr	r3, r3, #4
 1770 000a 1370     		strb	r3, [r2]
1776:Generated_Source\PSoC5/PSI.c ****     PSI_StartConvert();
 1771              		.loc 1 1776 0
 1772 000c FFF7FEFF 		bl	PSI_StartConvert
 1773              	.LVL158:
1777:Generated_Source\PSoC5/PSI.c ****     (void)PSI_IsEndConversion(PSI_WAIT_FOR_RESULT);
 1774              		.loc 1 1777 0
 1775 0010 0020     		movs	r0, #0
 1776 0012 FFF7FEFF 		bl	PSI_IsEndConversion
 1777              	.LVL159:
1778:Generated_Source\PSoC5/PSI.c ****      result = PSI_GetResult8();
 1778              		.loc 1 1778 0
 1779 0016 FFF7FEFF 		bl	PSI_GetResult8
 1780              	.LVL160:
 1781 001a 0446     		mov	r4, r0
 1782              	.LVL161:
1779:Generated_Source\PSoC5/PSI.c ****     PSI_StopConvert();
 1783              		.loc 1 1779 0
 1784 001c FFF7FEFF 		bl	PSI_StopConvert
 1785              	.LVL162:
1780:Generated_Source\PSoC5/PSI.c ****     
1781:Generated_Source\PSoC5/PSI.c ****      return(result);
1782:Generated_Source\PSoC5/PSI.c **** }
 1786              		.loc 1 1782 0
 1787 0020 2046     		mov	r0, r4
 1788 0022 10BD     		pop	{r4, pc}
 1789              	.LVL163:
 1790              	.L131:
 1791              		.align	2
 1792              	.L130:
 1793 0024 014E0040 		.word	1073761793
 1794              		.cfi_endproc
 1795              	.LFE23:
 1796              		.size	PSI_Read8, .-PSI_Read8
 1797              		.section	.text.PSI_Read16,"ax",%progbits
 1798              		.align	2
 1799              		.global	PSI_Read16
 1800              		.thumb
 1801              		.thumb_func
 1802              		.type	PSI_Read16, %function
 1803              	PSI_Read16:
 1804              	.LFB24:
1783:Generated_Source\PSoC5/PSI.c **** 
1784:Generated_Source\PSoC5/PSI.c **** 
1785:Generated_Source\PSoC5/PSI.c **** /*******************************************************************************
1786:Generated_Source\PSoC5/PSI.c **** * Function Name: PSI_Read16
1787:Generated_Source\PSoC5/PSI.c **** ********************************************************************************
1788:Generated_Source\PSoC5/PSI.c **** *
ARM GAS  C:\Users\scott\AppData\Local\Temp\cciBmnUj.s 			page 68


1789:Generated_Source\PSoC5/PSI.c **** * Summary:
1790:Generated_Source\PSoC5/PSI.c **** *  This function simplifies getting results from the ADC when only a
1791:Generated_Source\PSoC5/PSI.c **** *  single reading is required. When called, it will start ADC
1792:Generated_Source\PSoC5/PSI.c **** *  conversions, wait for the conversion to be complete, stop ADC
1793:Generated_Source\PSoC5/PSI.c **** *  conversion and return the result. This is a blocking function and will
1794:Generated_Source\PSoC5/PSI.c **** *  not return until the result is ready.
1795:Generated_Source\PSoC5/PSI.c **** *
1796:Generated_Source\PSoC5/PSI.c **** * Parameters:
1797:Generated_Source\PSoC5/PSI.c **** *   void
1798:Generated_Source\PSoC5/PSI.c **** *
1799:Generated_Source\PSoC5/PSI.c **** * Return:
1800:Generated_Source\PSoC5/PSI.c **** *  int16:  ADC result.
1801:Generated_Source\PSoC5/PSI.c **** *
1802:Generated_Source\PSoC5/PSI.c **** *******************************************************************************/
1803:Generated_Source\PSoC5/PSI.c **** int16 PSI_Read16(void) 
1804:Generated_Source\PSoC5/PSI.c **** {
 1805              		.loc 1 1804 0
 1806              		.cfi_startproc
 1807              		@ args = 0, pretend = 0, frame = 0
 1808              		@ frame_needed = 0, uses_anonymous_args = 0
 1809 0000 10B5     		push	{r4, lr}
 1810              		.cfi_def_cfa_offset 8
 1811              		.cfi_offset 4, -8
 1812              		.cfi_offset 14, -4
1805:Generated_Source\PSoC5/PSI.c ****     int16 result;
1806:Generated_Source\PSoC5/PSI.c **** 
1807:Generated_Source\PSoC5/PSI.c ****     /* Clear pending conversion done status */
1808:Generated_Source\PSoC5/PSI.c ****     PSI_DEC_SR_REG |= PSI_DEC_INTR_CLEAR;
 1813              		.loc 1 1808 0
 1814 0002 084A     		ldr	r2, .L134
 1815 0004 1378     		ldrb	r3, [r2]	@ zero_extendqisi2
 1816 0006 43F00403 		orr	r3, r3, #4
 1817 000a 1370     		strb	r3, [r2]
1809:Generated_Source\PSoC5/PSI.c ****     PSI_StartConvert();
 1818              		.loc 1 1809 0
 1819 000c FFF7FEFF 		bl	PSI_StartConvert
 1820              	.LVL164:
1810:Generated_Source\PSoC5/PSI.c ****     (void)PSI_IsEndConversion(PSI_WAIT_FOR_RESULT);
 1821              		.loc 1 1810 0
 1822 0010 0020     		movs	r0, #0
 1823 0012 FFF7FEFF 		bl	PSI_IsEndConversion
 1824              	.LVL165:
1811:Generated_Source\PSoC5/PSI.c ****      result = PSI_GetResult16();
 1825              		.loc 1 1811 0
 1826 0016 FFF7FEFF 		bl	PSI_GetResult16
 1827              	.LVL166:
 1828 001a 0446     		mov	r4, r0
 1829              	.LVL167:
1812:Generated_Source\PSoC5/PSI.c ****     PSI_StopConvert();
 1830              		.loc 1 1812 0
 1831 001c FFF7FEFF 		bl	PSI_StopConvert
 1832              	.LVL168:
1813:Generated_Source\PSoC5/PSI.c ****     
1814:Generated_Source\PSoC5/PSI.c ****      return(result);
1815:Generated_Source\PSoC5/PSI.c **** }
 1833              		.loc 1 1815 0
 1834 0020 2046     		mov	r0, r4
ARM GAS  C:\Users\scott\AppData\Local\Temp\cciBmnUj.s 			page 69


 1835 0022 10BD     		pop	{r4, pc}
 1836              	.LVL169:
 1837              	.L135:
 1838              		.align	2
 1839              	.L134:
 1840 0024 014E0040 		.word	1073761793
 1841              		.cfi_endproc
 1842              	.LFE24:
 1843              		.size	PSI_Read16, .-PSI_Read16
 1844              		.section	.text.PSI_Read32,"ax",%progbits
 1845              		.align	2
 1846              		.global	PSI_Read32
 1847              		.thumb
 1848              		.thumb_func
 1849              		.type	PSI_Read32, %function
 1850              	PSI_Read32:
 1851              	.LFB25:
1816:Generated_Source\PSoC5/PSI.c **** 
1817:Generated_Source\PSoC5/PSI.c **** 
1818:Generated_Source\PSoC5/PSI.c **** /*******************************************************************************
1819:Generated_Source\PSoC5/PSI.c **** * Function Name: PSI_Read32
1820:Generated_Source\PSoC5/PSI.c **** ********************************************************************************
1821:Generated_Source\PSoC5/PSI.c **** *
1822:Generated_Source\PSoC5/PSI.c **** * Summary:
1823:Generated_Source\PSoC5/PSI.c **** *  This function simplifies getting results from the ADC when only a
1824:Generated_Source\PSoC5/PSI.c **** *  single reading is required. When called, it will start ADC
1825:Generated_Source\PSoC5/PSI.c **** *  conversions, wait for the conversion to be complete, stop ADC
1826:Generated_Source\PSoC5/PSI.c **** *  conversion and return the result. This is a blocking function and will
1827:Generated_Source\PSoC5/PSI.c **** *  not return until the result is ready.
1828:Generated_Source\PSoC5/PSI.c **** *
1829:Generated_Source\PSoC5/PSI.c **** * Parameters:
1830:Generated_Source\PSoC5/PSI.c **** *  None
1831:Generated_Source\PSoC5/PSI.c **** *
1832:Generated_Source\PSoC5/PSI.c **** * Return:
1833:Generated_Source\PSoC5/PSI.c **** *  int32: ADC result.
1834:Generated_Source\PSoC5/PSI.c **** *
1835:Generated_Source\PSoC5/PSI.c **** *******************************************************************************/
1836:Generated_Source\PSoC5/PSI.c **** int32 PSI_Read32(void) 
1837:Generated_Source\PSoC5/PSI.c **** {
 1852              		.loc 1 1837 0
 1853              		.cfi_startproc
 1854              		@ args = 0, pretend = 0, frame = 0
 1855              		@ frame_needed = 0, uses_anonymous_args = 0
 1856 0000 10B5     		push	{r4, lr}
 1857              		.cfi_def_cfa_offset 8
 1858              		.cfi_offset 4, -8
 1859              		.cfi_offset 14, -4
1838:Generated_Source\PSoC5/PSI.c ****     int32 result;
1839:Generated_Source\PSoC5/PSI.c ****     
1840:Generated_Source\PSoC5/PSI.c ****     /* Clear pending conversion done status */
1841:Generated_Source\PSoC5/PSI.c ****     PSI_DEC_SR_REG |= PSI_DEC_INTR_CLEAR;
 1860              		.loc 1 1841 0
 1861 0002 084A     		ldr	r2, .L138
 1862 0004 1378     		ldrb	r3, [r2]	@ zero_extendqisi2
 1863 0006 43F00403 		orr	r3, r3, #4
 1864 000a 1370     		strb	r3, [r2]
1842:Generated_Source\PSoC5/PSI.c ****     PSI_StartConvert();
ARM GAS  C:\Users\scott\AppData\Local\Temp\cciBmnUj.s 			page 70


 1865              		.loc 1 1842 0
 1866 000c FFF7FEFF 		bl	PSI_StartConvert
 1867              	.LVL170:
1843:Generated_Source\PSoC5/PSI.c ****     (void)PSI_IsEndConversion(PSI_WAIT_FOR_RESULT);
 1868              		.loc 1 1843 0
 1869 0010 0020     		movs	r0, #0
 1870 0012 FFF7FEFF 		bl	PSI_IsEndConversion
 1871              	.LVL171:
1844:Generated_Source\PSoC5/PSI.c ****      result = PSI_GetResult32();
 1872              		.loc 1 1844 0
 1873 0016 FFF7FEFF 		bl	PSI_GetResult32
 1874              	.LVL172:
 1875 001a 0446     		mov	r4, r0
 1876              	.LVL173:
1845:Generated_Source\PSoC5/PSI.c ****     PSI_StopConvert();
 1877              		.loc 1 1845 0
 1878 001c FFF7FEFF 		bl	PSI_StopConvert
 1879              	.LVL174:
1846:Generated_Source\PSoC5/PSI.c ****     
1847:Generated_Source\PSoC5/PSI.c ****      return(result);
1848:Generated_Source\PSoC5/PSI.c **** }
 1880              		.loc 1 1848 0
 1881 0020 2046     		mov	r0, r4
 1882 0022 10BD     		pop	{r4, pc}
 1883              	.LVL175:
 1884              	.L139:
 1885              		.align	2
 1886              	.L138:
 1887 0024 014E0040 		.word	1073761793
 1888              		.cfi_endproc
 1889              	.LFE25:
 1890              		.size	PSI_Read32, .-PSI_Read32
 1891              		.comm	PSI_CountsPerVolt,4,4
 1892              		.global	PSI_Offset
 1893              		.global	PSI_Config
 1894              		.global	PSI_started
 1895              		.global	PSI_initVar
 1896              		.global	PSI_stopConversion
 1897              		.global	PSI_convDone
 1898              		.data
 1899              		.set	.LANCHOR1,. + 0
 1900              		.type	PSI_Config, %object
 1901              		.size	PSI_Config, 1
 1902              	PSI_Config:
 1903 0000 01       		.byte	1
 1904              		.bss
 1905              		.align	2
 1906              		.set	.LANCHOR0,. + 0
 1907              		.type	PSI_gcor, %object
 1908              		.size	PSI_gcor, 4
 1909              	PSI_gcor:
 1910 0000 00000000 		.space	4
 1911              		.type	PSI_stopConversion, %object
 1912              		.size	PSI_stopConversion, 1
 1913              	PSI_stopConversion:
 1914 0004 00       		.space	1
 1915              		.type	PSI_convDone, %object
ARM GAS  C:\Users\scott\AppData\Local\Temp\cciBmnUj.s 			page 71


 1916              		.size	PSI_convDone, 1
 1917              	PSI_convDone:
 1918 0005 00       		.space	1
 1919              		.type	PSI_initVar, %object
 1920              		.size	PSI_initVar, 1
 1921              	PSI_initVar:
 1922 0006 00       		.space	1
 1923              		.type	PSI_started, %object
 1924              		.size	PSI_started, 1
 1925              	PSI_started:
 1926 0007 00       		.space	1
 1927              		.type	PSI_Offset, %object
 1928              		.size	PSI_Offset, 4
 1929              	PSI_Offset:
 1930 0008 00000000 		.space	4
 1931              		.text
 1932              	.Letext0:
 1933              		.file 2 "Generated_Source\\PSoC5\\cytypes.h"
 1934              		.file 3 "Generated_Source\\PSoC5\\PSI.h"
 1935              		.file 4 "Generated_Source\\PSoC5\\CyLib.h"
 1936              		.file 5 "Generated_Source\\PSoC5\\PSI_AMux.h"
 1937              		.file 6 "Generated_Source\\PSoC5\\PSI_Ext_CP_Clk.h"
 1938              		.file 7 "Generated_Source\\PSoC5\\PSI_theACLK.h"
 1939              		.section	.debug_info,"",%progbits
 1940              	.Ldebug_info0:
 1941 0000 190A0000 		.4byte	0xa19
 1942 0004 0400     		.2byte	0x4
 1943 0006 00000000 		.4byte	.Ldebug_abbrev0
 1944 000a 04       		.byte	0x4
 1945 000b 01       		.uleb128 0x1
 1946 000c D5030000 		.4byte	.LASF101
 1947 0010 0C       		.byte	0xc
 1948 0011 A4040000 		.4byte	.LASF102
 1949 0015 40030000 		.4byte	.LASF103
 1950 0019 00000000 		.4byte	.Ldebug_ranges0+0
 1951 001d 00000000 		.4byte	0
 1952 0021 00000000 		.4byte	.Ldebug_line0
 1953 0025 02       		.uleb128 0x2
 1954 0026 04       		.byte	0x4
 1955 0027 04       		.byte	0x4
 1956 0028 6A030000 		.4byte	.LASF0
 1957 002c 02       		.uleb128 0x2
 1958 002d 01       		.byte	0x1
 1959 002e 06       		.byte	0x6
 1960 002f A0000000 		.4byte	.LASF1
 1961 0033 02       		.uleb128 0x2
 1962 0034 01       		.byte	0x1
 1963 0035 08       		.byte	0x8
 1964 0036 B5030000 		.4byte	.LASF2
 1965 003a 02       		.uleb128 0x2
 1966 003b 02       		.byte	0x2
 1967 003c 05       		.byte	0x5
 1968 003d C3030000 		.4byte	.LASF3
 1969 0041 02       		.uleb128 0x2
 1970 0042 02       		.byte	0x2
 1971 0043 07       		.byte	0x7
 1972 0044 00020000 		.4byte	.LASF4
ARM GAS  C:\Users\scott\AppData\Local\Temp\cciBmnUj.s 			page 72


 1973 0048 02       		.uleb128 0x2
 1974 0049 04       		.byte	0x4
 1975 004a 05       		.byte	0x5
 1976 004b C9000000 		.4byte	.LASF5
 1977 004f 02       		.uleb128 0x2
 1978 0050 04       		.byte	0x4
 1979 0051 07       		.byte	0x7
 1980 0052 A7010000 		.4byte	.LASF6
 1981 0056 02       		.uleb128 0x2
 1982 0057 08       		.byte	0x8
 1983 0058 05       		.byte	0x5
 1984 0059 92000000 		.4byte	.LASF7
 1985 005d 02       		.uleb128 0x2
 1986 005e 08       		.byte	0x8
 1987 005f 07       		.byte	0x7
 1988 0060 41000000 		.4byte	.LASF8
 1989 0064 03       		.uleb128 0x3
 1990 0065 04       		.byte	0x4
 1991 0066 05       		.byte	0x5
 1992 0067 696E7400 		.ascii	"int\000"
 1993 006b 02       		.uleb128 0x2
 1994 006c 04       		.byte	0x4
 1995 006d 07       		.byte	0x7
 1996 006e 83010000 		.4byte	.LASF9
 1997 0072 04       		.uleb128 0x4
 1998 0073 E3000000 		.4byte	.LASF10
 1999 0077 02       		.byte	0x2
 2000 0078 E401     		.2byte	0x1e4
 2001 007a 33000000 		.4byte	0x33
 2002 007e 04       		.uleb128 0x4
 2003 007f 00000000 		.4byte	.LASF11
 2004 0083 02       		.byte	0x2
 2005 0084 E501     		.2byte	0x1e5
 2006 0086 41000000 		.4byte	0x41
 2007 008a 04       		.uleb128 0x4
 2008 008b 18010000 		.4byte	.LASF12
 2009 008f 02       		.byte	0x2
 2010 0090 E601     		.2byte	0x1e6
 2011 0092 4F000000 		.4byte	0x4f
 2012 0096 04       		.uleb128 0x4
 2013 0097 27020000 		.4byte	.LASF13
 2014 009b 02       		.byte	0x2
 2015 009c E701     		.2byte	0x1e7
 2016 009e 2C000000 		.4byte	0x2c
 2017 00a2 04       		.uleb128 0x4
 2018 00a3 69050000 		.4byte	.LASF14
 2019 00a7 02       		.byte	0x2
 2020 00a8 E801     		.2byte	0x1e8
 2021 00aa 3A000000 		.4byte	0x3a
 2022 00ae 04       		.uleb128 0x4
 2023 00af C3000000 		.4byte	.LASF15
 2024 00b3 02       		.byte	0x2
 2025 00b4 E901     		.2byte	0x1e9
 2026 00b6 48000000 		.4byte	0x48
 2027 00ba 04       		.uleb128 0x4
 2028 00bb C5020000 		.4byte	.LASF16
 2029 00bf 02       		.byte	0x2
ARM GAS  C:\Users\scott\AppData\Local\Temp\cciBmnUj.s 			page 73


 2030 00c0 EA01     		.2byte	0x1ea
 2031 00c2 25000000 		.4byte	0x25
 2032 00c6 02       		.uleb128 0x2
 2033 00c7 08       		.byte	0x8
 2034 00c8 04       		.byte	0x4
 2035 00c9 F3000000 		.4byte	.LASF17
 2036 00cd 02       		.uleb128 0x2
 2037 00ce 01       		.byte	0x1
 2038 00cf 08       		.byte	0x8
 2039 00d0 7A040000 		.4byte	.LASF18
 2040 00d4 04       		.uleb128 0x4
 2041 00d5 91030000 		.4byte	.LASF19
 2042 00d9 02       		.byte	0x2
 2043 00da 8E02     		.2byte	0x28e
 2044 00dc E0000000 		.4byte	0xe0
 2045 00e0 05       		.uleb128 0x5
 2046 00e1 72000000 		.4byte	0x72
 2047 00e5 04       		.uleb128 0x4
 2048 00e6 DD000000 		.4byte	.LASF20
 2049 00ea 02       		.byte	0x2
 2050 00eb 8F02     		.2byte	0x28f
 2051 00ed F1000000 		.4byte	0xf1
 2052 00f1 05       		.uleb128 0x5
 2053 00f2 7E000000 		.4byte	0x7e
 2054 00f6 04       		.uleb128 0x4
 2055 00f7 BF020000 		.4byte	.LASF21
 2056 00fb 02       		.byte	0x2
 2057 00fc 9002     		.2byte	0x290
 2058 00fe 02010000 		.4byte	0x102
 2059 0102 05       		.uleb128 0x5
 2060 0103 8A000000 		.4byte	0x8a
 2061 0107 02       		.uleb128 0x2
 2062 0108 08       		.byte	0x8
 2063 0109 04       		.byte	0x4
 2064 010a DF020000 		.4byte	.LASF22
 2065 010e 02       		.uleb128 0x2
 2066 010f 04       		.byte	0x4
 2067 0110 07       		.byte	0x7
 2068 0111 D6020000 		.4byte	.LASF23
 2069 0115 06       		.uleb128 0x6
 2070 0116 04       		.byte	0x4
 2071 0117 03       		.byte	0x3
 2072 0118 2F       		.byte	0x2f
 2073 0119 36010000 		.4byte	0x136
 2074 011d 07       		.uleb128 0x7
 2075 011e 3C000000 		.4byte	.LASF24
 2076 0122 03       		.byte	0x3
 2077 0123 31       		.byte	0x31
 2078 0124 7E000000 		.4byte	0x7e
 2079 0128 00       		.byte	0
 2080 0129 07       		.uleb128 0x7
 2081 012a 8D040000 		.4byte	.LASF25
 2082 012e 03       		.byte	0x3
 2083 012f 32       		.byte	0x32
 2084 0130 72000000 		.4byte	0x72
 2085 0134 02       		.byte	0x2
 2086 0135 00       		.byte	0
ARM GAS  C:\Users\scott\AppData\Local\Temp\cciBmnUj.s 			page 74


 2087 0136 08       		.uleb128 0x8
 2088 0137 EB020000 		.4byte	.LASF26
 2089 013b 03       		.byte	0x3
 2090 013c 33       		.byte	0x33
 2091 013d 15010000 		.4byte	0x115
 2092 0141 09       		.uleb128 0x9
 2093 0142 7D000000 		.4byte	.LASF36
 2094 0146 01       		.byte	0x1
 2095 0147 5906     		.2byte	0x659
 2096 0149 00000000 		.4byte	.LFB21
 2097 014d DC000000 		.4byte	.LFE21-.LFB21
 2098 0151 01       		.uleb128 0x1
 2099 0152 9C       		.byte	0x9c
 2100 0153 F7010000 		.4byte	0x1f7
 2101 0157 0A       		.uleb128 0xa
 2102 0158 1D000000 		.4byte	.LASF27
 2103 015c 01       		.byte	0x1
 2104 015d 5906     		.2byte	0x659
 2105 015f 72000000 		.4byte	0x72
 2106 0163 00000000 		.4byte	.LLST0
 2107 0167 0A       		.uleb128 0xa
 2108 0168 96030000 		.4byte	.LASF28
 2109 016c 01       		.byte	0x1
 2110 016d 5906     		.2byte	0x659
 2111 016f 7E000000 		.4byte	0x7e
 2112 0173 3A000000 		.4byte	.LLST1
 2113 0177 0A       		.uleb128 0xa
 2114 0178 6D000000 		.4byte	.LASF29
 2115 017c 01       		.byte	0x1
 2116 017d 5906     		.2byte	0x659
 2117 017f 7E000000 		.4byte	0x7e
 2118 0183 74000000 		.4byte	.LLST2
 2119 0187 0A       		.uleb128 0xa
 2120 0188 63040000 		.4byte	.LASF30
 2121 018c 01       		.byte	0x1
 2122 018d 5A06     		.2byte	0x65a
 2123 018f 72000000 		.4byte	0x72
 2124 0193 AE000000 		.4byte	.LLST3
 2125 0197 0A       		.uleb128 0xa
 2126 0198 86040000 		.4byte	.LASF31
 2127 019c 01       		.byte	0x1
 2128 019d 5A06     		.2byte	0x65a
 2129 019f 72000000 		.4byte	0x72
 2130 01a3 01010000 		.4byte	.LLST4
 2131 01a7 0B       		.uleb128 0xb
 2132 01a8 B9020000 		.4byte	.LASF32
 2133 01ac 01       		.byte	0x1
 2134 01ad 5C06     		.2byte	0x65c
 2135 01af 96000000 		.4byte	0x96
 2136 01b3 2D010000 		.4byte	.LLST5
 2137 01b7 0B       		.uleb128 0xb
 2138 01b8 A3030000 		.4byte	.LASF33
 2139 01bc 01       		.byte	0x1
 2140 01bd 5D06     		.2byte	0x65d
 2141 01bf AE000000 		.4byte	0xae
 2142 01c3 A3010000 		.4byte	.LLST6
 2143 01c7 0B       		.uleb128 0xb
ARM GAS  C:\Users\scott\AppData\Local\Temp\cciBmnUj.s 			page 75


 2144 01c8 66020000 		.4byte	.LASF34
 2145 01cc 01       		.byte	0x1
 2146 01cd 5E06     		.2byte	0x65e
 2147 01cf 7E000000 		.4byte	0x7e
 2148 01d3 B6010000 		.4byte	.LLST7
 2149 01d7 0B       		.uleb128 0xb
 2150 01d8 CD030000 		.4byte	.LASF35
 2151 01dc 01       		.byte	0x1
 2152 01dd 5F06     		.2byte	0x65f
 2153 01df 8A000000 		.4byte	0x8a
 2154 01e3 DF010000 		.4byte	.LLST8
 2155 01e7 0C       		.uleb128 0xc
 2156 01e8 B4000000 		.4byte	.LVL33
 2157 01ec A3090000 		.4byte	0x9a3
 2158 01f0 0D       		.uleb128 0xd
 2159 01f1 01       		.uleb128 0x1
 2160 01f2 50       		.byte	0x50
 2161 01f3 01       		.uleb128 0x1
 2162 01f4 30       		.byte	0x30
 2163 01f5 00       		.byte	0
 2164 01f6 00       		.byte	0
 2165 01f7 09       		.uleb128 0x9
 2166 01f8 D9040000 		.4byte	.LASF37
 2167 01fc 01       		.byte	0x1
 2168 01fd C406     		.2byte	0x6c4
 2169 01ff 00000000 		.4byte	.LFB22
 2170 0203 4C000000 		.4byte	.LFE22-.LFB22
 2171 0207 01       		.uleb128 0x1
 2172 0208 9C       		.byte	0x9c
 2173 0209 5A020000 		.4byte	0x25a
 2174 020d 0A       		.uleb128 0xa
 2175 020e 38010000 		.4byte	.LASF38
 2176 0212 01       		.byte	0x1
 2177 0213 C406     		.2byte	0x6c4
 2178 0215 72000000 		.4byte	0x72
 2179 0219 F2010000 		.4byte	.LLST9
 2180 021d 0B       		.uleb128 0xb
 2181 021e 08050000 		.4byte	.LASF39
 2182 0222 01       		.byte	0x1
 2183 0223 C606     		.2byte	0x6c6
 2184 0225 72000000 		.4byte	0x72
 2185 0229 13020000 		.4byte	.LLST10
 2186 022d 0E       		.uleb128 0xe
 2187 022e 08000000 		.4byte	.LVL36
 2188 0232 AE090000 		.4byte	0x9ae
 2189 0236 0F       		.uleb128 0xf
 2190 0237 28000000 		.4byte	.LVL38
 2191 023b B9090000 		.4byte	0x9b9
 2192 023f 49020000 		.4byte	0x249
 2193 0243 0D       		.uleb128 0xd
 2194 0244 01       		.uleb128 0x1
 2195 0245 50       		.byte	0x50
 2196 0246 01       		.uleb128 0x1
 2197 0247 33       		.byte	0x33
 2198 0248 00       		.byte	0
 2199 0249 0C       		.uleb128 0xc
 2200 024a 3E000000 		.4byte	.LVL39
ARM GAS  C:\Users\scott\AppData\Local\Temp\cciBmnUj.s 			page 76


 2201 024e C4090000 		.4byte	0x9c4
 2202 0252 0D       		.uleb128 0xd
 2203 0253 01       		.uleb128 0x1
 2204 0254 50       		.byte	0x50
 2205 0255 02       		.uleb128 0x2
 2206 0256 76       		.byte	0x76
 2207 0257 00       		.sleb128 0
 2208 0258 00       		.byte	0
 2209 0259 00       		.byte	0
 2210 025a 09       		.uleb128 0x9
 2211 025b 9B020000 		.4byte	.LASF40
 2212 025f 01       		.byte	0x1
 2213 0260 DF04     		.2byte	0x4df
 2214 0262 00000000 		.4byte	.LFB19
 2215 0266 E8000000 		.4byte	.LFE19-.LFB19
 2216 026a 01       		.uleb128 0x1
 2217 026b 9C       		.byte	0x9c
 2218 026c EB020000 		.4byte	0x2eb
 2219 0270 0A       		.uleb128 0xa
 2220 0271 86040000 		.4byte	.LASF31
 2221 0275 01       		.byte	0x1
 2222 0276 DF04     		.2byte	0x4df
 2223 0278 72000000 		.4byte	0x72
 2224 027c 26020000 		.4byte	.LLST11
 2225 0280 0F       		.uleb128 0xf
 2226 0281 84000000 		.4byte	.LVL43
 2227 0285 F7010000 		.4byte	0x1f7
 2228 0289 94020000 		.4byte	0x294
 2229 028d 0D       		.uleb128 0xd
 2230 028e 01       		.uleb128 0x1
 2231 028f 50       		.byte	0x50
 2232 0290 02       		.uleb128 0x2
 2233 0291 08       		.byte	0x8
 2234 0292 52       		.byte	0x52
 2235 0293 00       		.byte	0
 2236 0294 0F       		.uleb128 0xf
 2237 0295 A4000000 		.4byte	.LVL44
 2238 0299 CF090000 		.4byte	0x9cf
 2239 029d A8020000 		.4byte	0x2a8
 2240 02a1 0D       		.uleb128 0xd
 2241 02a2 01       		.uleb128 0x1
 2242 02a3 50       		.byte	0x50
 2243 02a4 02       		.uleb128 0x2
 2244 02a5 74       		.byte	0x74
 2245 02a6 00       		.sleb128 0
 2246 02a7 00       		.byte	0
 2247 02a8 0F       		.uleb128 0xf
 2248 02a9 B2000000 		.4byte	.LVL45
 2249 02ad DA090000 		.4byte	0x9da
 2250 02b1 C2020000 		.4byte	0x2c2
 2251 02b5 0D       		.uleb128 0xd
 2252 02b6 01       		.uleb128 0x1
 2253 02b7 50       		.byte	0x50
 2254 02b8 02       		.uleb128 0x2
 2255 02b9 75       		.byte	0x75
 2256 02ba 00       		.sleb128 0
 2257 02bb 0D       		.uleb128 0xd
ARM GAS  C:\Users\scott\AppData\Local\Temp\cciBmnUj.s 			page 77


 2258 02bc 01       		.uleb128 0x1
 2259 02bd 51       		.byte	0x51
 2260 02be 02       		.uleb128 0x2
 2261 02bf 75       		.byte	0x75
 2262 02c0 00       		.sleb128 0
 2263 02c1 00       		.byte	0
 2264 02c2 0F       		.uleb128 0xf
 2265 02c3 BA000000 		.4byte	.LVL46
 2266 02c7 E5090000 		.4byte	0x9e5
 2267 02cb DB020000 		.4byte	0x2db
 2268 02cf 0D       		.uleb128 0xd
 2269 02d0 01       		.uleb128 0x1
 2270 02d1 50       		.byte	0x50
 2271 02d2 01       		.uleb128 0x1
 2272 02d3 37       		.byte	0x37
 2273 02d4 0D       		.uleb128 0xd
 2274 02d5 01       		.uleb128 0x1
 2275 02d6 51       		.byte	0x51
 2276 02d7 02       		.uleb128 0x2
 2277 02d8 75       		.byte	0x75
 2278 02d9 00       		.sleb128 0
 2279 02da 00       		.byte	0
 2280 02db 0C       		.uleb128 0xc
 2281 02dc C2000000 		.4byte	.LVL47
 2282 02e0 F0090000 		.4byte	0x9f0
 2283 02e4 0D       		.uleb128 0xd
 2284 02e5 01       		.uleb128 0x1
 2285 02e6 50       		.byte	0x50
 2286 02e7 01       		.uleb128 0x1
 2287 02e8 4D       		.byte	0x4d
 2288 02e9 00       		.byte	0
 2289 02ea 00       		.byte	0
 2290 02eb 10       		.uleb128 0x10
 2291 02ec CD020000 		.4byte	.LASF41
 2292 02f0 01       		.byte	0x1
 2293 02f1 5B       		.byte	0x5b
 2294 02f2 00000000 		.4byte	.LFB0
 2295 02f6 C4000000 		.4byte	.LFE0-.LFB0
 2296 02fa 01       		.uleb128 0x1
 2297 02fb 9C       		.byte	0x9c
 2298 02fc 75030000 		.4byte	0x375
 2299 0300 0F       		.uleb128 0xf
 2300 0301 16000000 		.4byte	.LVL49
 2301 0305 FB090000 		.4byte	0x9fb
 2302 0309 13030000 		.4byte	0x313
 2303 030d 0D       		.uleb128 0xd
 2304 030e 01       		.uleb128 0x1
 2305 030f 50       		.byte	0x50
 2306 0310 01       		.uleb128 0x1
 2307 0311 40       		.byte	0x40
 2308 0312 00       		.byte	0
 2309 0313 0F       		.uleb128 0xf
 2310 0314 1C000000 		.4byte	.LVL50
 2311 0318 060A0000 		.4byte	0xa06
 2312 031c 26030000 		.4byte	0x326
 2313 0320 0D       		.uleb128 0xd
 2314 0321 01       		.uleb128 0x1
ARM GAS  C:\Users\scott\AppData\Local\Temp\cciBmnUj.s 			page 78


 2315 0322 50       		.byte	0x50
 2316 0323 01       		.uleb128 0x1
 2317 0324 40       		.byte	0x40
 2318 0325 00       		.byte	0
 2319 0326 0F       		.uleb128 0xf
 2320 0327 24000000 		.4byte	.LVL51
 2321 032b 110A0000 		.4byte	0xa11
 2322 032f 3E030000 		.4byte	0x33e
 2323 0333 0D       		.uleb128 0xd
 2324 0334 01       		.uleb128 0x1
 2325 0335 50       		.byte	0x50
 2326 0336 01       		.uleb128 0x1
 2327 0337 4D       		.byte	0x4d
 2328 0338 0D       		.uleb128 0xd
 2329 0339 01       		.uleb128 0x1
 2330 033a 51       		.byte	0x51
 2331 033b 01       		.uleb128 0x1
 2332 033c 37       		.byte	0x37
 2333 033d 00       		.byte	0
 2334 033e 0F       		.uleb128 0xf
 2335 033f 80000000 		.4byte	.LVL52
 2336 0343 41010000 		.4byte	0x141
 2337 0347 6B030000 		.4byte	0x36b
 2338 034b 0D       		.uleb128 0xd
 2339 034c 01       		.uleb128 0x1
 2340 034d 50       		.byte	0x50
 2341 034e 01       		.uleb128 0x1
 2342 034f 32       		.byte	0x32
 2343 0350 0D       		.uleb128 0xd
 2344 0351 01       		.uleb128 0x1
 2345 0352 51       		.byte	0x51
 2346 0353 03       		.uleb128 0x3
 2347 0354 0B       		.byte	0xb
 2348 0355 F08D     		.2byte	0x8df0
 2349 0357 0D       		.uleb128 0xd
 2350 0358 01       		.uleb128 0x1
 2351 0359 52       		.byte	0x52
 2352 035a 03       		.uleb128 0x3
 2353 035b 0B       		.byte	0xb
 2354 035c 0080     		.2byte	0x8000
 2355 035e 0D       		.uleb128 0xd
 2356 035f 01       		.uleb128 0x1
 2357 0360 53       		.byte	0x53
 2358 0361 01       		.uleb128 0x1
 2359 0362 44       		.byte	0x44
 2360 0363 0D       		.uleb128 0xd
 2361 0364 02       		.uleb128 0x2
 2362 0365 7D       		.byte	0x7d
 2363 0366 00       		.sleb128 0
 2364 0367 02       		.uleb128 0x2
 2365 0368 77       		.byte	0x77
 2366 0369 00       		.sleb128 0
 2367 036a 00       		.byte	0
 2368 036b 0E       		.uleb128 0xe
 2369 036c A0000000 		.4byte	.LVL53
 2370 0370 5A020000 		.4byte	0x25a
 2371 0374 00       		.byte	0
ARM GAS  C:\Users\scott\AppData\Local\Temp\cciBmnUj.s 			page 79


 2372 0375 10       		.uleb128 0x10
 2373 0376 86030000 		.4byte	.LASF42
 2374 037a 01       		.byte	0x1
 2375 037b BA       		.byte	0xba
 2376 037c 00000000 		.4byte	.LFB1
 2377 0380 D8000000 		.4byte	.LFE1-.LFB1
 2378 0384 01       		.uleb128 0x1
 2379 0385 9C       		.byte	0x9c
 2380 0386 D1030000 		.4byte	0x3d1
 2381 038a 11       		.uleb128 0x11
 2382 038b 86040000 		.4byte	.LASF31
 2383 038f 01       		.byte	0x1
 2384 0390 BC       		.byte	0xbc
 2385 0391 72000000 		.4byte	0x72
 2386 0395 12       		.uleb128 0x12
 2387 0396 08050000 		.4byte	.LASF39
 2388 039a 01       		.byte	0x1
 2389 039b BD       		.byte	0xbd
 2390 039c 72000000 		.4byte	0x72
 2391 03a0 52020000 		.4byte	.LLST12
 2392 03a4 0E       		.uleb128 0xe
 2393 03a5 06000000 		.4byte	.LVL54
 2394 03a9 AE090000 		.4byte	0x9ae
 2395 03ad 0F       		.uleb128 0xf
 2396 03ae 54000000 		.4byte	.LVL57
 2397 03b2 B9090000 		.4byte	0x9b9
 2398 03b6 C0030000 		.4byte	0x3c0
 2399 03ba 0D       		.uleb128 0xd
 2400 03bb 01       		.uleb128 0x1
 2401 03bc 50       		.byte	0x50
 2402 03bd 01       		.uleb128 0x1
 2403 03be 33       		.byte	0x33
 2404 03bf 00       		.byte	0
 2405 03c0 0C       		.uleb128 0xc
 2406 03c1 B0000000 		.4byte	.LVL58
 2407 03c5 C4090000 		.4byte	0x9c4
 2408 03c9 0D       		.uleb128 0xd
 2409 03ca 01       		.uleb128 0x1
 2410 03cb 50       		.byte	0x50
 2411 03cc 02       		.uleb128 0x2
 2412 03cd 76       		.byte	0x76
 2413 03ce 00       		.sleb128 0
 2414 03cf 00       		.byte	0
 2415 03d0 00       		.byte	0
 2416 03d1 13       		.uleb128 0x13
 2417 03d2 20030000 		.4byte	.LASF43
 2418 03d6 01       		.byte	0x1
 2419 03d7 4E01     		.2byte	0x14e
 2420 03d9 00000000 		.4byte	.LFB2
 2421 03dd 28000000 		.4byte	.LFE2-.LFB2
 2422 03e1 01       		.uleb128 0x1
 2423 03e2 9C       		.byte	0x9c
 2424 03e3 FA030000 		.4byte	0x3fa
 2425 03e7 0E       		.uleb128 0xe
 2426 03e8 16000000 		.4byte	.LVL60
 2427 03ec EB020000 		.4byte	0x2eb
 2428 03f0 0E       		.uleb128 0xe
ARM GAS  C:\Users\scott\AppData\Local\Temp\cciBmnUj.s 			page 80


 2429 03f1 20000000 		.4byte	.LVL61
 2430 03f5 75030000 		.4byte	0x375
 2431 03f9 00       		.byte	0
 2432 03fa 13       		.uleb128 0x13
 2433 03fb 58000000 		.4byte	.LASF44
 2434 03ff 01       		.byte	0x1
 2435 0400 6F01     		.2byte	0x16f
 2436 0402 00000000 		.4byte	.LFB3
 2437 0406 E4000000 		.4byte	.LFE3-.LFB3
 2438 040a 01       		.uleb128 0x1
 2439 040b 9C       		.byte	0x9c
 2440 040c 4D040000 		.4byte	0x44d
 2441 0410 0B       		.uleb128 0xb
 2442 0411 08050000 		.4byte	.LASF39
 2443 0415 01       		.byte	0x1
 2444 0416 7101     		.2byte	0x171
 2445 0418 72000000 		.4byte	0x72
 2446 041c 65020000 		.4byte	.LLST13
 2447 0420 0E       		.uleb128 0xe
 2448 0421 06000000 		.4byte	.LVL62
 2449 0425 AE090000 		.4byte	0x9ae
 2450 0429 0F       		.uleb128 0xf
 2451 042a 4C000000 		.4byte	.LVL64
 2452 042e B9090000 		.4byte	0x9b9
 2453 0432 3C040000 		.4byte	0x43c
 2454 0436 0D       		.uleb128 0xd
 2455 0437 01       		.uleb128 0x1
 2456 0438 50       		.byte	0x50
 2457 0439 01       		.uleb128 0x1
 2458 043a 33       		.byte	0x33
 2459 043b 00       		.byte	0
 2460 043c 0C       		.uleb128 0xc
 2461 043d CC000000 		.4byte	.LVL65
 2462 0441 C4090000 		.4byte	0x9c4
 2463 0445 0D       		.uleb128 0xd
 2464 0446 01       		.uleb128 0x1
 2465 0447 50       		.byte	0x50
 2466 0448 02       		.uleb128 0x2
 2467 0449 76       		.byte	0x76
 2468 044a 00       		.sleb128 0
 2469 044b 00       		.byte	0
 2470 044c 00       		.byte	0
 2471 044d 13       		.uleb128 0x13
 2472 044e 98050000 		.4byte	.LASF45
 2473 0452 01       		.byte	0x1
 2474 0453 B201     		.2byte	0x1b2
 2475 0455 00000000 		.4byte	.LFB4
 2476 0459 18000000 		.4byte	.LFE4-.LFB4
 2477 045d 01       		.uleb128 0x1
 2478 045e 9C       		.byte	0x9c
 2479 045f 84040000 		.4byte	0x484
 2480 0463 0A       		.uleb128 0xa
 2481 0464 3B030000 		.4byte	.LASF46
 2482 0468 01       		.byte	0x1
 2483 0469 B201     		.2byte	0x1b2
 2484 046b 72000000 		.4byte	0x72
 2485 046f 78020000 		.4byte	.LLST14
ARM GAS  C:\Users\scott\AppData\Local\Temp\cciBmnUj.s 			page 81


 2486 0473 0B       		.uleb128 0xb
 2487 0474 88050000 		.4byte	.LASF47
 2488 0478 01       		.byte	0x1
 2489 0479 B401     		.2byte	0x1b4
 2490 047b 72000000 		.4byte	0x72
 2491 047f 99020000 		.4byte	.LLST15
 2492 0483 00       		.byte	0
 2493 0484 13       		.uleb128 0x13
 2494 0485 2C020000 		.4byte	.LASF48
 2495 0489 01       		.byte	0x1
 2496 048a D601     		.2byte	0x1d6
 2497 048c 00000000 		.4byte	.LFB5
 2498 0490 18000000 		.4byte	.LFE5-.LFB5
 2499 0494 01       		.uleb128 0x1
 2500 0495 9C       		.byte	0x9c
 2501 0496 BB040000 		.4byte	0x4bb
 2502 049a 0A       		.uleb128 0xa
 2503 049b 16030000 		.4byte	.LASF49
 2504 049f 01       		.byte	0x1
 2505 04a0 D601     		.2byte	0x1d6
 2506 04a2 72000000 		.4byte	0x72
 2507 04a6 B7020000 		.4byte	.LLST16
 2508 04aa 0B       		.uleb128 0xb
 2509 04ab 88050000 		.4byte	.LASF47
 2510 04af 01       		.byte	0x1
 2511 04b0 D801     		.2byte	0x1d8
 2512 04b2 72000000 		.4byte	0x72
 2513 04b6 D8020000 		.4byte	.LLST17
 2514 04ba 00       		.byte	0
 2515 04bb 14       		.uleb128 0x14
 2516 04bc 61000000 		.4byte	.LASF53
 2517 04c0 01       		.byte	0x1
 2518 04c1 FE01     		.2byte	0x1fe
 2519 04c3 72000000 		.4byte	0x72
 2520 04c7 00000000 		.4byte	.LFB6
 2521 04cb 74000000 		.4byte	.LFE6-.LFB6
 2522 04cf 01       		.uleb128 0x1
 2523 04d0 9C       		.byte	0x9c
 2524 04d1 16050000 		.4byte	0x516
 2525 04d5 0A       		.uleb128 0xa
 2526 04d6 5E050000 		.4byte	.LASF50
 2527 04da 01       		.byte	0x1
 2528 04db FE01     		.2byte	0x1fe
 2529 04dd BA000000 		.4byte	0xba
 2530 04e1 F6020000 		.4byte	.LLST18
 2531 04e5 0B       		.uleb128 0xb
 2532 04e6 88050000 		.4byte	.LASF47
 2533 04ea 01       		.byte	0x1
 2534 04eb 0002     		.2byte	0x200
 2535 04ed 7E000000 		.4byte	0x7e
 2536 04f1 24030000 		.4byte	.LLST19
 2537 04f5 0B       		.uleb128 0xb
 2538 04f6 35050000 		.4byte	.LASF51
 2539 04fa 01       		.byte	0x1
 2540 04fb 0102     		.2byte	0x201
 2541 04fd 72000000 		.4byte	0x72
 2542 0501 5C030000 		.4byte	.LLST20
ARM GAS  C:\Users\scott\AppData\Local\Temp\cciBmnUj.s 			page 82


 2543 0505 0B       		.uleb128 0xb
 2544 0506 C9040000 		.4byte	.LASF52
 2545 050a 01       		.byte	0x1
 2546 050b 0202     		.2byte	0x202
 2547 050d BA000000 		.4byte	0xba
 2548 0511 7B030000 		.4byte	.LLST21
 2549 0515 00       		.byte	0
 2550 0516 15       		.uleb128 0x15
 2551 0517 3D020000 		.4byte	.LASF54
 2552 051b 01       		.byte	0x1
 2553 051c 2D02     		.2byte	0x22d
 2554 051e 7E000000 		.4byte	0x7e
 2555 0522 00000000 		.4byte	.LFB7
 2556 0526 24000000 		.4byte	.LFE7-.LFB7
 2557 052a 01       		.uleb128 0x1
 2558 052b 9C       		.byte	0x9c
 2559 052c 51050000 		.4byte	0x551
 2560 0530 0B       		.uleb128 0xb
 2561 0531 7F040000 		.4byte	.LASF55
 2562 0535 01       		.byte	0x1
 2563 0536 2F02     		.2byte	0x22f
 2564 0538 72000000 		.4byte	0x72
 2565 053c BA030000 		.4byte	.LLST22
 2566 0540 0B       		.uleb128 0xb
 2567 0541 66020000 		.4byte	.LASF34
 2568 0545 01       		.byte	0x1
 2569 0546 3002     		.2byte	0x230
 2570 0548 7E000000 		.4byte	0x7e
 2571 054c CD030000 		.4byte	.LLST23
 2572 0550 00       		.byte	0
 2573 0551 16       		.uleb128 0x16
 2574 0552 B9010000 		.4byte	.LASF56
 2575 0556 01       		.byte	0x1
 2576 0557 4F02     		.2byte	0x24f
 2577 0559 00000000 		.4byte	.LFB8
 2578 055d 10000000 		.4byte	.LFE8-.LFB8
 2579 0561 01       		.uleb128 0x1
 2580 0562 9C       		.byte	0x9c
 2581 0563 16       		.uleb128 0x16
 2582 0564 06030000 		.4byte	.LASF57
 2583 0568 01       		.byte	0x1
 2584 0569 6602     		.2byte	0x266
 2585 056b 00000000 		.4byte	.LFB9
 2586 056f 10000000 		.4byte	.LFE9-.LFB9
 2587 0573 01       		.uleb128 0x1
 2588 0574 9C       		.byte	0x9c
 2589 0575 15       		.uleb128 0x15
 2590 0576 28000000 		.4byte	.LASF58
 2591 057a 01       		.byte	0x1
 2592 057b 8902     		.2byte	0x289
 2593 057d 72000000 		.4byte	0x72
 2594 0581 00000000 		.4byte	.LFB10
 2595 0585 30000000 		.4byte	.LFE10-.LFB10
 2596 0589 01       		.uleb128 0x1
 2597 058a 9C       		.byte	0x9c
 2598 058b B0050000 		.4byte	0x5b0
 2599 058f 0A       		.uleb128 0xa
ARM GAS  C:\Users\scott\AppData\Local\Temp\cciBmnUj.s 			page 83


 2600 0590 3E010000 		.4byte	.LASF59
 2601 0594 01       		.byte	0x1
 2602 0595 8902     		.2byte	0x289
 2603 0597 72000000 		.4byte	0x72
 2604 059b EB030000 		.4byte	.LLST24
 2605 059f 0B       		.uleb128 0xb
 2606 05a0 35050000 		.4byte	.LASF51
 2607 05a4 01       		.byte	0x1
 2608 05a5 8B02     		.2byte	0x28b
 2609 05a7 72000000 		.4byte	0x72
 2610 05ab 0C040000 		.4byte	.LLST25
 2611 05af 00       		.byte	0
 2612 05b0 15       		.uleb128 0x15
 2613 05b1 AA020000 		.4byte	.LASF60
 2614 05b5 01       		.byte	0x1
 2615 05b6 B802     		.2byte	0x2b8
 2616 05b8 96000000 		.4byte	0x96
 2617 05bc 00000000 		.4byte	.LFB11
 2618 05c0 48000000 		.4byte	.LFE11-.LFB11
 2619 05c4 01       		.uleb128 0x1
 2620 05c5 9C       		.byte	0x9c
 2621 05c6 E9050000 		.4byte	0x5e9
 2622 05ca 17       		.uleb128 0x17
 2623 05cb AA050000 		.4byte	.LASF61
 2624 05cf 01       		.byte	0x1
 2625 05d0 BA02     		.2byte	0x2ba
 2626 05d2 96000000 		.4byte	0x96
 2627 05d6 01       		.uleb128 0x1
 2628 05d7 50       		.byte	0x50
 2629 05d8 0B       		.uleb128 0xb
 2630 05d9 16030000 		.4byte	.LASF49
 2631 05dd 01       		.byte	0x1
 2632 05de BB02     		.2byte	0x2bb
 2633 05e0 72000000 		.4byte	0x72
 2634 05e4 2A040000 		.4byte	.LLST26
 2635 05e8 00       		.byte	0
 2636 05e9 15       		.uleb128 0x15
 2637 05ea 84020000 		.4byte	.LASF62
 2638 05ee 01       		.byte	0x1
 2639 05ef EE02     		.2byte	0x2ee
 2640 05f1 A2000000 		.4byte	0xa2
 2641 05f5 00000000 		.4byte	.LFB12
 2642 05f9 50000000 		.4byte	.LFE12-.LFB12
 2643 05fd 01       		.uleb128 0x1
 2644 05fe 9C       		.byte	0x9c
 2645 05ff 24060000 		.4byte	0x624
 2646 0603 0B       		.uleb128 0xb
 2647 0604 AA050000 		.4byte	.LASF61
 2648 0608 01       		.byte	0x1
 2649 0609 F002     		.2byte	0x2f0
 2650 060b 7E000000 		.4byte	0x7e
 2651 060f 48040000 		.4byte	.LLST27
 2652 0613 0B       		.uleb128 0xb
 2653 0614 16030000 		.4byte	.LASF49
 2654 0618 01       		.byte	0x1
 2655 0619 F102     		.2byte	0x2f1
 2656 061b 72000000 		.4byte	0x72
ARM GAS  C:\Users\scott\AppData\Local\Temp\cciBmnUj.s 			page 84


 2657 061f 71040000 		.4byte	.LLST28
 2658 0623 00       		.byte	0
 2659 0624 15       		.uleb128 0x15
 2660 0625 90010000 		.4byte	.LASF63
 2661 0629 01       		.byte	0x1
 2662 062a 2A03     		.2byte	0x32a
 2663 062c AE000000 		.4byte	0xae
 2664 0630 00000000 		.4byte	.LFB13
 2665 0634 6C000000 		.4byte	.LFE13-.LFB13
 2666 0638 01       		.uleb128 0x1
 2667 0639 9C       		.byte	0x9c
 2668 063a 5F060000 		.4byte	0x65f
 2669 063e 0B       		.uleb128 0xb
 2670 063f AA050000 		.4byte	.LASF61
 2671 0643 01       		.byte	0x1
 2672 0644 2C03     		.2byte	0x32c
 2673 0646 8A000000 		.4byte	0x8a
 2674 064a 8F040000 		.4byte	.LLST29
 2675 064e 0B       		.uleb128 0xb
 2676 064f 16030000 		.4byte	.LASF49
 2677 0653 01       		.byte	0x1
 2678 0654 2D03     		.2byte	0x32d
 2679 0656 72000000 		.4byte	0x72
 2680 065a F0040000 		.4byte	.LLST30
 2681 065e 00       		.byte	0
 2682 065f 13       		.uleb128 0x13
 2683 0660 0F000000 		.4byte	.LASF64
 2684 0664 01       		.byte	0x1
 2685 0665 8703     		.2byte	0x387
 2686 0667 00000000 		.4byte	.LFB14
 2687 066b 0C000000 		.4byte	.LFE14-.LFB14
 2688 066f 01       		.uleb128 0x1
 2689 0670 9C       		.byte	0x9c
 2690 0671 84060000 		.4byte	0x684
 2691 0675 18       		.uleb128 0x18
 2692 0676 D2040000 		.4byte	.LASF65
 2693 067a 01       		.byte	0x1
 2694 067b 8703     		.2byte	0x387
 2695 067d AE000000 		.4byte	0xae
 2696 0681 01       		.uleb128 0x1
 2697 0682 50       		.byte	0x50
 2698 0683 00       		.byte	0
 2699 0684 13       		.uleb128 0x13
 2700 0685 B7000000 		.4byte	.LASF66
 2701 0689 01       		.byte	0x1
 2702 068a AA03     		.2byte	0x3aa
 2703 068c 00000000 		.4byte	.LFB15
 2704 0690 0C000000 		.4byte	.LFE15-.LFB15
 2705 0694 01       		.uleb128 0x1
 2706 0695 9C       		.byte	0x9c
 2707 0696 A9060000 		.4byte	0x6a9
 2708 069a 18       		.uleb128 0x18
 2709 069b 07000000 		.4byte	.LASF67
 2710 069f 01       		.byte	0x1
 2711 06a0 AA03     		.2byte	0x3aa
 2712 06a2 AE000000 		.4byte	0xae
 2713 06a6 01       		.uleb128 0x1
ARM GAS  C:\Users\scott\AppData\Local\Temp\cciBmnUj.s 			page 85


 2714 06a7 50       		.byte	0x50
 2715 06a8 00       		.byte	0
 2716 06a9 15       		.uleb128 0x15
 2717 06aa 70020000 		.4byte	.LASF68
 2718 06ae 01       		.byte	0x1
 2719 06af C503     		.2byte	0x3c5
 2720 06b1 A2000000 		.4byte	0xa2
 2721 06b5 00000000 		.4byte	.LFB16
 2722 06b9 24000000 		.4byte	.LFE16-.LFB16
 2723 06bd 01       		.uleb128 0x1
 2724 06be 9C       		.byte	0x9c
 2725 06bf E2060000 		.4byte	0x6e2
 2726 06c3 0A       		.uleb128 0xa
 2727 06c4 FE040000 		.4byte	.LASF69
 2728 06c8 01       		.byte	0x1
 2729 06c9 C503     		.2byte	0x3c5
 2730 06cb AE000000 		.4byte	0xae
 2731 06cf 19050000 		.4byte	.LLST31
 2732 06d3 17       		.uleb128 0x17
 2733 06d4 94020000 		.4byte	.LASF70
 2734 06d8 01       		.byte	0x1
 2735 06d9 C803     		.2byte	0x3c8
 2736 06db A2000000 		.4byte	0xa2
 2737 06df 01       		.uleb128 0x1
 2738 06e0 50       		.byte	0x50
 2739 06e1 00       		.byte	0
 2740 06e2 14       		.uleb128 0x14
 2741 06e3 46010000 		.4byte	.LASF71
 2742 06e7 01       		.byte	0x1
 2743 06e8 0204     		.2byte	0x402
 2744 06ea BA000000 		.4byte	0xba
 2745 06ee 00000000 		.4byte	.LFB17
 2746 06f2 28000000 		.4byte	.LFE17-.LFB17
 2747 06f6 01       		.uleb128 0x1
 2748 06f7 9C       		.byte	0x9c
 2749 06f8 1B070000 		.4byte	0x71b
 2750 06fc 0A       		.uleb128 0xa
 2751 06fd FE040000 		.4byte	.LASF69
 2752 0701 01       		.byte	0x1
 2753 0702 0204     		.2byte	0x402
 2754 0704 AE000000 		.4byte	0xae
 2755 0708 37050000 		.4byte	.LLST32
 2756 070c 17       		.uleb128 0x17
 2757 070d 12010000 		.4byte	.LASF72
 2758 0711 01       		.byte	0x1
 2759 0712 0504     		.2byte	0x405
 2760 0714 BA000000 		.4byte	0xba
 2761 0718 01       		.uleb128 0x1
 2762 0719 50       		.byte	0x50
 2763 071a 00       		.byte	0
 2764 071b 15       		.uleb128 0x15
 2765 071c 13020000 		.4byte	.LASF73
 2766 0720 01       		.byte	0x1
 2767 0721 4404     		.2byte	0x444
 2768 0723 AE000000 		.4byte	0xae
 2769 0727 00000000 		.4byte	.LFB18
 2770 072b 78000000 		.4byte	.LFE18-.LFB18
ARM GAS  C:\Users\scott\AppData\Local\Temp\cciBmnUj.s 			page 86


 2771 072f 01       		.uleb128 0x1
 2772 0730 9C       		.byte	0x9c
 2773 0731 86070000 		.4byte	0x786
 2774 0735 0A       		.uleb128 0xa
 2775 0736 FE040000 		.4byte	.LASF69
 2776 073a 01       		.byte	0x1
 2777 073b 4404     		.2byte	0x444
 2778 073d AE000000 		.4byte	0xae
 2779 0741 65050000 		.4byte	.LLST33
 2780 0745 0B       		.uleb128 0xb
 2781 0746 A0010000 		.4byte	.LASF74
 2782 074a 01       		.byte	0x1
 2783 074b 4704     		.2byte	0x447
 2784 074d AE000000 		.4byte	0xae
 2785 0751 86050000 		.4byte	.LLST34
 2786 0755 0B       		.uleb128 0xb
 2787 0756 6E040000 		.4byte	.LASF75
 2788 075a 01       		.byte	0x1
 2789 075b 4804     		.2byte	0x448
 2790 075d AE000000 		.4byte	0xae
 2791 0761 A9050000 		.4byte	.LLST35
 2792 0765 0B       		.uleb128 0xb
 2793 0766 74040000 		.4byte	.LASF76
 2794 076a 01       		.byte	0x1
 2795 076b 4904     		.2byte	0x449
 2796 076d AE000000 		.4byte	0xae
 2797 0771 CC050000 		.4byte	.LLST36
 2798 0775 0B       		.uleb128 0xb
 2799 0776 63040000 		.4byte	.LASF30
 2800 077a 01       		.byte	0x1
 2801 077b 4A04     		.2byte	0x44a
 2802 077d 72000000 		.4byte	0x72
 2803 0781 EB050000 		.4byte	.LLST37
 2804 0785 00       		.byte	0
 2805 0786 13       		.uleb128 0x13
 2806 0787 FA000000 		.4byte	.LASF77
 2807 078b 01       		.byte	0x1
 2808 078c 1806     		.2byte	0x618
 2809 078e 00000000 		.4byte	.LFB20
 2810 0792 60000000 		.4byte	.LFE20-.LFB20
 2811 0796 01       		.uleb128 0x1
 2812 0797 9C       		.byte	0x9c
 2813 0798 FB070000 		.4byte	0x7fb
 2814 079c 0A       		.uleb128 0xa
 2815 079d 86040000 		.4byte	.LASF31
 2816 07a1 01       		.byte	0x1
 2817 07a2 1806     		.2byte	0x618
 2818 07a4 72000000 		.4byte	0x72
 2819 07a8 FE050000 		.4byte	.LLST38
 2820 07ac 0A       		.uleb128 0xa
 2821 07ad C1040000 		.4byte	.LASF78
 2822 07b1 01       		.byte	0x1
 2823 07b2 1806     		.2byte	0x618
 2824 07b4 72000000 		.4byte	0x72
 2825 07b8 38060000 		.4byte	.LLST39
 2826 07bc 0E       		.uleb128 0xe
 2827 07bd 1E000000 		.4byte	.LVL151
ARM GAS  C:\Users\scott\AppData\Local\Temp\cciBmnUj.s 			page 87


 2828 07c1 FA030000 		.4byte	0x3fa
 2829 07c5 0F       		.uleb128 0xf
 2830 07c6 24000000 		.4byte	.LVL152
 2831 07ca 5A020000 		.4byte	0x25a
 2832 07ce D9070000 		.4byte	0x7d9
 2833 07d2 0D       		.uleb128 0xd
 2834 07d3 01       		.uleb128 0x1
 2835 07d4 50       		.byte	0x50
 2836 07d5 02       		.uleb128 0x2
 2837 07d6 74       		.byte	0x74
 2838 07d7 00       		.sleb128 0
 2839 07d8 00       		.byte	0
 2840 07d9 0E       		.uleb128 0xe
 2841 07da 42000000 		.4byte	.LVL153
 2842 07de D1030000 		.4byte	0x3d1
 2843 07e2 0E       		.uleb128 0xe
 2844 07e3 46000000 		.4byte	.LVL154
 2845 07e7 51050000 		.4byte	0x551
 2846 07eb 0C       		.uleb128 0xc
 2847 07ec 4E000000 		.4byte	.LVL157
 2848 07f0 A3090000 		.4byte	0x9a3
 2849 07f4 0D       		.uleb128 0xd
 2850 07f5 01       		.uleb128 0x1
 2851 07f6 50       		.byte	0x50
 2852 07f7 01       		.uleb128 0x1
 2853 07f8 30       		.byte	0x30
 2854 07f9 00       		.byte	0
 2855 07fa 00       		.byte	0
 2856 07fb 15       		.uleb128 0x15
 2857 07fc 2E010000 		.4byte	.LASF79
 2858 0800 01       		.byte	0x1
 2859 0801 EA06     		.2byte	0x6ea
 2860 0803 96000000 		.4byte	0x96
 2861 0807 00000000 		.4byte	.LFB23
 2862 080b 28000000 		.4byte	.LFE23-.LFB23
 2863 080f 01       		.uleb128 0x1
 2864 0810 9C       		.byte	0x9c
 2865 0811 54080000 		.4byte	0x854
 2866 0815 0B       		.uleb128 0xb
 2867 0816 AA050000 		.4byte	.LASF61
 2868 081a 01       		.byte	0x1
 2869 081b EC06     		.2byte	0x6ec
 2870 081d 96000000 		.4byte	0x96
 2871 0821 72060000 		.4byte	.LLST40
 2872 0825 0E       		.uleb128 0xe
 2873 0826 10000000 		.4byte	.LVL158
 2874 082a 51050000 		.4byte	0x551
 2875 082e 0F       		.uleb128 0xf
 2876 082f 16000000 		.4byte	.LVL159
 2877 0833 75050000 		.4byte	0x575
 2878 0837 41080000 		.4byte	0x841
 2879 083b 0D       		.uleb128 0xd
 2880 083c 01       		.uleb128 0x1
 2881 083d 50       		.byte	0x50
 2882 083e 01       		.uleb128 0x1
 2883 083f 30       		.byte	0x30
 2884 0840 00       		.byte	0
ARM GAS  C:\Users\scott\AppData\Local\Temp\cciBmnUj.s 			page 88


 2885 0841 0E       		.uleb128 0xe
 2886 0842 1A000000 		.4byte	.LVL160
 2887 0846 B0050000 		.4byte	0x5b0
 2888 084a 0E       		.uleb128 0xe
 2889 084b 20000000 		.4byte	.LVL162
 2890 084f 63050000 		.4byte	0x563
 2891 0853 00       		.byte	0
 2892 0854 15       		.uleb128 0x15
 2893 0855 FB020000 		.4byte	.LASF80
 2894 0859 01       		.byte	0x1
 2895 085a 0B07     		.2byte	0x70b
 2896 085c A2000000 		.4byte	0xa2
 2897 0860 00000000 		.4byte	.LFB24
 2898 0864 28000000 		.4byte	.LFE24-.LFB24
 2899 0868 01       		.uleb128 0x1
 2900 0869 9C       		.byte	0x9c
 2901 086a AD080000 		.4byte	0x8ad
 2902 086e 0B       		.uleb128 0xb
 2903 086f AA050000 		.4byte	.LASF61
 2904 0873 01       		.byte	0x1
 2905 0874 0D07     		.2byte	0x70d
 2906 0876 A2000000 		.4byte	0xa2
 2907 087a 85060000 		.4byte	.LLST41
 2908 087e 0E       		.uleb128 0xe
 2909 087f 10000000 		.4byte	.LVL164
 2910 0883 51050000 		.4byte	0x551
 2911 0887 0F       		.uleb128 0xf
 2912 0888 16000000 		.4byte	.LVL165
 2913 088c 75050000 		.4byte	0x575
 2914 0890 9A080000 		.4byte	0x89a
 2915 0894 0D       		.uleb128 0xd
 2916 0895 01       		.uleb128 0x1
 2917 0896 50       		.byte	0x50
 2918 0897 01       		.uleb128 0x1
 2919 0898 30       		.byte	0x30
 2920 0899 00       		.byte	0
 2921 089a 0E       		.uleb128 0xe
 2922 089b 1A000000 		.4byte	.LVL166
 2923 089f E9050000 		.4byte	0x5e9
 2924 08a3 0E       		.uleb128 0xe
 2925 08a4 20000000 		.4byte	.LVL168
 2926 08a8 63050000 		.4byte	0x563
 2927 08ac 00       		.byte	0
 2928 08ad 15       		.uleb128 0x15
 2929 08ae 78010000 		.4byte	.LASF81
 2930 08b2 01       		.byte	0x1
 2931 08b3 2C07     		.2byte	0x72c
 2932 08b5 AE000000 		.4byte	0xae
 2933 08b9 00000000 		.4byte	.LFB25
 2934 08bd 28000000 		.4byte	.LFE25-.LFB25
 2935 08c1 01       		.uleb128 0x1
 2936 08c2 9C       		.byte	0x9c
 2937 08c3 06090000 		.4byte	0x906
 2938 08c7 0B       		.uleb128 0xb
 2939 08c8 AA050000 		.4byte	.LASF61
 2940 08cc 01       		.byte	0x1
 2941 08cd 2E07     		.2byte	0x72e
ARM GAS  C:\Users\scott\AppData\Local\Temp\cciBmnUj.s 			page 89


 2942 08cf AE000000 		.4byte	0xae
 2943 08d3 98060000 		.4byte	.LLST42
 2944 08d7 0E       		.uleb128 0xe
 2945 08d8 10000000 		.4byte	.LVL170
 2946 08dc 51050000 		.4byte	0x551
 2947 08e0 0F       		.uleb128 0xf
 2948 08e1 16000000 		.4byte	.LVL171
 2949 08e5 75050000 		.4byte	0x575
 2950 08e9 F3080000 		.4byte	0x8f3
 2951 08ed 0D       		.uleb128 0xd
 2952 08ee 01       		.uleb128 0x1
 2953 08ef 50       		.byte	0x50
 2954 08f0 01       		.uleb128 0x1
 2955 08f1 30       		.byte	0x30
 2956 08f2 00       		.byte	0
 2957 08f3 0E       		.uleb128 0xe
 2958 08f4 1A000000 		.4byte	.LVL172
 2959 08f8 24060000 		.4byte	0x624
 2960 08fc 0E       		.uleb128 0xe
 2961 08fd 20000000 		.4byte	.LVL174
 2962 0901 63050000 		.4byte	0x563
 2963 0905 00       		.byte	0
 2964 0906 19       		.uleb128 0x19
 2965 0907 36010000 		.4byte	0x136
 2966 090b 16090000 		.4byte	0x916
 2967 090f 1A       		.uleb128 0x1a
 2968 0910 0E010000 		.4byte	0x10e
 2969 0914 00       		.byte	0
 2970 0915 00       		.byte	0
 2971 0916 1B       		.uleb128 0x1b
 2972 0917 8F050000 		.4byte	.LASF82
 2973 091b 01       		.byte	0x1
 2974 091c 3D       		.byte	0x3d
 2975 091d 06090000 		.4byte	0x906
 2976 0921 05       		.uleb128 0x5
 2977 0922 03       		.byte	0x3
 2978 0923 00000000 		.4byte	PSI_gcor
 2979 0927 1C       		.uleb128 0x1c
 2980 0928 29050000 		.4byte	.LASF83
 2981 092c 01       		.byte	0x1
 2982 092d 2C       		.byte	0x2c
 2983 092e 72000000 		.4byte	0x72
 2984 0932 05       		.uleb128 0x5
 2985 0933 03       		.byte	0x3
 2986 0934 00000000 		.4byte	PSI_initVar
 2987 0938 1C       		.uleb128 0x1c
 2988 0939 7B050000 		.4byte	.LASF84
 2989 093d 01       		.byte	0x1
 2990 093e 24       		.byte	0x24
 2991 093f E0000000 		.4byte	0xe0
 2992 0943 05       		.uleb128 0x5
 2993 0944 03       		.byte	0x3
 2994 0945 00000000 		.4byte	PSI_convDone
 2995 0949 1C       		.uleb128 0x1c
 2996 094a EB040000 		.4byte	.LASF85
 2997 094e 01       		.byte	0x1
 2998 094f 29       		.byte	0x29
ARM GAS  C:\Users\scott\AppData\Local\Temp\cciBmnUj.s 			page 90


 2999 0950 E0000000 		.4byte	0xe0
 3000 0954 05       		.uleb128 0x5
 3001 0955 03       		.byte	0x3
 3002 0956 00000000 		.4byte	PSI_stopConversion
 3003 095a 1C       		.uleb128 0x1c
 3004 095b 6F050000 		.4byte	.LASF86
 3005 095f 01       		.byte	0x1
 3006 0960 2F       		.byte	0x2f
 3007 0961 E0000000 		.4byte	0xe0
 3008 0965 05       		.uleb128 0x5
 3009 0966 03       		.byte	0x3
 3010 0967 00000000 		.4byte	PSI_started
 3011 096b 1C       		.uleb128 0x1c
 3012 096c AC000000 		.4byte	.LASF87
 3013 0970 01       		.byte	0x1
 3014 0971 32       		.byte	0x32
 3015 0972 E0000000 		.4byte	0xe0
 3016 0976 05       		.uleb128 0x5
 3017 0977 03       		.byte	0x3
 3018 0978 00000000 		.4byte	PSI_Config
 3019 097c 1C       		.uleb128 0x1c
 3020 097d D2000000 		.4byte	.LASF88
 3021 0981 01       		.byte	0x1
 3022 0982 34       		.byte	0x34
 3023 0983 8D090000 		.4byte	0x98d
 3024 0987 05       		.uleb128 0x5
 3025 0988 03       		.byte	0x3
 3026 0989 00000000 		.4byte	PSI_Offset
 3027 098d 05       		.uleb128 0x5
 3028 098e AE000000 		.4byte	0xae
 3029 0992 1C       		.uleb128 0x1c
 3030 0993 92040000 		.4byte	.LASF89
 3031 0997 01       		.byte	0x1
 3032 0998 35       		.byte	0x35
 3033 0999 8D090000 		.4byte	0x98d
 3034 099d 05       		.uleb128 0x5
 3035 099e 03       		.byte	0x3
 3036 099f 00000000 		.4byte	PSI_CountsPerVolt
 3037 09a3 1D       		.uleb128 0x1d
 3038 09a4 AE030000 		.4byte	.LASF90
 3039 09a8 AE030000 		.4byte	.LASF90
 3040 09ac 04       		.byte	0x4
 3041 09ad 7F       		.byte	0x7f
 3042 09ae 1D       		.uleb128 0x1d
 3043 09af CA010000 		.4byte	.LASF91
 3044 09b3 CA010000 		.4byte	.LASF91
 3045 09b7 04       		.byte	0x4
 3046 09b8 7D       		.byte	0x7d
 3047 09b9 1D       		.uleb128 0x1d
 3048 09ba E9000000 		.4byte	.LASF92
 3049 09be E9000000 		.4byte	.LASF92
 3050 09c2 04       		.byte	0x4
 3051 09c3 77       		.byte	0x77
 3052 09c4 1D       		.uleb128 0x1d
 3053 09c5 70030000 		.4byte	.LASF93
 3054 09c9 70030000 		.4byte	.LASF93
 3055 09cd 04       		.byte	0x4
ARM GAS  C:\Users\scott\AppData\Local\Temp\cciBmnUj.s 			page 91


 3056 09ce 7E       		.byte	0x7e
 3057 09cf 1D       		.uleb128 0x1d
 3058 09d0 19050000 		.4byte	.LASF94
 3059 09d4 19050000 		.4byte	.LASF94
 3060 09d8 05       		.byte	0x5
 3061 09d9 57       		.byte	0x57
 3062 09da 1D       		.uleb128 0x1d
 3063 09db 3C050000 		.4byte	.LASF95
 3064 09df 3C050000 		.4byte	.LASF95
 3065 09e3 06       		.byte	0x6
 3066 09e4 2F       		.byte	0x2f
 3067 09e5 1D       		.uleb128 0x1d
 3068 09e6 59010000 		.4byte	.LASF96
 3069 09ea 59010000 		.4byte	.LASF96
 3070 09ee 07       		.byte	0x7
 3071 09ef 2F       		.byte	0x2f
 3072 09f0 1D       		.uleb128 0x1d
 3073 09f1 1F010000 		.4byte	.LASF97
 3074 09f5 1F010000 		.4byte	.LASF97
 3075 09f9 04       		.byte	0x4
 3076 09fa 88       		.byte	0x88
 3077 09fb 1D       		.uleb128 0x1d
 3078 09fc E1010000 		.4byte	.LASF98
 3079 0a00 E1010000 		.4byte	.LASF98
 3080 0a04 06       		.byte	0x6
 3081 0a05 32       		.byte	0x32
 3082 0a06 1D       		.uleb128 0x1d
 3083 0a07 4A020000 		.4byte	.LASF99
 3084 0a0b 4A020000 		.4byte	.LASF99
 3085 0a0f 07       		.byte	0x7
 3086 0a10 32       		.byte	0x32
 3087 0a11 1D       		.uleb128 0x1d
 3088 0a12 2A030000 		.4byte	.LASF100
 3089 0a16 2A030000 		.4byte	.LASF100
 3090 0a1a 04       		.byte	0x4
 3091 0a1b 8B       		.byte	0x8b
 3092 0a1c 00       		.byte	0
 3093              		.section	.debug_abbrev,"",%progbits
 3094              	.Ldebug_abbrev0:
 3095 0000 01       		.uleb128 0x1
 3096 0001 11       		.uleb128 0x11
 3097 0002 01       		.byte	0x1
 3098 0003 25       		.uleb128 0x25
 3099 0004 0E       		.uleb128 0xe
 3100 0005 13       		.uleb128 0x13
 3101 0006 0B       		.uleb128 0xb
 3102 0007 03       		.uleb128 0x3
 3103 0008 0E       		.uleb128 0xe
 3104 0009 1B       		.uleb128 0x1b
 3105 000a 0E       		.uleb128 0xe
 3106 000b 55       		.uleb128 0x55
 3107 000c 17       		.uleb128 0x17
 3108 000d 11       		.uleb128 0x11
 3109 000e 01       		.uleb128 0x1
 3110 000f 10       		.uleb128 0x10
 3111 0010 17       		.uleb128 0x17
 3112 0011 00       		.byte	0
ARM GAS  C:\Users\scott\AppData\Local\Temp\cciBmnUj.s 			page 92


 3113 0012 00       		.byte	0
 3114 0013 02       		.uleb128 0x2
 3115 0014 24       		.uleb128 0x24
 3116 0015 00       		.byte	0
 3117 0016 0B       		.uleb128 0xb
 3118 0017 0B       		.uleb128 0xb
 3119 0018 3E       		.uleb128 0x3e
 3120 0019 0B       		.uleb128 0xb
 3121 001a 03       		.uleb128 0x3
 3122 001b 0E       		.uleb128 0xe
 3123 001c 00       		.byte	0
 3124 001d 00       		.byte	0
 3125 001e 03       		.uleb128 0x3
 3126 001f 24       		.uleb128 0x24
 3127 0020 00       		.byte	0
 3128 0021 0B       		.uleb128 0xb
 3129 0022 0B       		.uleb128 0xb
 3130 0023 3E       		.uleb128 0x3e
 3131 0024 0B       		.uleb128 0xb
 3132 0025 03       		.uleb128 0x3
 3133 0026 08       		.uleb128 0x8
 3134 0027 00       		.byte	0
 3135 0028 00       		.byte	0
 3136 0029 04       		.uleb128 0x4
 3137 002a 16       		.uleb128 0x16
 3138 002b 00       		.byte	0
 3139 002c 03       		.uleb128 0x3
 3140 002d 0E       		.uleb128 0xe
 3141 002e 3A       		.uleb128 0x3a
 3142 002f 0B       		.uleb128 0xb
 3143 0030 3B       		.uleb128 0x3b
 3144 0031 05       		.uleb128 0x5
 3145 0032 49       		.uleb128 0x49
 3146 0033 13       		.uleb128 0x13
 3147 0034 00       		.byte	0
 3148 0035 00       		.byte	0
 3149 0036 05       		.uleb128 0x5
 3150 0037 35       		.uleb128 0x35
 3151 0038 00       		.byte	0
 3152 0039 49       		.uleb128 0x49
 3153 003a 13       		.uleb128 0x13
 3154 003b 00       		.byte	0
 3155 003c 00       		.byte	0
 3156 003d 06       		.uleb128 0x6
 3157 003e 13       		.uleb128 0x13
 3158 003f 01       		.byte	0x1
 3159 0040 0B       		.uleb128 0xb
 3160 0041 0B       		.uleb128 0xb
 3161 0042 3A       		.uleb128 0x3a
 3162 0043 0B       		.uleb128 0xb
 3163 0044 3B       		.uleb128 0x3b
 3164 0045 0B       		.uleb128 0xb
 3165 0046 01       		.uleb128 0x1
 3166 0047 13       		.uleb128 0x13
 3167 0048 00       		.byte	0
 3168 0049 00       		.byte	0
 3169 004a 07       		.uleb128 0x7
ARM GAS  C:\Users\scott\AppData\Local\Temp\cciBmnUj.s 			page 93


 3170 004b 0D       		.uleb128 0xd
 3171 004c 00       		.byte	0
 3172 004d 03       		.uleb128 0x3
 3173 004e 0E       		.uleb128 0xe
 3174 004f 3A       		.uleb128 0x3a
 3175 0050 0B       		.uleb128 0xb
 3176 0051 3B       		.uleb128 0x3b
 3177 0052 0B       		.uleb128 0xb
 3178 0053 49       		.uleb128 0x49
 3179 0054 13       		.uleb128 0x13
 3180 0055 38       		.uleb128 0x38
 3181 0056 0B       		.uleb128 0xb
 3182 0057 00       		.byte	0
 3183 0058 00       		.byte	0
 3184 0059 08       		.uleb128 0x8
 3185 005a 16       		.uleb128 0x16
 3186 005b 00       		.byte	0
 3187 005c 03       		.uleb128 0x3
 3188 005d 0E       		.uleb128 0xe
 3189 005e 3A       		.uleb128 0x3a
 3190 005f 0B       		.uleb128 0xb
 3191 0060 3B       		.uleb128 0x3b
 3192 0061 0B       		.uleb128 0xb
 3193 0062 49       		.uleb128 0x49
 3194 0063 13       		.uleb128 0x13
 3195 0064 00       		.byte	0
 3196 0065 00       		.byte	0
 3197 0066 09       		.uleb128 0x9
 3198 0067 2E       		.uleb128 0x2e
 3199 0068 01       		.byte	0x1
 3200 0069 03       		.uleb128 0x3
 3201 006a 0E       		.uleb128 0xe
 3202 006b 3A       		.uleb128 0x3a
 3203 006c 0B       		.uleb128 0xb
 3204 006d 3B       		.uleb128 0x3b
 3205 006e 05       		.uleb128 0x5
 3206 006f 27       		.uleb128 0x27
 3207 0070 19       		.uleb128 0x19
 3208 0071 11       		.uleb128 0x11
 3209 0072 01       		.uleb128 0x1
 3210 0073 12       		.uleb128 0x12
 3211 0074 06       		.uleb128 0x6
 3212 0075 40       		.uleb128 0x40
 3213 0076 18       		.uleb128 0x18
 3214 0077 9742     		.uleb128 0x2117
 3215 0079 19       		.uleb128 0x19
 3216 007a 01       		.uleb128 0x1
 3217 007b 13       		.uleb128 0x13
 3218 007c 00       		.byte	0
 3219 007d 00       		.byte	0
 3220 007e 0A       		.uleb128 0xa
 3221 007f 05       		.uleb128 0x5
 3222 0080 00       		.byte	0
 3223 0081 03       		.uleb128 0x3
 3224 0082 0E       		.uleb128 0xe
 3225 0083 3A       		.uleb128 0x3a
 3226 0084 0B       		.uleb128 0xb
ARM GAS  C:\Users\scott\AppData\Local\Temp\cciBmnUj.s 			page 94


 3227 0085 3B       		.uleb128 0x3b
 3228 0086 05       		.uleb128 0x5
 3229 0087 49       		.uleb128 0x49
 3230 0088 13       		.uleb128 0x13
 3231 0089 02       		.uleb128 0x2
 3232 008a 17       		.uleb128 0x17
 3233 008b 00       		.byte	0
 3234 008c 00       		.byte	0
 3235 008d 0B       		.uleb128 0xb
 3236 008e 34       		.uleb128 0x34
 3237 008f 00       		.byte	0
 3238 0090 03       		.uleb128 0x3
 3239 0091 0E       		.uleb128 0xe
 3240 0092 3A       		.uleb128 0x3a
 3241 0093 0B       		.uleb128 0xb
 3242 0094 3B       		.uleb128 0x3b
 3243 0095 05       		.uleb128 0x5
 3244 0096 49       		.uleb128 0x49
 3245 0097 13       		.uleb128 0x13
 3246 0098 02       		.uleb128 0x2
 3247 0099 17       		.uleb128 0x17
 3248 009a 00       		.byte	0
 3249 009b 00       		.byte	0
 3250 009c 0C       		.uleb128 0xc
 3251 009d 898201   		.uleb128 0x4109
 3252 00a0 01       		.byte	0x1
 3253 00a1 11       		.uleb128 0x11
 3254 00a2 01       		.uleb128 0x1
 3255 00a3 31       		.uleb128 0x31
 3256 00a4 13       		.uleb128 0x13
 3257 00a5 00       		.byte	0
 3258 00a6 00       		.byte	0
 3259 00a7 0D       		.uleb128 0xd
 3260 00a8 8A8201   		.uleb128 0x410a
 3261 00ab 00       		.byte	0
 3262 00ac 02       		.uleb128 0x2
 3263 00ad 18       		.uleb128 0x18
 3264 00ae 9142     		.uleb128 0x2111
 3265 00b0 18       		.uleb128 0x18
 3266 00b1 00       		.byte	0
 3267 00b2 00       		.byte	0
 3268 00b3 0E       		.uleb128 0xe
 3269 00b4 898201   		.uleb128 0x4109
 3270 00b7 00       		.byte	0
 3271 00b8 11       		.uleb128 0x11
 3272 00b9 01       		.uleb128 0x1
 3273 00ba 31       		.uleb128 0x31
 3274 00bb 13       		.uleb128 0x13
 3275 00bc 00       		.byte	0
 3276 00bd 00       		.byte	0
 3277 00be 0F       		.uleb128 0xf
 3278 00bf 898201   		.uleb128 0x4109
 3279 00c2 01       		.byte	0x1
 3280 00c3 11       		.uleb128 0x11
 3281 00c4 01       		.uleb128 0x1
 3282 00c5 31       		.uleb128 0x31
 3283 00c6 13       		.uleb128 0x13
ARM GAS  C:\Users\scott\AppData\Local\Temp\cciBmnUj.s 			page 95


 3284 00c7 01       		.uleb128 0x1
 3285 00c8 13       		.uleb128 0x13
 3286 00c9 00       		.byte	0
 3287 00ca 00       		.byte	0
 3288 00cb 10       		.uleb128 0x10
 3289 00cc 2E       		.uleb128 0x2e
 3290 00cd 01       		.byte	0x1
 3291 00ce 3F       		.uleb128 0x3f
 3292 00cf 19       		.uleb128 0x19
 3293 00d0 03       		.uleb128 0x3
 3294 00d1 0E       		.uleb128 0xe
 3295 00d2 3A       		.uleb128 0x3a
 3296 00d3 0B       		.uleb128 0xb
 3297 00d4 3B       		.uleb128 0x3b
 3298 00d5 0B       		.uleb128 0xb
 3299 00d6 27       		.uleb128 0x27
 3300 00d7 19       		.uleb128 0x19
 3301 00d8 11       		.uleb128 0x11
 3302 00d9 01       		.uleb128 0x1
 3303 00da 12       		.uleb128 0x12
 3304 00db 06       		.uleb128 0x6
 3305 00dc 40       		.uleb128 0x40
 3306 00dd 18       		.uleb128 0x18
 3307 00de 9742     		.uleb128 0x2117
 3308 00e0 19       		.uleb128 0x19
 3309 00e1 01       		.uleb128 0x1
 3310 00e2 13       		.uleb128 0x13
 3311 00e3 00       		.byte	0
 3312 00e4 00       		.byte	0
 3313 00e5 11       		.uleb128 0x11
 3314 00e6 34       		.uleb128 0x34
 3315 00e7 00       		.byte	0
 3316 00e8 03       		.uleb128 0x3
 3317 00e9 0E       		.uleb128 0xe
 3318 00ea 3A       		.uleb128 0x3a
 3319 00eb 0B       		.uleb128 0xb
 3320 00ec 3B       		.uleb128 0x3b
 3321 00ed 0B       		.uleb128 0xb
 3322 00ee 49       		.uleb128 0x49
 3323 00ef 13       		.uleb128 0x13
 3324 00f0 00       		.byte	0
 3325 00f1 00       		.byte	0
 3326 00f2 12       		.uleb128 0x12
 3327 00f3 34       		.uleb128 0x34
 3328 00f4 00       		.byte	0
 3329 00f5 03       		.uleb128 0x3
 3330 00f6 0E       		.uleb128 0xe
 3331 00f7 3A       		.uleb128 0x3a
 3332 00f8 0B       		.uleb128 0xb
 3333 00f9 3B       		.uleb128 0x3b
 3334 00fa 0B       		.uleb128 0xb
 3335 00fb 49       		.uleb128 0x49
 3336 00fc 13       		.uleb128 0x13
 3337 00fd 02       		.uleb128 0x2
 3338 00fe 17       		.uleb128 0x17
 3339 00ff 00       		.byte	0
 3340 0100 00       		.byte	0
ARM GAS  C:\Users\scott\AppData\Local\Temp\cciBmnUj.s 			page 96


 3341 0101 13       		.uleb128 0x13
 3342 0102 2E       		.uleb128 0x2e
 3343 0103 01       		.byte	0x1
 3344 0104 3F       		.uleb128 0x3f
 3345 0105 19       		.uleb128 0x19
 3346 0106 03       		.uleb128 0x3
 3347 0107 0E       		.uleb128 0xe
 3348 0108 3A       		.uleb128 0x3a
 3349 0109 0B       		.uleb128 0xb
 3350 010a 3B       		.uleb128 0x3b
 3351 010b 05       		.uleb128 0x5
 3352 010c 27       		.uleb128 0x27
 3353 010d 19       		.uleb128 0x19
 3354 010e 11       		.uleb128 0x11
 3355 010f 01       		.uleb128 0x1
 3356 0110 12       		.uleb128 0x12
 3357 0111 06       		.uleb128 0x6
 3358 0112 40       		.uleb128 0x40
 3359 0113 18       		.uleb128 0x18
 3360 0114 9742     		.uleb128 0x2117
 3361 0116 19       		.uleb128 0x19
 3362 0117 01       		.uleb128 0x1
 3363 0118 13       		.uleb128 0x13
 3364 0119 00       		.byte	0
 3365 011a 00       		.byte	0
 3366 011b 14       		.uleb128 0x14
 3367 011c 2E       		.uleb128 0x2e
 3368 011d 01       		.byte	0x1
 3369 011e 3F       		.uleb128 0x3f
 3370 011f 19       		.uleb128 0x19
 3371 0120 03       		.uleb128 0x3
 3372 0121 0E       		.uleb128 0xe
 3373 0122 3A       		.uleb128 0x3a
 3374 0123 0B       		.uleb128 0xb
 3375 0124 3B       		.uleb128 0x3b
 3376 0125 05       		.uleb128 0x5
 3377 0126 27       		.uleb128 0x27
 3378 0127 19       		.uleb128 0x19
 3379 0128 49       		.uleb128 0x49
 3380 0129 13       		.uleb128 0x13
 3381 012a 11       		.uleb128 0x11
 3382 012b 01       		.uleb128 0x1
 3383 012c 12       		.uleb128 0x12
 3384 012d 06       		.uleb128 0x6
 3385 012e 40       		.uleb128 0x40
 3386 012f 18       		.uleb128 0x18
 3387 0130 9642     		.uleb128 0x2116
 3388 0132 19       		.uleb128 0x19
 3389 0133 01       		.uleb128 0x1
 3390 0134 13       		.uleb128 0x13
 3391 0135 00       		.byte	0
 3392 0136 00       		.byte	0
 3393 0137 15       		.uleb128 0x15
 3394 0138 2E       		.uleb128 0x2e
 3395 0139 01       		.byte	0x1
 3396 013a 3F       		.uleb128 0x3f
 3397 013b 19       		.uleb128 0x19
ARM GAS  C:\Users\scott\AppData\Local\Temp\cciBmnUj.s 			page 97


 3398 013c 03       		.uleb128 0x3
 3399 013d 0E       		.uleb128 0xe
 3400 013e 3A       		.uleb128 0x3a
 3401 013f 0B       		.uleb128 0xb
 3402 0140 3B       		.uleb128 0x3b
 3403 0141 05       		.uleb128 0x5
 3404 0142 27       		.uleb128 0x27
 3405 0143 19       		.uleb128 0x19
 3406 0144 49       		.uleb128 0x49
 3407 0145 13       		.uleb128 0x13
 3408 0146 11       		.uleb128 0x11
 3409 0147 01       		.uleb128 0x1
 3410 0148 12       		.uleb128 0x12
 3411 0149 06       		.uleb128 0x6
 3412 014a 40       		.uleb128 0x40
 3413 014b 18       		.uleb128 0x18
 3414 014c 9742     		.uleb128 0x2117
 3415 014e 19       		.uleb128 0x19
 3416 014f 01       		.uleb128 0x1
 3417 0150 13       		.uleb128 0x13
 3418 0151 00       		.byte	0
 3419 0152 00       		.byte	0
 3420 0153 16       		.uleb128 0x16
 3421 0154 2E       		.uleb128 0x2e
 3422 0155 00       		.byte	0
 3423 0156 3F       		.uleb128 0x3f
 3424 0157 19       		.uleb128 0x19
 3425 0158 03       		.uleb128 0x3
 3426 0159 0E       		.uleb128 0xe
 3427 015a 3A       		.uleb128 0x3a
 3428 015b 0B       		.uleb128 0xb
 3429 015c 3B       		.uleb128 0x3b
 3430 015d 05       		.uleb128 0x5
 3431 015e 27       		.uleb128 0x27
 3432 015f 19       		.uleb128 0x19
 3433 0160 11       		.uleb128 0x11
 3434 0161 01       		.uleb128 0x1
 3435 0162 12       		.uleb128 0x12
 3436 0163 06       		.uleb128 0x6
 3437 0164 40       		.uleb128 0x40
 3438 0165 18       		.uleb128 0x18
 3439 0166 9742     		.uleb128 0x2117
 3440 0168 19       		.uleb128 0x19
 3441 0169 00       		.byte	0
 3442 016a 00       		.byte	0
 3443 016b 17       		.uleb128 0x17
 3444 016c 34       		.uleb128 0x34
 3445 016d 00       		.byte	0
 3446 016e 03       		.uleb128 0x3
 3447 016f 0E       		.uleb128 0xe
 3448 0170 3A       		.uleb128 0x3a
 3449 0171 0B       		.uleb128 0xb
 3450 0172 3B       		.uleb128 0x3b
 3451 0173 05       		.uleb128 0x5
 3452 0174 49       		.uleb128 0x49
 3453 0175 13       		.uleb128 0x13
 3454 0176 02       		.uleb128 0x2
ARM GAS  C:\Users\scott\AppData\Local\Temp\cciBmnUj.s 			page 98


 3455 0177 18       		.uleb128 0x18
 3456 0178 00       		.byte	0
 3457 0179 00       		.byte	0
 3458 017a 18       		.uleb128 0x18
 3459 017b 05       		.uleb128 0x5
 3460 017c 00       		.byte	0
 3461 017d 03       		.uleb128 0x3
 3462 017e 0E       		.uleb128 0xe
 3463 017f 3A       		.uleb128 0x3a
 3464 0180 0B       		.uleb128 0xb
 3465 0181 3B       		.uleb128 0x3b
 3466 0182 05       		.uleb128 0x5
 3467 0183 49       		.uleb128 0x49
 3468 0184 13       		.uleb128 0x13
 3469 0185 02       		.uleb128 0x2
 3470 0186 18       		.uleb128 0x18
 3471 0187 00       		.byte	0
 3472 0188 00       		.byte	0
 3473 0189 19       		.uleb128 0x19
 3474 018a 01       		.uleb128 0x1
 3475 018b 01       		.byte	0x1
 3476 018c 49       		.uleb128 0x49
 3477 018d 13       		.uleb128 0x13
 3478 018e 01       		.uleb128 0x1
 3479 018f 13       		.uleb128 0x13
 3480 0190 00       		.byte	0
 3481 0191 00       		.byte	0
 3482 0192 1A       		.uleb128 0x1a
 3483 0193 21       		.uleb128 0x21
 3484 0194 00       		.byte	0
 3485 0195 49       		.uleb128 0x49
 3486 0196 13       		.uleb128 0x13
 3487 0197 2F       		.uleb128 0x2f
 3488 0198 0B       		.uleb128 0xb
 3489 0199 00       		.byte	0
 3490 019a 00       		.byte	0
 3491 019b 1B       		.uleb128 0x1b
 3492 019c 34       		.uleb128 0x34
 3493 019d 00       		.byte	0
 3494 019e 03       		.uleb128 0x3
 3495 019f 0E       		.uleb128 0xe
 3496 01a0 3A       		.uleb128 0x3a
 3497 01a1 0B       		.uleb128 0xb
 3498 01a2 3B       		.uleb128 0x3b
 3499 01a3 0B       		.uleb128 0xb
 3500 01a4 49       		.uleb128 0x49
 3501 01a5 13       		.uleb128 0x13
 3502 01a6 02       		.uleb128 0x2
 3503 01a7 18       		.uleb128 0x18
 3504 01a8 00       		.byte	0
 3505 01a9 00       		.byte	0
 3506 01aa 1C       		.uleb128 0x1c
 3507 01ab 34       		.uleb128 0x34
 3508 01ac 00       		.byte	0
 3509 01ad 03       		.uleb128 0x3
 3510 01ae 0E       		.uleb128 0xe
 3511 01af 3A       		.uleb128 0x3a
ARM GAS  C:\Users\scott\AppData\Local\Temp\cciBmnUj.s 			page 99


 3512 01b0 0B       		.uleb128 0xb
 3513 01b1 3B       		.uleb128 0x3b
 3514 01b2 0B       		.uleb128 0xb
 3515 01b3 49       		.uleb128 0x49
 3516 01b4 13       		.uleb128 0x13
 3517 01b5 3F       		.uleb128 0x3f
 3518 01b6 19       		.uleb128 0x19
 3519 01b7 02       		.uleb128 0x2
 3520 01b8 18       		.uleb128 0x18
 3521 01b9 00       		.byte	0
 3522 01ba 00       		.byte	0
 3523 01bb 1D       		.uleb128 0x1d
 3524 01bc 2E       		.uleb128 0x2e
 3525 01bd 00       		.byte	0
 3526 01be 3F       		.uleb128 0x3f
 3527 01bf 19       		.uleb128 0x19
 3528 01c0 3C       		.uleb128 0x3c
 3529 01c1 19       		.uleb128 0x19
 3530 01c2 6E       		.uleb128 0x6e
 3531 01c3 0E       		.uleb128 0xe
 3532 01c4 03       		.uleb128 0x3
 3533 01c5 0E       		.uleb128 0xe
 3534 01c6 3A       		.uleb128 0x3a
 3535 01c7 0B       		.uleb128 0xb
 3536 01c8 3B       		.uleb128 0x3b
 3537 01c9 0B       		.uleb128 0xb
 3538 01ca 00       		.byte	0
 3539 01cb 00       		.byte	0
 3540 01cc 00       		.byte	0
 3541              		.section	.debug_loc,"",%progbits
 3542              	.Ldebug_loc0:
 3543              	.LLST0:
 3544 0000 00000000 		.4byte	.LVL0
 3545 0004 0C000000 		.4byte	.LVL1
 3546 0008 0100     		.2byte	0x1
 3547 000a 50       		.byte	0x50
 3548 000b 0C000000 		.4byte	.LVL1
 3549 000f AE000000 		.4byte	.LVL31
 3550 0013 0400     		.2byte	0x4
 3551 0015 F3       		.byte	0xf3
 3552 0016 01       		.uleb128 0x1
 3553 0017 50       		.byte	0x50
 3554 0018 9F       		.byte	0x9f
 3555 0019 AE000000 		.4byte	.LVL31
 3556 001d B0000000 		.4byte	.LVL32
 3557 0021 0100     		.2byte	0x1
 3558 0023 50       		.byte	0x50
 3559 0024 B0000000 		.4byte	.LVL32
 3560 0028 DC000000 		.4byte	.LFE21
 3561 002c 0400     		.2byte	0x4
 3562 002e F3       		.byte	0xf3
 3563 002f 01       		.uleb128 0x1
 3564 0030 50       		.byte	0x50
 3565 0031 9F       		.byte	0x9f
 3566 0032 00000000 		.4byte	0
 3567 0036 00000000 		.4byte	0
 3568              	.LLST1:
ARM GAS  C:\Users\scott\AppData\Local\Temp\cciBmnUj.s 			page 100


 3569 003a 00000000 		.4byte	.LVL0
 3570 003e 74000000 		.4byte	.LVL19
 3571 0042 0100     		.2byte	0x1
 3572 0044 51       		.byte	0x51
 3573 0045 74000000 		.4byte	.LVL19
 3574 0049 AE000000 		.4byte	.LVL31
 3575 004d 0400     		.2byte	0x4
 3576 004f F3       		.byte	0xf3
 3577 0050 01       		.uleb128 0x1
 3578 0051 51       		.byte	0x51
 3579 0052 9F       		.byte	0x9f
 3580 0053 AE000000 		.4byte	.LVL31
 3581 0057 B3000000 		.4byte	.LVL33-1
 3582 005b 0100     		.2byte	0x1
 3583 005d 51       		.byte	0x51
 3584 005e B3000000 		.4byte	.LVL33-1
 3585 0062 DC000000 		.4byte	.LFE21
 3586 0066 0400     		.2byte	0x4
 3587 0068 F3       		.byte	0xf3
 3588 0069 01       		.uleb128 0x1
 3589 006a 51       		.byte	0x51
 3590 006b 9F       		.byte	0x9f
 3591 006c 00000000 		.4byte	0
 3592 0070 00000000 		.4byte	0
 3593              	.LLST2:
 3594 0074 00000000 		.4byte	.LVL0
 3595 0078 7C000000 		.4byte	.LVL22
 3596 007c 0100     		.2byte	0x1
 3597 007e 52       		.byte	0x52
 3598 007f 7C000000 		.4byte	.LVL22
 3599 0083 AE000000 		.4byte	.LVL31
 3600 0087 0400     		.2byte	0x4
 3601 0089 F3       		.byte	0xf3
 3602 008a 01       		.uleb128 0x1
 3603 008b 52       		.byte	0x52
 3604 008c 9F       		.byte	0x9f
 3605 008d AE000000 		.4byte	.LVL31
 3606 0091 B3000000 		.4byte	.LVL33-1
 3607 0095 0100     		.2byte	0x1
 3608 0097 52       		.byte	0x52
 3609 0098 B3000000 		.4byte	.LVL33-1
 3610 009c DC000000 		.4byte	.LFE21
 3611 00a0 0400     		.2byte	0x4
 3612 00a2 F3       		.byte	0xf3
 3613 00a3 01       		.uleb128 0x1
 3614 00a4 52       		.byte	0x52
 3615 00a5 9F       		.byte	0x9f
 3616 00a6 00000000 		.4byte	0
 3617 00aa 00000000 		.4byte	0
 3618              	.LLST3:
 3619 00ae 00000000 		.4byte	.LVL0
 3620 00b2 94000000 		.4byte	.LVL27
 3621 00b6 0100     		.2byte	0x1
 3622 00b8 53       		.byte	0x53
 3623 00b9 94000000 		.4byte	.LVL27
 3624 00bd 98000000 		.4byte	.LVL28
 3625 00c1 0400     		.2byte	0x4
ARM GAS  C:\Users\scott\AppData\Local\Temp\cciBmnUj.s 			page 101


 3626 00c3 F3       		.byte	0xf3
 3627 00c4 01       		.uleb128 0x1
 3628 00c5 53       		.byte	0x53
 3629 00c6 9F       		.byte	0x9f
 3630 00c7 98000000 		.4byte	.LVL28
 3631 00cb 9A000000 		.4byte	.LVL29
 3632 00cf 0100     		.2byte	0x1
 3633 00d1 53       		.byte	0x53
 3634 00d2 9A000000 		.4byte	.LVL29
 3635 00d6 AE000000 		.4byte	.LVL31
 3636 00da 0400     		.2byte	0x4
 3637 00dc F3       		.byte	0xf3
 3638 00dd 01       		.uleb128 0x1
 3639 00de 53       		.byte	0x53
 3640 00df 9F       		.byte	0x9f
 3641 00e0 AE000000 		.4byte	.LVL31
 3642 00e4 B3000000 		.4byte	.LVL33-1
 3643 00e8 0100     		.2byte	0x1
 3644 00ea 53       		.byte	0x53
 3645 00eb B3000000 		.4byte	.LVL33-1
 3646 00ef DC000000 		.4byte	.LFE21
 3647 00f3 0400     		.2byte	0x4
 3648 00f5 F3       		.byte	0xf3
 3649 00f6 01       		.uleb128 0x1
 3650 00f7 53       		.byte	0x53
 3651 00f8 9F       		.byte	0x9f
 3652 00f9 00000000 		.4byte	0
 3653 00fd 00000000 		.4byte	0
 3654              	.LLST4:
 3655 0101 00000000 		.4byte	.LVL0
 3656 0105 AE000000 		.4byte	.LVL31
 3657 0109 0200     		.2byte	0x2
 3658 010b 91       		.byte	0x91
 3659 010c 00       		.sleb128 0
 3660 010d AE000000 		.4byte	.LVL31
 3661 0111 B6000000 		.4byte	.LVL34
 3662 0115 0200     		.2byte	0x2
 3663 0117 91       		.byte	0x91
 3664 0118 00       		.sleb128 0
 3665 0119 B6000000 		.4byte	.LVL34
 3666 011d DC000000 		.4byte	.LFE21
 3667 0121 0200     		.2byte	0x2
 3668 0123 7D       		.byte	0x7d
 3669 0124 00       		.sleb128 0
 3670 0125 00000000 		.4byte	0
 3671 0129 00000000 		.4byte	0
 3672              	.LLST5:
 3673 012d 28000000 		.4byte	.LVL2
 3674 0131 2A000000 		.4byte	.LVL3
 3675 0135 0100     		.2byte	0x1
 3676 0137 50       		.byte	0x50
 3677 0138 30000000 		.4byte	.LVL4
 3678 013c 32000000 		.4byte	.LVL5
 3679 0140 0100     		.2byte	0x1
 3680 0142 50       		.byte	0x50
 3681 0143 3C000000 		.4byte	.LVL6
 3682 0147 3E000000 		.4byte	.LVL7
ARM GAS  C:\Users\scott\AppData\Local\Temp\cciBmnUj.s 			page 102


 3683 014b 0100     		.2byte	0x1
 3684 014d 50       		.byte	0x50
 3685 014e 44000000 		.4byte	.LVL8
 3686 0152 46000000 		.4byte	.LVL9
 3687 0156 0100     		.2byte	0x1
 3688 0158 50       		.byte	0x50
 3689 0159 50000000 		.4byte	.LVL10
 3690 015d 52000000 		.4byte	.LVL11
 3691 0161 0100     		.2byte	0x1
 3692 0163 50       		.byte	0x50
 3693 0164 58000000 		.4byte	.LVL12
 3694 0168 5A000000 		.4byte	.LVL13
 3695 016c 0100     		.2byte	0x1
 3696 016e 50       		.byte	0x50
 3697 016f 64000000 		.4byte	.LVL14
 3698 0173 66000000 		.4byte	.LVL15
 3699 0177 0100     		.2byte	0x1
 3700 0179 50       		.byte	0x50
 3701 017a 6C000000 		.4byte	.LVL16
 3702 017e 6E000000 		.4byte	.LVL17
 3703 0182 0100     		.2byte	0x1
 3704 0184 50       		.byte	0x50
 3705 0185 70000000 		.4byte	.LVL18
 3706 0189 8E000000 		.4byte	.LVL26
 3707 018d 0100     		.2byte	0x1
 3708 018f 50       		.byte	0x50
 3709 0190 98000000 		.4byte	.LVL28
 3710 0194 A4000000 		.4byte	.LVL30
 3711 0198 0100     		.2byte	0x1
 3712 019a 50       		.byte	0x50
 3713 019b 00000000 		.4byte	0
 3714 019f 00000000 		.4byte	0
 3715              	.LLST6:
 3716 01a3 74000000 		.4byte	.LVL19
 3717 01a7 78000000 		.4byte	.LVL20
 3718 01ab 0100     		.2byte	0x1
 3719 01ad 51       		.byte	0x51
 3720 01ae 00000000 		.4byte	0
 3721 01b2 00000000 		.4byte	0
 3722              	.LLST7:
 3723 01b6 7C000000 		.4byte	.LVL22
 3724 01ba 84000000 		.4byte	.LVL23
 3725 01be 0100     		.2byte	0x1
 3726 01c0 52       		.byte	0x52
 3727 01c1 84000000 		.4byte	.LVL23
 3728 01c5 88000000 		.4byte	.LVL24
 3729 01c9 0100     		.2byte	0x1
 3730 01cb 51       		.byte	0x51
 3731 01cc 8A000000 		.4byte	.LVL25
 3732 01d0 AE000000 		.4byte	.LVL31
 3733 01d4 0100     		.2byte	0x1
 3734 01d6 52       		.byte	0x52
 3735 01d7 00000000 		.4byte	0
 3736 01db 00000000 		.4byte	0
 3737              	.LLST8:
 3738 01df 78000000 		.4byte	.LVL20
 3739 01e3 7A000000 		.4byte	.LVL21
ARM GAS  C:\Users\scott\AppData\Local\Temp\cciBmnUj.s 			page 103


 3740 01e7 0100     		.2byte	0x1
 3741 01e9 51       		.byte	0x51
 3742 01ea 00000000 		.4byte	0
 3743 01ee 00000000 		.4byte	0
 3744              	.LLST9:
 3745 01f2 00000000 		.4byte	.LVL35
 3746 01f6 07000000 		.4byte	.LVL36-1
 3747 01fa 0100     		.2byte	0x1
 3748 01fc 50       		.byte	0x50
 3749 01fd 07000000 		.4byte	.LVL36-1
 3750 0201 4C000000 		.4byte	.LFE22
 3751 0205 0400     		.2byte	0x4
 3752 0207 F3       		.byte	0xf3
 3753 0208 01       		.uleb128 0x1
 3754 0209 50       		.byte	0x50
 3755 020a 9F       		.byte	0x9f
 3756 020b 00000000 		.4byte	0
 3757 020f 00000000 		.4byte	0
 3758              	.LLST10:
 3759 0213 0A000000 		.4byte	.LVL37
 3760 0217 40000000 		.4byte	.LVL40
 3761 021b 0100     		.2byte	0x1
 3762 021d 56       		.byte	0x56
 3763 021e 00000000 		.4byte	0
 3764 0222 00000000 		.4byte	0
 3765              	.LLST11:
 3766 0226 00000000 		.4byte	.LVL41
 3767 022a 80000000 		.4byte	.LVL42
 3768 022e 0100     		.2byte	0x1
 3769 0230 50       		.byte	0x50
 3770 0231 80000000 		.4byte	.LVL42
 3771 0235 C4000000 		.4byte	.LVL48
 3772 0239 0400     		.2byte	0x4
 3773 023b F3       		.byte	0xf3
 3774 023c 01       		.uleb128 0x1
 3775 023d 50       		.byte	0x50
 3776 023e 9F       		.byte	0x9f
 3777 023f C4000000 		.4byte	.LVL48
 3778 0243 E8000000 		.4byte	.LFE19
 3779 0247 0100     		.2byte	0x1
 3780 0249 50       		.byte	0x50
 3781 024a 00000000 		.4byte	0
 3782 024e 00000000 		.4byte	0
 3783              	.LLST12:
 3784 0252 08000000 		.4byte	.LVL55
 3785 0256 B2000000 		.4byte	.LVL59
 3786 025a 0100     		.2byte	0x1
 3787 025c 56       		.byte	0x56
 3788 025d 00000000 		.4byte	0
 3789 0261 00000000 		.4byte	0
 3790              	.LLST13:
 3791 0265 08000000 		.4byte	.LVL63
 3792 0269 CE000000 		.4byte	.LVL66
 3793 026d 0100     		.2byte	0x1
 3794 026f 56       		.byte	0x56
 3795 0270 00000000 		.4byte	0
 3796 0274 00000000 		.4byte	0
ARM GAS  C:\Users\scott\AppData\Local\Temp\cciBmnUj.s 			page 104


 3797              	.LLST14:
 3798 0278 00000000 		.4byte	.LVL67
 3799 027c 0A000000 		.4byte	.LVL69
 3800 0280 0100     		.2byte	0x1
 3801 0282 50       		.byte	0x50
 3802 0283 0A000000 		.4byte	.LVL69
 3803 0287 18000000 		.4byte	.LFE4
 3804 028b 0400     		.2byte	0x4
 3805 028d F3       		.byte	0xf3
 3806 028e 01       		.uleb128 0x1
 3807 028f 50       		.byte	0x50
 3808 0290 9F       		.byte	0x9f
 3809 0291 00000000 		.4byte	0
 3810 0295 00000000 		.4byte	0
 3811              	.LLST15:
 3812 0299 08000000 		.4byte	.LVL68
 3813 029d 10000000 		.4byte	.LVL70
 3814 02a1 0100     		.2byte	0x1
 3815 02a3 53       		.byte	0x53
 3816 02a4 10000000 		.4byte	.LVL70
 3817 02a8 18000000 		.4byte	.LFE4
 3818 02ac 0100     		.2byte	0x1
 3819 02ae 50       		.byte	0x50
 3820 02af 00000000 		.4byte	0
 3821 02b3 00000000 		.4byte	0
 3822              	.LLST16:
 3823 02b7 00000000 		.4byte	.LVL71
 3824 02bb 0C000000 		.4byte	.LVL73
 3825 02bf 0100     		.2byte	0x1
 3826 02c1 50       		.byte	0x50
 3827 02c2 0C000000 		.4byte	.LVL73
 3828 02c6 18000000 		.4byte	.LFE5
 3829 02ca 0400     		.2byte	0x4
 3830 02cc F3       		.byte	0xf3
 3831 02cd 01       		.uleb128 0x1
 3832 02ce 50       		.byte	0x50
 3833 02cf 9F       		.byte	0x9f
 3834 02d0 00000000 		.4byte	0
 3835 02d4 00000000 		.4byte	0
 3836              	.LLST17:
 3837 02d8 08000000 		.4byte	.LVL72
 3838 02dc 0E000000 		.4byte	.LVL74
 3839 02e0 0100     		.2byte	0x1
 3840 02e2 53       		.byte	0x53
 3841 02e3 0E000000 		.4byte	.LVL74
 3842 02e7 18000000 		.4byte	.LFE5
 3843 02eb 0100     		.2byte	0x1
 3844 02ed 50       		.byte	0x50
 3845 02ee 00000000 		.4byte	0
 3846 02f2 00000000 		.4byte	0
 3847              	.LLST18:
 3848 02f6 00000000 		.4byte	.LVL75
 3849 02fa 10000000 		.4byte	.LVL77
 3850 02fe 0100     		.2byte	0x1
 3851 0300 50       		.byte	0x50
 3852 0301 10000000 		.4byte	.LVL77
 3853 0305 24000000 		.4byte	.LVL81
ARM GAS  C:\Users\scott\AppData\Local\Temp\cciBmnUj.s 			page 105


 3854 0309 0100     		.2byte	0x1
 3855 030b 54       		.byte	0x54
 3856 030c 24000000 		.4byte	.LVL81
 3857 0310 74000000 		.4byte	.LFE6
 3858 0314 0600     		.2byte	0x6
 3859 0316 F3       		.byte	0xf3
 3860 0317 03       		.uleb128 0x3
 3861 0318 F5       		.byte	0xf5
 3862 0319 00       		.uleb128 0
 3863 031a 25       		.uleb128 0x25
 3864 031b 9F       		.byte	0x9f
 3865 031c 00000000 		.4byte	0
 3866 0320 00000000 		.4byte	0
 3867              	.LLST19:
 3868 0324 0A000000 		.4byte	.LVL76
 3869 0328 13000000 		.4byte	.LVL78-1
 3870 032c 0A00     		.2byte	0xa
 3871 032e 73       		.byte	0x73
 3872 032f 00       		.sleb128 0
 3873 0330 32       		.byte	0x32
 3874 0331 24       		.byte	0x24
 3875 0332 03       		.byte	0x3
 3876 0333 00000000 		.4byte	.LANCHOR0
 3877 0337 22       		.byte	0x22
 3878 0338 44000000 		.4byte	.LVL86
 3879 033c 56000000 		.4byte	.LVL88
 3880 0340 0100     		.2byte	0x1
 3881 0342 50       		.byte	0x50
 3882 0343 56000000 		.4byte	.LVL88
 3883 0347 58000000 		.4byte	.LVL89
 3884 034b 0700     		.2byte	0x7
 3885 034d 73       		.byte	0x73
 3886 034e 00       		.sleb128 0
 3887 034f 32       		.byte	0x32
 3888 0350 24       		.byte	0x24
 3889 0351 72       		.byte	0x72
 3890 0352 00       		.sleb128 0
 3891 0353 22       		.byte	0x22
 3892 0354 00000000 		.4byte	0
 3893 0358 00000000 		.4byte	0
 3894              	.LLST20:
 3895 035c 54000000 		.4byte	.LVL87
 3896 0360 58000000 		.4byte	.LVL89
 3897 0364 0200     		.2byte	0x2
 3898 0366 30       		.byte	0x30
 3899 0367 9F       		.byte	0x9f
 3900 0368 5A000000 		.4byte	.LVL90
 3901 036c 74000000 		.4byte	.LFE6
 3902 0370 0100     		.2byte	0x1
 3903 0372 50       		.byte	0x50
 3904 0373 00000000 		.4byte	0
 3905 0377 00000000 		.4byte	0
 3906              	.LLST21:
 3907 037b 1C000000 		.4byte	.LVL79
 3908 037f 21000000 		.4byte	.LVL80-1
 3909 0383 0100     		.2byte	0x1
 3910 0385 50       		.byte	0x50
ARM GAS  C:\Users\scott\AppData\Local\Temp\cciBmnUj.s 			page 106


 3911 0386 24000000 		.4byte	.LVL81
 3912 038a 27000000 		.4byte	.LVL82-1
 3913 038e 0100     		.2byte	0x1
 3914 0390 50       		.byte	0x50
 3915 0391 27000000 		.4byte	.LVL82-1
 3916 0395 3E000000 		.4byte	.LVL84
 3917 0399 0100     		.2byte	0x1
 3918 039b 54       		.byte	0x54
 3919 039c 3E000000 		.4byte	.LVL84
 3920 03a0 41000000 		.4byte	.LVL85-1
 3921 03a4 0100     		.2byte	0x1
 3922 03a6 50       		.byte	0x50
 3923 03a7 58000000 		.4byte	.LVL89
 3924 03ab 5C000000 		.4byte	.LVL91
 3925 03af 0100     		.2byte	0x1
 3926 03b1 54       		.byte	0x54
 3927 03b2 00000000 		.4byte	0
 3928 03b6 00000000 		.4byte	0
 3929              	.LLST22:
 3930 03ba 06000000 		.4byte	.LVL92
 3931 03be 14000000 		.4byte	.LVL94
 3932 03c2 0100     		.2byte	0x1
 3933 03c4 53       		.byte	0x53
 3934 03c5 00000000 		.4byte	0
 3935 03c9 00000000 		.4byte	0
 3936              	.LLST23:
 3937 03cd 0C000000 		.4byte	.LVL93
 3938 03d1 16000000 		.4byte	.LVL95
 3939 03d5 0100     		.2byte	0x1
 3940 03d7 50       		.byte	0x50
 3941 03d8 18000000 		.4byte	.LVL96
 3942 03dc 24000000 		.4byte	.LFE7
 3943 03e0 0100     		.2byte	0x1
 3944 03e2 50       		.byte	0x50
 3945 03e3 00000000 		.4byte	0
 3946 03e7 00000000 		.4byte	0
 3947              	.LLST24:
 3948 03eb 00000000 		.4byte	.LVL97
 3949 03ef 24000000 		.4byte	.LVL101
 3950 03f3 0100     		.2byte	0x1
 3951 03f5 50       		.byte	0x50
 3952 03f6 24000000 		.4byte	.LVL101
 3953 03fa 30000000 		.4byte	.LFE10
 3954 03fe 0400     		.2byte	0x4
 3955 0400 F3       		.byte	0xf3
 3956 0401 01       		.uleb128 0x1
 3957 0402 50       		.byte	0x50
 3958 0403 9F       		.byte	0x9f
 3959 0404 00000000 		.4byte	0
 3960 0408 00000000 		.4byte	0
 3961              	.LLST25:
 3962 040c 10000000 		.4byte	.LVL98
 3963 0410 12000000 		.4byte	.LVL99
 3964 0414 0100     		.2byte	0x1
 3965 0416 53       		.byte	0x53
 3966 0417 1A000000 		.4byte	.LVL100
 3967 041b 30000000 		.4byte	.LFE10
ARM GAS  C:\Users\scott\AppData\Local\Temp\cciBmnUj.s 			page 107


 3968 041f 0100     		.2byte	0x1
 3969 0421 53       		.byte	0x53
 3970 0422 00000000 		.4byte	0
 3971 0426 00000000 		.4byte	0
 3972              	.LLST26:
 3973 042a 08000000 		.4byte	.LVL102
 3974 042e 14000000 		.4byte	.LVL104
 3975 0432 0100     		.2byte	0x1
 3976 0434 53       		.byte	0x53
 3977 0435 18000000 		.4byte	.LVL105
 3978 0439 1E000000 		.4byte	.LVL106
 3979 043d 0100     		.2byte	0x1
 3980 043f 53       		.byte	0x53
 3981 0440 00000000 		.4byte	0
 3982 0444 00000000 		.4byte	0
 3983              	.LLST27:
 3984 0448 12000000 		.4byte	.LVL109
 3985 044c 14000000 		.4byte	.LVL110
 3986 0450 0100     		.2byte	0x1
 3987 0452 50       		.byte	0x50
 3988 0453 18000000 		.4byte	.LVL111
 3989 0457 20000000 		.4byte	.LVL112
 3990 045b 0100     		.2byte	0x1
 3991 045d 52       		.byte	0x52
 3992 045e 20000000 		.4byte	.LVL112
 3993 0462 50000000 		.4byte	.LFE12
 3994 0466 0100     		.2byte	0x1
 3995 0468 50       		.byte	0x50
 3996 0469 00000000 		.4byte	0
 3997 046d 00000000 		.4byte	0
 3998              	.LLST28:
 3999 0471 08000000 		.4byte	.LVL107
 4000 0475 0E000000 		.4byte	.LVL108
 4001 0479 0100     		.2byte	0x1
 4002 047b 53       		.byte	0x53
 4003 047c 14000000 		.4byte	.LVL110
 4004 0480 26000000 		.4byte	.LVL113
 4005 0484 0100     		.2byte	0x1
 4006 0486 53       		.byte	0x53
 4007 0487 00000000 		.4byte	0
 4008 048b 00000000 		.4byte	0
 4009              	.LLST29:
 4010 048f 10000000 		.4byte	.LVL116
 4011 0493 1A000000 		.4byte	.LVL117
 4012 0497 0700     		.2byte	0x7
 4013 0499 70       		.byte	0x70
 4014 049a 00       		.sleb128 0
 4015 049b 0A       		.byte	0xa
 4016 049c FFFF     		.2byte	0xffff
 4017 049e 1A       		.byte	0x1a
 4018 049f 9F       		.byte	0x9f
 4019 04a0 1A000000 		.4byte	.LVL117
 4020 04a4 1C000000 		.4byte	.LVL118
 4021 04a8 0100     		.2byte	0x1
 4022 04aa 50       		.byte	0x50
 4023 04ab 24000000 		.4byte	.LVL120
 4024 04af 2C000000 		.4byte	.LVL121
ARM GAS  C:\Users\scott\AppData\Local\Temp\cciBmnUj.s 			page 108


 4025 04b3 0700     		.2byte	0x7
 4026 04b5 70       		.byte	0x70
 4027 04b6 00       		.sleb128 0
 4028 04b7 0A       		.byte	0xa
 4029 04b8 FFFF     		.2byte	0xffff
 4030 04ba 1A       		.byte	0x1a
 4031 04bb 9F       		.byte	0x9f
 4032 04bc 2C000000 		.4byte	.LVL121
 4033 04c0 34000000 		.4byte	.LVL122
 4034 04c4 0100     		.2byte	0x1
 4035 04c6 53       		.byte	0x53
 4036 04c7 34000000 		.4byte	.LVL122
 4037 04cb 36000000 		.4byte	.LVL123
 4038 04cf 0100     		.2byte	0x1
 4039 04d1 50       		.byte	0x50
 4040 04d2 3C000000 		.4byte	.LVL125
 4041 04d6 44000000 		.4byte	.LVL126
 4042 04da 0100     		.2byte	0x1
 4043 04dc 53       		.byte	0x53
 4044 04dd 44000000 		.4byte	.LVL126
 4045 04e1 6C000000 		.4byte	.LFE13
 4046 04e5 0100     		.2byte	0x1
 4047 04e7 50       		.byte	0x50
 4048 04e8 00000000 		.4byte	0
 4049 04ec 00000000 		.4byte	0
 4050              	.LLST30:
 4051 04f0 08000000 		.4byte	.LVL114
 4052 04f4 0E000000 		.4byte	.LVL115
 4053 04f8 0100     		.2byte	0x1
 4054 04fa 53       		.byte	0x53
 4055 04fb 1C000000 		.4byte	.LVL118
 4056 04ff 22000000 		.4byte	.LVL119
 4057 0503 0100     		.2byte	0x1
 4058 0505 53       		.byte	0x53
 4059 0506 36000000 		.4byte	.LVL123
 4060 050a 38000000 		.4byte	.LVL124
 4061 050e 0100     		.2byte	0x1
 4062 0510 53       		.byte	0x53
 4063 0511 00000000 		.4byte	0
 4064 0515 00000000 		.4byte	0
 4065              	.LLST31:
 4066 0519 00000000 		.4byte	.LVL129
 4067 051d 06000000 		.4byte	.LVL130
 4068 0521 0100     		.2byte	0x1
 4069 0523 50       		.byte	0x50
 4070 0524 06000000 		.4byte	.LVL130
 4071 0528 0E000000 		.4byte	.LVL131
 4072 052c 0100     		.2byte	0x1
 4073 052e 50       		.byte	0x50
 4074 052f 00000000 		.4byte	0
 4075 0533 00000000 		.4byte	0
 4076              	.LLST32:
 4077 0537 00000000 		.4byte	.LVL133
 4078 053b 06000000 		.4byte	.LVL134
 4079 053f 0100     		.2byte	0x1
 4080 0541 50       		.byte	0x50
 4081 0542 06000000 		.4byte	.LVL134
ARM GAS  C:\Users\scott\AppData\Local\Temp\cciBmnUj.s 			page 109


 4082 0546 08000000 		.4byte	.LVL135
 4083 054a 0600     		.2byte	0x6
 4084 054c 70       		.byte	0x70
 4085 054d 00       		.sleb128 0
 4086 054e 73       		.byte	0x73
 4087 054f 00       		.sleb128 0
 4088 0550 1C       		.byte	0x1c
 4089 0551 9F       		.byte	0x9f
 4090 0552 08000000 		.4byte	.LVL135
 4091 0556 0B000000 		.4byte	.LVL136-1
 4092 055a 0100     		.2byte	0x1
 4093 055c 50       		.byte	0x50
 4094 055d 00000000 		.4byte	0
 4095 0561 00000000 		.4byte	0
 4096              	.LLST33:
 4097 0565 00000000 		.4byte	.LVL139
 4098 0569 50000000 		.4byte	.LVL146
 4099 056d 0100     		.2byte	0x1
 4100 056f 50       		.byte	0x50
 4101 0570 50000000 		.4byte	.LVL146
 4102 0574 78000000 		.4byte	.LFE18
 4103 0578 0400     		.2byte	0x4
 4104 057a F3       		.byte	0xf3
 4105 057b 01       		.uleb128 0x1
 4106 057c 50       		.byte	0x50
 4107 057d 9F       		.byte	0x9f
 4108 057e 00000000 		.4byte	0
 4109 0582 00000000 		.4byte	0
 4110              	.LLST34:
 4111 0586 60000000 		.4byte	.LVL147
 4112 058a 62000000 		.4byte	.LVL148
 4113 058e 0600     		.2byte	0x6
 4114 0590 73       		.byte	0x73
 4115 0591 00       		.sleb128 0
 4116 0592 70       		.byte	0x70
 4117 0593 00       		.sleb128 0
 4118 0594 1C       		.byte	0x1c
 4119 0595 9F       		.byte	0x9f
 4120 0596 62000000 		.4byte	.LVL148
 4121 059a 78000000 		.4byte	.LFE18
 4122 059e 0100     		.2byte	0x1
 4123 05a0 50       		.byte	0x50
 4124 05a1 00000000 		.4byte	0
 4125 05a5 00000000 		.4byte	0
 4126              	.LLST35:
 4127 05a9 36000000 		.4byte	.LVL141
 4128 05ad 3C000000 		.4byte	.LVL142
 4129 05b1 0600     		.2byte	0x6
 4130 05b3 0C       		.byte	0xc
 4131 05b4 40420F00 		.4byte	0xf4240
 4132 05b8 9F       		.byte	0x9f
 4133 05b9 44000000 		.4byte	.LVL143
 4134 05bd 64000000 		.4byte	.LVL149
 4135 05c1 0100     		.2byte	0x1
 4136 05c3 54       		.byte	0x54
 4137 05c4 00000000 		.4byte	0
 4138 05c8 00000000 		.4byte	0
ARM GAS  C:\Users\scott\AppData\Local\Temp\cciBmnUj.s 			page 110


 4139              	.LLST36:
 4140 05cc 36000000 		.4byte	.LVL141
 4141 05d0 3C000000 		.4byte	.LVL142
 4142 05d4 0200     		.2byte	0x2
 4143 05d6 31       		.byte	0x31
 4144 05d7 9F       		.byte	0x9f
 4145 05d8 44000000 		.4byte	.LVL143
 4146 05dc 78000000 		.4byte	.LFE18
 4147 05e0 0100     		.2byte	0x1
 4148 05e2 51       		.byte	0x51
 4149 05e3 00000000 		.4byte	0
 4150 05e7 00000000 		.4byte	0
 4151              	.LLST37:
 4152 05eb 24000000 		.4byte	.LVL140
 4153 05ef 46000000 		.4byte	.LVL144
 4154 05f3 0100     		.2byte	0x1
 4155 05f5 53       		.byte	0x53
 4156 05f6 00000000 		.4byte	0
 4157 05fa 00000000 		.4byte	0
 4158              	.LLST38:
 4159 05fe 00000000 		.4byte	.LVL150
 4160 0602 1D000000 		.4byte	.LVL151-1
 4161 0606 0100     		.2byte	0x1
 4162 0608 50       		.byte	0x50
 4163 0609 1D000000 		.4byte	.LVL151-1
 4164 060d 48000000 		.4byte	.LVL155
 4165 0611 0400     		.2byte	0x4
 4166 0613 F3       		.byte	0xf3
 4167 0614 01       		.uleb128 0x1
 4168 0615 50       		.byte	0x50
 4169 0616 9F       		.byte	0x9f
 4170 0617 48000000 		.4byte	.LVL155
 4171 061b 4A000000 		.4byte	.LVL156
 4172 061f 0100     		.2byte	0x1
 4173 0621 50       		.byte	0x50
 4174 0622 4A000000 		.4byte	.LVL156
 4175 0626 60000000 		.4byte	.LFE20
 4176 062a 0400     		.2byte	0x4
 4177 062c F3       		.byte	0xf3
 4178 062d 01       		.uleb128 0x1
 4179 062e 50       		.byte	0x50
 4180 062f 9F       		.byte	0x9f
 4181 0630 00000000 		.4byte	0
 4182 0634 00000000 		.4byte	0
 4183              	.LLST39:
 4184 0638 00000000 		.4byte	.LVL150
 4185 063c 1D000000 		.4byte	.LVL151-1
 4186 0640 0100     		.2byte	0x1
 4187 0642 51       		.byte	0x51
 4188 0643 1D000000 		.4byte	.LVL151-1
 4189 0647 48000000 		.4byte	.LVL155
 4190 064b 0400     		.2byte	0x4
 4191 064d F3       		.byte	0xf3
 4192 064e 01       		.uleb128 0x1
 4193 064f 51       		.byte	0x51
 4194 0650 9F       		.byte	0x9f
 4195 0651 48000000 		.4byte	.LVL155
ARM GAS  C:\Users\scott\AppData\Local\Temp\cciBmnUj.s 			page 111


 4196 0655 4D000000 		.4byte	.LVL157-1
 4197 0659 0100     		.2byte	0x1
 4198 065b 51       		.byte	0x51
 4199 065c 4D000000 		.4byte	.LVL157-1
 4200 0660 60000000 		.4byte	.LFE20
 4201 0664 0400     		.2byte	0x4
 4202 0666 F3       		.byte	0xf3
 4203 0667 01       		.uleb128 0x1
 4204 0668 51       		.byte	0x51
 4205 0669 9F       		.byte	0x9f
 4206 066a 00000000 		.4byte	0
 4207 066e 00000000 		.4byte	0
 4208              	.LLST40:
 4209 0672 1C000000 		.4byte	.LVL161
 4210 0676 24000000 		.4byte	.LVL163
 4211 067a 0100     		.2byte	0x1
 4212 067c 54       		.byte	0x54
 4213 067d 00000000 		.4byte	0
 4214 0681 00000000 		.4byte	0
 4215              	.LLST41:
 4216 0685 1C000000 		.4byte	.LVL167
 4217 0689 24000000 		.4byte	.LVL169
 4218 068d 0100     		.2byte	0x1
 4219 068f 54       		.byte	0x54
 4220 0690 00000000 		.4byte	0
 4221 0694 00000000 		.4byte	0
 4222              	.LLST42:
 4223 0698 1C000000 		.4byte	.LVL173
 4224 069c 1F000000 		.4byte	.LVL174-1
 4225 06a0 0100     		.2byte	0x1
 4226 06a2 50       		.byte	0x50
 4227 06a3 1F000000 		.4byte	.LVL174-1
 4228 06a7 24000000 		.4byte	.LVL175
 4229 06ab 0100     		.2byte	0x1
 4230 06ad 54       		.byte	0x54
 4231 06ae 24000000 		.4byte	.LVL175
 4232 06b2 28000000 		.4byte	.LFE25
 4233 06b6 0100     		.2byte	0x1
 4234 06b8 50       		.byte	0x50
 4235 06b9 00000000 		.4byte	0
 4236 06bd 00000000 		.4byte	0
 4237              		.section	.debug_aranges,"",%progbits
 4238 0000 E4000000 		.4byte	0xe4
 4239 0004 0200     		.2byte	0x2
 4240 0006 00000000 		.4byte	.Ldebug_info0
 4241 000a 04       		.byte	0x4
 4242 000b 00       		.byte	0
 4243 000c 0000     		.2byte	0
 4244 000e 0000     		.2byte	0
 4245 0010 00000000 		.4byte	.LFB21
 4246 0014 DC000000 		.4byte	.LFE21-.LFB21
 4247 0018 00000000 		.4byte	.LFB22
 4248 001c 4C000000 		.4byte	.LFE22-.LFB22
 4249 0020 00000000 		.4byte	.LFB19
 4250 0024 E8000000 		.4byte	.LFE19-.LFB19
 4251 0028 00000000 		.4byte	.LFB0
 4252 002c C4000000 		.4byte	.LFE0-.LFB0
ARM GAS  C:\Users\scott\AppData\Local\Temp\cciBmnUj.s 			page 112


 4253 0030 00000000 		.4byte	.LFB1
 4254 0034 D8000000 		.4byte	.LFE1-.LFB1
 4255 0038 00000000 		.4byte	.LFB2
 4256 003c 28000000 		.4byte	.LFE2-.LFB2
 4257 0040 00000000 		.4byte	.LFB3
 4258 0044 E4000000 		.4byte	.LFE3-.LFB3
 4259 0048 00000000 		.4byte	.LFB4
 4260 004c 18000000 		.4byte	.LFE4-.LFB4
 4261 0050 00000000 		.4byte	.LFB5
 4262 0054 18000000 		.4byte	.LFE5-.LFB5
 4263 0058 00000000 		.4byte	.LFB6
 4264 005c 74000000 		.4byte	.LFE6-.LFB6
 4265 0060 00000000 		.4byte	.LFB7
 4266 0064 24000000 		.4byte	.LFE7-.LFB7
 4267 0068 00000000 		.4byte	.LFB8
 4268 006c 10000000 		.4byte	.LFE8-.LFB8
 4269 0070 00000000 		.4byte	.LFB9
 4270 0074 10000000 		.4byte	.LFE9-.LFB9
 4271 0078 00000000 		.4byte	.LFB10
 4272 007c 30000000 		.4byte	.LFE10-.LFB10
 4273 0080 00000000 		.4byte	.LFB11
 4274 0084 48000000 		.4byte	.LFE11-.LFB11
 4275 0088 00000000 		.4byte	.LFB12
 4276 008c 50000000 		.4byte	.LFE12-.LFB12
 4277 0090 00000000 		.4byte	.LFB13
 4278 0094 6C000000 		.4byte	.LFE13-.LFB13
 4279 0098 00000000 		.4byte	.LFB14
 4280 009c 0C000000 		.4byte	.LFE14-.LFB14
 4281 00a0 00000000 		.4byte	.LFB15
 4282 00a4 0C000000 		.4byte	.LFE15-.LFB15
 4283 00a8 00000000 		.4byte	.LFB16
 4284 00ac 24000000 		.4byte	.LFE16-.LFB16
 4285 00b0 00000000 		.4byte	.LFB17
 4286 00b4 28000000 		.4byte	.LFE17-.LFB17
 4287 00b8 00000000 		.4byte	.LFB18
 4288 00bc 78000000 		.4byte	.LFE18-.LFB18
 4289 00c0 00000000 		.4byte	.LFB20
 4290 00c4 60000000 		.4byte	.LFE20-.LFB20
 4291 00c8 00000000 		.4byte	.LFB23
 4292 00cc 28000000 		.4byte	.LFE23-.LFB23
 4293 00d0 00000000 		.4byte	.LFB24
 4294 00d4 28000000 		.4byte	.LFE24-.LFB24
 4295 00d8 00000000 		.4byte	.LFB25
 4296 00dc 28000000 		.4byte	.LFE25-.LFB25
 4297 00e0 00000000 		.4byte	0
 4298 00e4 00000000 		.4byte	0
 4299              		.section	.debug_ranges,"",%progbits
 4300              	.Ldebug_ranges0:
 4301 0000 00000000 		.4byte	.LFB21
 4302 0004 DC000000 		.4byte	.LFE21
 4303 0008 00000000 		.4byte	.LFB22
 4304 000c 4C000000 		.4byte	.LFE22
 4305 0010 00000000 		.4byte	.LFB19
 4306 0014 E8000000 		.4byte	.LFE19
 4307 0018 00000000 		.4byte	.LFB0
 4308 001c C4000000 		.4byte	.LFE0
 4309 0020 00000000 		.4byte	.LFB1
ARM GAS  C:\Users\scott\AppData\Local\Temp\cciBmnUj.s 			page 113


 4310 0024 D8000000 		.4byte	.LFE1
 4311 0028 00000000 		.4byte	.LFB2
 4312 002c 28000000 		.4byte	.LFE2
 4313 0030 00000000 		.4byte	.LFB3
 4314 0034 E4000000 		.4byte	.LFE3
 4315 0038 00000000 		.4byte	.LFB4
 4316 003c 18000000 		.4byte	.LFE4
 4317 0040 00000000 		.4byte	.LFB5
 4318 0044 18000000 		.4byte	.LFE5
 4319 0048 00000000 		.4byte	.LFB6
 4320 004c 74000000 		.4byte	.LFE6
 4321 0050 00000000 		.4byte	.LFB7
 4322 0054 24000000 		.4byte	.LFE7
 4323 0058 00000000 		.4byte	.LFB8
 4324 005c 10000000 		.4byte	.LFE8
 4325 0060 00000000 		.4byte	.LFB9
 4326 0064 10000000 		.4byte	.LFE9
 4327 0068 00000000 		.4byte	.LFB10
 4328 006c 30000000 		.4byte	.LFE10
 4329 0070 00000000 		.4byte	.LFB11
 4330 0074 48000000 		.4byte	.LFE11
 4331 0078 00000000 		.4byte	.LFB12
 4332 007c 50000000 		.4byte	.LFE12
 4333 0080 00000000 		.4byte	.LFB13
 4334 0084 6C000000 		.4byte	.LFE13
 4335 0088 00000000 		.4byte	.LFB14
 4336 008c 0C000000 		.4byte	.LFE14
 4337 0090 00000000 		.4byte	.LFB15
 4338 0094 0C000000 		.4byte	.LFE15
 4339 0098 00000000 		.4byte	.LFB16
 4340 009c 24000000 		.4byte	.LFE16
 4341 00a0 00000000 		.4byte	.LFB17
 4342 00a4 28000000 		.4byte	.LFE17
 4343 00a8 00000000 		.4byte	.LFB18
 4344 00ac 78000000 		.4byte	.LFE18
 4345 00b0 00000000 		.4byte	.LFB20
 4346 00b4 60000000 		.4byte	.LFE20
 4347 00b8 00000000 		.4byte	.LFB23
 4348 00bc 28000000 		.4byte	.LFE23
 4349 00c0 00000000 		.4byte	.LFB24
 4350 00c4 28000000 		.4byte	.LFE24
 4351 00c8 00000000 		.4byte	.LFB25
 4352 00cc 28000000 		.4byte	.LFE25
 4353 00d0 00000000 		.4byte	0
 4354 00d4 00000000 		.4byte	0
 4355              		.section	.debug_line,"",%progbits
 4356              	.Ldebug_line0:
 4357 0000 60030000 		.section	.debug_str,"MS",%progbits,1
 4357      02008700 
 4357      00000201 
 4357      FB0E0D00 
 4357      01010101 
 4358              	.LASF11:
 4359 0000 75696E74 		.ascii	"uint16\000"
 4359      313600
 4360              	.LASF67:
 4361 0007 61646347 		.ascii	"adcGain\000"
ARM GAS  C:\Users\scott\AppData\Local\Temp\cciBmnUj.s 			page 114


 4361      61696E00 
 4362              	.LASF64:
 4363 000f 5053495F 		.ascii	"PSI_SetOffset\000"
 4363      5365744F 
 4363      66667365 
 4363      7400
 4364              	.LASF27:
 4365 001d 696E7075 		.ascii	"inputRange\000"
 4365      7452616E 
 4365      676500
 4366              	.LASF58:
 4367 0028 5053495F 		.ascii	"PSI_IsEndConversion\000"
 4367      4973456E 
 4367      64436F6E 
 4367      76657273 
 4367      696F6E00 
 4368              	.LASF24:
 4369 003c 67636F72 		.ascii	"gcor\000"
 4369      00
 4370              	.LASF8:
 4371 0041 6C6F6E67 		.ascii	"long long unsigned int\000"
 4371      206C6F6E 
 4371      6720756E 
 4371      7369676E 
 4371      65642069 
 4372              	.LASF44:
 4373 0058 5053495F 		.ascii	"PSI_Stop\000"
 4373      53746F70 
 4373      00
 4374              	.LASF53:
 4375 0061 5053495F 		.ascii	"PSI_SetGCOR\000"
 4375      53657447 
 4375      434F5200 
 4376              	.LASF29:
 4377 006d 69646561 		.ascii	"idealOddDecGain\000"
 4377      6C4F6464 
 4377      44656347 
 4377      61696E00 
 4378              	.LASF36:
 4379 007d 5053495F 		.ascii	"PSI_GainCompensation\000"
 4379      4761696E 
 4379      436F6D70 
 4379      656E7361 
 4379      74696F6E 
 4380              	.LASF7:
 4381 0092 6C6F6E67 		.ascii	"long long int\000"
 4381      206C6F6E 
 4381      6720696E 
 4381      7400
 4382              	.LASF1:
 4383 00a0 7369676E 		.ascii	"signed char\000"
 4383      65642063 
 4383      68617200 
 4384              	.LASF87:
 4385 00ac 5053495F 		.ascii	"PSI_Config\000"
 4385      436F6E66 
 4385      696700
ARM GAS  C:\Users\scott\AppData\Local\Temp\cciBmnUj.s 			page 115


 4386              	.LASF66:
 4387 00b7 5053495F 		.ascii	"PSI_SetGain\000"
 4387      53657447 
 4387      61696E00 
 4388              	.LASF15:
 4389 00c3 696E7433 		.ascii	"int32\000"
 4389      3200
 4390              	.LASF5:
 4391 00c9 6C6F6E67 		.ascii	"long int\000"
 4391      20696E74 
 4391      00
 4392              	.LASF88:
 4393 00d2 5053495F 		.ascii	"PSI_Offset\000"
 4393      4F666673 
 4393      657400
 4394              	.LASF20:
 4395 00dd 72656731 		.ascii	"reg16\000"
 4395      3600
 4396              	.LASF10:
 4397 00e3 75696E74 		.ascii	"uint8\000"
 4397      3800
 4398              	.LASF92:
 4399 00e9 43794465 		.ascii	"CyDelayUs\000"
 4399      6C617955 
 4399      7300
 4400              	.LASF17:
 4401 00f3 646F7562 		.ascii	"double\000"
 4401      6C6500
 4402              	.LASF77:
 4403 00fa 5053495F 		.ascii	"PSI_SelectConfiguration\000"
 4403      53656C65 
 4403      6374436F 
 4403      6E666967 
 4403      75726174 
 4404              	.LASF72:
 4405 0112 566F6C74 		.ascii	"Volts\000"
 4405      7300
 4406              	.LASF12:
 4407 0118 75696E74 		.ascii	"uint32\000"
 4407      333200
 4408              	.LASF97:
 4409 011f 4379496E 		.ascii	"CyIntSetVector\000"
 4409      74536574 
 4409      56656374 
 4409      6F7200
 4410              	.LASF79:
 4411 012e 5053495F 		.ascii	"PSI_Read8\000"
 4411      52656164 
 4411      3800
 4412              	.LASF38:
 4413 0138 76616C75 		.ascii	"value\000"
 4413      6500
 4414              	.LASF59:
 4415 013e 7265744D 		.ascii	"retMode\000"
 4415      6F646500 
 4416              	.LASF71:
 4417 0146 5053495F 		.ascii	"PSI_CountsTo_Volts\000"
ARM GAS  C:\Users\scott\AppData\Local\Temp\cciBmnUj.s 			page 116


 4417      436F756E 
 4417      7473546F 
 4417      5F566F6C 
 4417      747300
 4418              	.LASF96:
 4419 0159 5053495F 		.ascii	"PSI_theACLK_SetDividerRegister\000"
 4419      74686541 
 4419      434C4B5F 
 4419      53657444 
 4419      69766964 
 4420              	.LASF81:
 4421 0178 5053495F 		.ascii	"PSI_Read32\000"
 4421      52656164 
 4421      333200
 4422              	.LASF9:
 4423 0183 756E7369 		.ascii	"unsigned int\000"
 4423      676E6564 
 4423      20696E74 
 4423      00
 4424              	.LASF63:
 4425 0190 5053495F 		.ascii	"PSI_GetResult32\000"
 4425      47657452 
 4425      6573756C 
 4425      74333200 
 4426              	.LASF74:
 4427 01a0 75566F6C 		.ascii	"uVolts\000"
 4427      747300
 4428              	.LASF6:
 4429 01a7 6C6F6E67 		.ascii	"long unsigned int\000"
 4429      20756E73 
 4429      69676E65 
 4429      6420696E 
 4429      7400
 4430              	.LASF56:
 4431 01b9 5053495F 		.ascii	"PSI_StartConvert\000"
 4431      53746172 
 4431      74436F6E 
 4431      76657274 
 4431      00
 4432              	.LASF91:
 4433 01ca 4379456E 		.ascii	"CyEnterCriticalSection\000"
 4433      74657243 
 4433      72697469 
 4433      63616C53 
 4433      65637469 
 4434              	.LASF98:
 4435 01e1 5053495F 		.ascii	"PSI_Ext_CP_Clk_SetModeRegister\000"
 4435      4578745F 
 4435      43505F43 
 4435      6C6B5F53 
 4435      65744D6F 
 4436              	.LASF4:
 4437 0200 73686F72 		.ascii	"short unsigned int\000"
 4437      7420756E 
 4437      7369676E 
 4437      65642069 
 4437      6E7400
ARM GAS  C:\Users\scott\AppData\Local\Temp\cciBmnUj.s 			page 117


 4438              	.LASF73:
 4439 0213 5053495F 		.ascii	"PSI_CountsTo_uVolts\000"
 4439      436F756E 
 4439      7473546F 
 4439      5F75566F 
 4439      6C747300 
 4440              	.LASF13:
 4441 0227 696E7438 		.ascii	"int8\000"
 4441      00
 4442              	.LASF48:
 4443 022c 5053495F 		.ascii	"PSI_SetCoherency\000"
 4443      53657443 
 4443      6F686572 
 4443      656E6379 
 4443      00
 4444              	.LASF54:
 4445 023d 5053495F 		.ascii	"PSI_ReadGCOR\000"
 4445      52656164 
 4445      47434F52 
 4445      00
 4446              	.LASF99:
 4447 024a 5053495F 		.ascii	"PSI_theACLK_SetModeRegister\000"
 4447      74686541 
 4447      434C4B5F 
 4447      5365744D 
 4447      6F646552 
 4448              	.LASF34:
 4449 0266 67636F72 		.ascii	"gcorValue\000"
 4449      56616C75 
 4449      6500
 4450              	.LASF68:
 4451 0270 5053495F 		.ascii	"PSI_CountsTo_mVolts\000"
 4451      436F756E 
 4451      7473546F 
 4451      5F6D566F 
 4451      6C747300 
 4452              	.LASF62:
 4453 0284 5053495F 		.ascii	"PSI_GetResult16\000"
 4453      47657452 
 4453      6573756C 
 4453      74313600 
 4454              	.LASF70:
 4455 0294 6D566F6C 		.ascii	"mVolts\000"
 4455      747300
 4456              	.LASF40:
 4457 029b 5053495F 		.ascii	"PSI_InitConfig\000"
 4457      496E6974 
 4457      436F6E66 
 4457      696700
 4458              	.LASF60:
 4459 02aa 5053495F 		.ascii	"PSI_GetResult8\000"
 4459      47657452 
 4459      6573756C 
 4459      743800
 4460              	.LASF32:
 4461 02b9 666C6173 		.ascii	"flash\000"
 4461      6800
ARM GAS  C:\Users\scott\AppData\Local\Temp\cciBmnUj.s 			page 118


 4462              	.LASF21:
 4463 02bf 72656733 		.ascii	"reg32\000"
 4463      3200
 4464              	.LASF16:
 4465 02c5 666C6F61 		.ascii	"float32\000"
 4465      74333200 
 4466              	.LASF41:
 4467 02cd 5053495F 		.ascii	"PSI_Init\000"
 4467      496E6974 
 4467      00
 4468              	.LASF23:
 4469 02d6 73697A65 		.ascii	"sizetype\000"
 4469      74797065 
 4469      00
 4470              	.LASF22:
 4471 02df 6C6F6E67 		.ascii	"long double\000"
 4471      20646F75 
 4471      626C6500 
 4472              	.LASF26:
 4473 02eb 5053495F 		.ascii	"PSI_GCOR_STRUCT\000"
 4473      47434F52 
 4473      5F535452 
 4473      55435400 
 4474              	.LASF80:
 4475 02fb 5053495F 		.ascii	"PSI_Read16\000"
 4475      52656164 
 4475      313600
 4476              	.LASF57:
 4477 0306 5053495F 		.ascii	"PSI_StopConvert\000"
 4477      53746F70 
 4477      436F6E76 
 4477      65727400 
 4478              	.LASF49:
 4479 0316 636F6865 		.ascii	"coherency\000"
 4479      72656E63 
 4479      7900
 4480              	.LASF43:
 4481 0320 5053495F 		.ascii	"PSI_Start\000"
 4481      53746172 
 4481      7400
 4482              	.LASF100:
 4483 032a 4379496E 		.ascii	"CyIntSetPriority\000"
 4483      74536574 
 4483      5072696F 
 4483      72697479 
 4483      00
 4484              	.LASF46:
 4485 033b 6761696E 		.ascii	"gain\000"
 4485      00
 4486              	.LASF103:
 4487 0340 583A5C70 		.ascii	"X:\\projects\\PVCC-Air-Handlers\\AHU_2.cydsn\000"
 4487      726F6A65 
 4487      6374735C 
 4487      50564343 
 4487      2D416972 
 4488              	.LASF0:
 4489 036a 666C6F61 		.ascii	"float\000"
ARM GAS  C:\Users\scott\AppData\Local\Temp\cciBmnUj.s 			page 119


 4489      7400
 4490              	.LASF93:
 4491 0370 43794578 		.ascii	"CyExitCriticalSection\000"
 4491      69744372 
 4491      69746963 
 4491      616C5365 
 4491      6374696F 
 4492              	.LASF42:
 4493 0386 5053495F 		.ascii	"PSI_Enable\000"
 4493      456E6162 
 4493      6C6500
 4494              	.LASF19:
 4495 0391 72656738 		.ascii	"reg8\000"
 4495      00
 4496              	.LASF28:
 4497 0396 69646561 		.ascii	"idealDecGain\000"
 4497      6C446563 
 4497      4761696E 
 4497      00
 4498              	.LASF33:
 4499 03a3 6E6F726D 		.ascii	"normalised\000"
 4499      616C6973 
 4499      656400
 4500              	.LASF90:
 4501 03ae 43794861 		.ascii	"CyHalt\000"
 4501      6C7400
 4502              	.LASF2:
 4503 03b5 756E7369 		.ascii	"unsigned char\000"
 4503      676E6564 
 4503      20636861 
 4503      7200
 4504              	.LASF3:
 4505 03c3 73686F72 		.ascii	"short int\000"
 4505      7420696E 
 4505      7400
 4506              	.LASF35:
 4507 03cd 67636F72 		.ascii	"gcorTmp\000"
 4507      546D7000 
 4508              	.LASF101:
 4509 03d5 474E5520 		.ascii	"GNU C11 5.4.1 20160609 (release) [ARM/embedded-5-br"
 4509      43313120 
 4509      352E342E 
 4509      31203230 
 4509      31363036 
 4510 0408 616E6368 		.ascii	"anch revision 237715] -mcpu=cortex-m3 -mthumb -g -O"
 4510      20726576 
 4510      6973696F 
 4510      6E203233 
 4510      37373135 
 4511 043b 67202D66 		.ascii	"g -ffunction-sections -ffat-lto-objects\000"
 4511      66756E63 
 4511      74696F6E 
 4511      2D736563 
 4511      74696F6E 
 4512              	.LASF30:
 4513 0463 7265736F 		.ascii	"resolution\000"
 4513      6C757469 
ARM GAS  C:\Users\scott\AppData\Local\Temp\cciBmnUj.s 			page 120


 4513      6F6E00
 4514              	.LASF75:
 4515 046e 636F6566 		.ascii	"coefA\000"
 4515      4100
 4516              	.LASF76:
 4517 0474 636F6566 		.ascii	"coefB\000"
 4517      4200
 4518              	.LASF18:
 4519 047a 63686172 		.ascii	"char\000"
 4519      00
 4520              	.LASF55:
 4521 047f 6756616C 		.ascii	"gValue\000"
 4521      756500
 4522              	.LASF31:
 4523 0486 636F6E66 		.ascii	"config\000"
 4523      696700
 4524              	.LASF25:
 4525 048d 6776616C 		.ascii	"gval\000"
 4525      00
 4526              	.LASF89:
 4527 0492 5053495F 		.ascii	"PSI_CountsPerVolt\000"
 4527      436F756E 
 4527      74735065 
 4527      72566F6C 
 4527      7400
 4528              	.LASF102:
 4529 04a4 47656E65 		.ascii	"Generated_Source\\PSoC5\\PSI.c\000"
 4529      72617465 
 4529      645F536F 
 4529      75726365 
 4529      5C50536F 
 4530              	.LASF78:
 4531 04c1 72657374 		.ascii	"restart\000"
 4531      61727400 
 4532              	.LASF52:
 4533 04c9 746D7056 		.ascii	"tmpValue\000"
 4533      616C7565 
 4533      00
 4534              	.LASF65:
 4535 04d2 6F666673 		.ascii	"offset\000"
 4535      657400
 4536              	.LASF37:
 4537 04d9 5053495F 		.ascii	"PSI_SetDSMRef0Reg\000"
 4537      53657444 
 4537      534D5265 
 4537      66305265 
 4537      6700
 4538              	.LASF85:
 4539 04eb 5053495F 		.ascii	"PSI_stopConversion\000"
 4539      73746F70 
 4539      436F6E76 
 4539      65727369 
 4539      6F6E00
 4540              	.LASF69:
 4541 04fe 61646343 		.ascii	"adcCounts\000"
 4541      6F756E74 
 4541      7300
ARM GAS  C:\Users\scott\AppData\Local\Temp\cciBmnUj.s 			page 121


 4542              	.LASF39:
 4543 0508 656E6162 		.ascii	"enableInterrupts\000"
 4543      6C65496E 
 4543      74657272 
 4543      75707473 
 4543      00
 4544              	.LASF94:
 4545 0519 5053495F 		.ascii	"PSI_AMux_Select\000"
 4545      414D7578 
 4545      5F53656C 
 4545      65637400 
 4546              	.LASF83:
 4547 0529 5053495F 		.ascii	"PSI_initVar\000"
 4547      696E6974 
 4547      56617200 
 4548              	.LASF51:
 4549 0535 73746174 		.ascii	"status\000"
 4549      757300
 4550              	.LASF95:
 4551 053c 5053495F 		.ascii	"PSI_Ext_CP_Clk_SetDividerRegister\000"
 4551      4578745F 
 4551      43505F43 
 4551      6C6B5F53 
 4551      65744469 
 4552              	.LASF50:
 4553 055e 6761696E 		.ascii	"gainAdjust\000"
 4553      41646A75 
 4553      737400
 4554              	.LASF14:
 4555 0569 696E7431 		.ascii	"int16\000"
 4555      3600
 4556              	.LASF86:
 4557 056f 5053495F 		.ascii	"PSI_started\000"
 4557      73746172 
 4557      74656400 
 4558              	.LASF84:
 4559 057b 5053495F 		.ascii	"PSI_convDone\000"
 4559      636F6E76 
 4559      446F6E65 
 4559      00
 4560              	.LASF47:
 4561 0588 746D7052 		.ascii	"tmpReg\000"
 4561      656700
 4562              	.LASF82:
 4563 058f 5053495F 		.ascii	"PSI_gcor\000"
 4563      67636F72 
 4563      00
 4564              	.LASF45:
 4565 0598 5053495F 		.ascii	"PSI_SetBufferGain\000"
 4565      53657442 
 4565      75666665 
 4565      72476169 
 4565      6E00
 4566              	.LASF61:
 4567 05aa 72657375 		.ascii	"result\000"
 4567      6C7400
 4568              		.ident	"GCC: (GNU Tools for ARM Embedded Processors) 5.4.1 20160609 (release) [ARM/embedded-5-bran
ARM GAS  C:\Users\scott\AppData\Local\Temp\cciBmnUj.s 			page 122


