ARM GAS  C:\Users\scott\AppData\Local\Temp\ccf00cU6.s 			page 1


   1              		.syntax unified
   2              		.cpu cortex-m3
   3              		.fpu softvfp
   4              		.eabi_attribute 20, 1
   5              		.eabi_attribute 21, 1
   6              		.eabi_attribute 23, 3
   7              		.eabi_attribute 24, 1
   8              		.eabi_attribute 25, 1
   9              		.eabi_attribute 26, 1
  10              		.eabi_attribute 30, 1
  11              		.eabi_attribute 34, 1
  12              		.eabi_attribute 18, 4
  13              		.thumb
  14              		.syntax unified
  15              		.file	"ds18b20.c"
  16              		.text
  17              	.Ltext0:
  18              		.cfi_sections	.debug_frame
  19              		.section	.text.ds18b20_get_precision,"ax",%progbits
  20              		.align	2
  21              		.global	ds18b20_get_precision
  22              		.thumb
  23              		.thumb_func
  24              		.type	ds18b20_get_precision, %function
  25              	ds18b20_get_precision:
  26              	.LFB64:
  27              		.file 1 "..\\ds18b20.c"
   1:..\ds18b20.c  **** #include "project.h"
   2:..\ds18b20.c  **** #include "ds18b20.h"
   3:..\ds18b20.c  **** // this code came from assorted places.  Most of it from https://github.com/ppkt/stm32f1-ds18b20/bl
   4:..\ds18b20.c  **** // the original github code was written for the STM32 series of MCUs, not the Cypress PSoC 5LP.
   5:..\ds18b20.c  **** 
   6:..\ds18b20.c  **** static uint8_t precision = 2;       // this indicates 11 bit precision from the DS18B20, don't need
   7:..\ds18b20.c  **** static one_wire_device *one_wire_list_of_devices;
   8:..\ds18b20.c  **** static uint8_t one_wire_devices_list_size = 10; // never actually got more than 6 to work...
   9:..\ds18b20.c  **** 
  10:..\ds18b20.c  **** 
  11:..\ds18b20.c  **** uint8_t ds18b20_get_precision(void)
  12:..\ds18b20.c  **** {
  28              		.loc 1 12 0
  29              		.cfi_startproc
  30              		@ args = 0, pretend = 0, frame = 0
  31              		@ frame_needed = 0, uses_anonymous_args = 0
  32              		@ link register save eliminated.
  13:..\ds18b20.c  ****     return precision;
  14:..\ds18b20.c  **** }
  33              		.loc 1 14 0
  34 0000 014B     		ldr	r3, .L2
  35 0002 1878     		ldrb	r0, [r3]	@ zero_extendqisi2
  36 0004 7047     		bx	lr
  37              	.L3:
  38 0006 00BF     		.align	2
  39              	.L2:
  40 0008 00000000 		.word	.LANCHOR0
  41              		.cfi_endproc
  42              	.LFE64:
  43              		.size	ds18b20_get_precision, .-ds18b20_get_precision
ARM GAS  C:\Users\scott\AppData\Local\Temp\ccf00cU6.s 			page 2


  44              		.section	.text.ds18b20_get_devices,"ax",%progbits
  45              		.align	2
  46              		.global	ds18b20_get_devices
  47              		.thumb
  48              		.thumb_func
  49              		.type	ds18b20_get_devices, %function
  50              	ds18b20_get_devices:
  51              	.LFB65:
  15:..\ds18b20.c  **** 
  16:..\ds18b20.c  **** ds18b20_devices ds18b20_get_devices(uint8_t scan) 
  17:..\ds18b20.c  **** {
  52              		.loc 1 17 0
  53              		.cfi_startproc
  54              		@ args = 0, pretend = 0, frame = 0
  55              		@ frame_needed = 0, uses_anonymous_args = 0
  56              	.LVL0:
  57 0000 10B5     		push	{r4, lr}
  58              		.cfi_def_cfa_offset 8
  59              		.cfi_offset 4, -8
  60              		.cfi_offset 14, -4
  61 0002 0446     		mov	r4, r0
  18:..\ds18b20.c  ****     if (scan) 
  62              		.loc 1 18 0
  63 0004 39B1     		cbz	r1, .L5
  19:..\ds18b20.c  ****     {
  20:..\ds18b20.c  ****         one_wire_devices_list_size = 0;
  64              		.loc 1 20 0
  65 0006 0848     		ldr	r0, .L7
  66              	.LVL1:
  67 0008 0023     		movs	r3, #0
  68 000a 00F8013F 		strb	r3, [r0, #1]!
  21:..\ds18b20.c  ****         one_wire_list_of_devices = one_wire_search_rom(&one_wire_devices_list_size);
  69              		.loc 1 21 0
  70 000e FFF7FEFF 		bl	one_wire_search_rom
  71              	.LVL2:
  72 0012 064B     		ldr	r3, .L7+4
  73 0014 1860     		str	r0, [r3]
  74              	.L5:
  22:..\ds18b20.c  ****     }
  23:..\ds18b20.c  ****     ds18b20_devices ret;
  24:..\ds18b20.c  ****     ret.size = one_wire_devices_list_size;
  75              		.loc 1 24 0
  76 0016 044B     		ldr	r3, .L7
  77 0018 5B78     		ldrb	r3, [r3, #1]	@ zero_extendqisi2
  78 001a 2370     		strb	r3, [r4]
  25:..\ds18b20.c  ****     ret.devices = one_wire_list_of_devices;
  79              		.loc 1 25 0
  80 001c 034B     		ldr	r3, .L7+4
  81 001e 1B68     		ldr	r3, [r3]
  82 0020 6360     		str	r3, [r4, #4]
  26:..\ds18b20.c  ****     return ret;
  27:..\ds18b20.c  **** }
  83              		.loc 1 27 0
  84 0022 2046     		mov	r0, r4
  85 0024 10BD     		pop	{r4, pc}
  86              	.LVL3:
  87              	.L8:
ARM GAS  C:\Users\scott\AppData\Local\Temp\ccf00cU6.s 			page 3


  88 0026 00BF     		.align	2
  89              	.L7:
  90 0028 00000000 		.word	.LANCHOR0
  91 002c 00000000 		.word	.LANCHOR1
  92              		.cfi_endproc
  93              	.LFE65:
  94              		.size	ds18b20_get_devices, .-ds18b20_get_devices
  95              		.section	.text.ds18b20_set_precision,"ax",%progbits
  96              		.align	2
  97              		.global	ds18b20_set_precision
  98              		.thumb
  99              		.thumb_func
 100              		.type	ds18b20_set_precision, %function
 101              	ds18b20_set_precision:
 102              	.LFB66:
  28:..\ds18b20.c  **** 
  29:..\ds18b20.c  **** void ds18b20_set_precision(uint8_t p) 
  30:..\ds18b20.c  **** {
 103              		.loc 1 30 0
 104              		.cfi_startproc
 105              		@ args = 0, pretend = 0, frame = 0
 106              		@ frame_needed = 0, uses_anonymous_args = 0
 107              	.LVL4:
 108 0000 10B5     		push	{r4, lr}
 109              		.cfi_def_cfa_offset 8
 110              		.cfi_offset 4, -8
 111              		.cfi_offset 14, -4
  31:..\ds18b20.c  ****     precision = p;
 112              		.loc 1 31 0
 113 0002 0C4C     		ldr	r4, .L11
 114 0004 2070     		strb	r0, [r4]
  32:..\ds18b20.c  ****     one_wire_reset_pulse();
 115              		.loc 1 32 0
 116 0006 FFF7FEFF 		bl	one_wire_reset_pulse
 117              	.LVL5:
  33:..\ds18b20.c  **** 
  34:..\ds18b20.c  ****     one_wire_write_byte(0xCC); // Skip ROM
 118              		.loc 1 34 0
 119 000a CC20     		movs	r0, #204
 120 000c FFF7FEFF 		bl	one_wire_write_byte
 121              	.LVL6:
  35:..\ds18b20.c  ****     one_wire_write_byte(0x4E); // Write scratchpad
 122              		.loc 1 35 0
 123 0010 4E20     		movs	r0, #78
 124 0012 FFF7FEFF 		bl	one_wire_write_byte
 125              	.LVL7:
  36:..\ds18b20.c  **** 
  37:..\ds18b20.c  ****     one_wire_write_byte(0x4B);
 126              		.loc 1 37 0
 127 0016 4B20     		movs	r0, #75
 128 0018 FFF7FEFF 		bl	one_wire_write_byte
 129              	.LVL8:
  38:..\ds18b20.c  ****     one_wire_write_byte(0x46);
 130              		.loc 1 38 0
 131 001c 4620     		movs	r0, #70
 132 001e FFF7FEFF 		bl	one_wire_write_byte
 133              	.LVL9:
ARM GAS  C:\Users\scott\AppData\Local\Temp\ccf00cU6.s 			page 4


  39:..\ds18b20.c  ****     // set precision
  40:..\ds18b20.c  ****     one_wire_write_byte(0x1F | (precision << 5));
 134              		.loc 1 40 0
 135 0022 2078     		ldrb	r0, [r4]	@ zero_extendqisi2
 136 0024 4001     		lsls	r0, r0, #5
 137 0026 40F01F00 		orr	r0, r0, #31
 138 002a C0B2     		uxtb	r0, r0
 139 002c FFF7FEFF 		bl	one_wire_write_byte
 140              	.LVL10:
 141 0030 10BD     		pop	{r4, pc}
 142              	.L12:
 143 0032 00BF     		.align	2
 144              	.L11:
 145 0034 00000000 		.word	.LANCHOR0
 146              		.cfi_endproc
 147              	.LFE66:
 148              		.size	ds18b20_set_precision, .-ds18b20_set_precision
 149              		.section	.text.ds18b20_convert_temperature_simple,"ax",%progbits
 150              		.align	2
 151              		.global	ds18b20_convert_temperature_simple
 152              		.thumb
 153              		.thumb_func
 154              		.type	ds18b20_convert_temperature_simple, %function
 155              	ds18b20_convert_temperature_simple:
 156              	.LFB67:
  41:..\ds18b20.c  **** }
  42:..\ds18b20.c  **** 
  43:..\ds18b20.c  **** void ds18b20_convert_temperature_simple(void) 
  44:..\ds18b20.c  **** {
 157              		.loc 1 44 0
 158              		.cfi_startproc
 159              		@ args = 0, pretend = 0, frame = 0
 160              		@ frame_needed = 0, uses_anonymous_args = 0
 161 0000 08B5     		push	{r3, lr}
 162              		.cfi_def_cfa_offset 8
 163              		.cfi_offset 3, -8
 164              		.cfi_offset 14, -4
  45:..\ds18b20.c  ****     one_wire_reset_pulse();
 165              		.loc 1 45 0
 166 0002 FFF7FEFF 		bl	one_wire_reset_pulse
 167              	.LVL11:
  46:..\ds18b20.c  ****     one_wire_write_byte(0xCC); // Skip ROM
 168              		.loc 1 46 0
 169 0006 CC20     		movs	r0, #204
 170 0008 FFF7FEFF 		bl	one_wire_write_byte
 171              	.LVL12:
  47:..\ds18b20.c  ****     one_wire_write_byte(0x44); // Convert temperature
 172              		.loc 1 47 0
 173 000c 4420     		movs	r0, #68
 174 000e FFF7FEFF 		bl	one_wire_write_byte
 175              	.LVL13:
 176 0012 08BD     		pop	{r3, pc}
 177              		.cfi_endproc
 178              	.LFE67:
 179              		.size	ds18b20_convert_temperature_simple, .-ds18b20_convert_temperature_simple
 180              		.section	.text.ds18b20_convert_temperature,"ax",%progbits
 181              		.align	2
ARM GAS  C:\Users\scott\AppData\Local\Temp\ccf00cU6.s 			page 5


 182              		.global	ds18b20_convert_temperature
 183              		.thumb
 184              		.thumb_func
 185              		.type	ds18b20_convert_temperature, %function
 186              	ds18b20_convert_temperature:
 187              	.LFB68:
  48:..\ds18b20.c  **** }
  49:..\ds18b20.c  **** 
  50:..\ds18b20.c  **** void ds18b20_convert_temperature(one_wire_device device) 
  51:..\ds18b20.c  **** {
 188              		.loc 1 51 0
 189              		.cfi_startproc
 190              		@ args = 0, pretend = 0, frame = 8
 191              		@ frame_needed = 0, uses_anonymous_args = 0
 192 0000 10B5     		push	{r4, lr}
 193              		.cfi_def_cfa_offset 8
 194              		.cfi_offset 4, -8
 195              		.cfi_offset 14, -4
 196 0002 82B0     		sub	sp, sp, #8
 197              		.cfi_def_cfa_offset 16
 198 0004 8DE80300 		stmia	sp, {r0, r1}
  52:..\ds18b20.c  ****     one_wire_reset_pulse();
 199              		.loc 1 52 0
 200 0008 FFF7FEFF 		bl	one_wire_reset_pulse
 201              	.LVL14:
  53:..\ds18b20.c  ****     one_wire_match_rom(device); // Match ROM
 202              		.loc 1 53 0
 203 000c 9DE80300 		ldmia	sp, {r0, r1}
 204 0010 FFF7FEFF 		bl	one_wire_match_rom
 205              	.LVL15:
  54:..\ds18b20.c  ****     one_wire_write_byte(0x44); // Convert temperature
 206              		.loc 1 54 0
 207 0014 4420     		movs	r0, #68
 208 0016 FFF7FEFF 		bl	one_wire_write_byte
 209              	.LVL16:
  55:..\ds18b20.c  **** }
 210              		.loc 1 55 0
 211 001a 02B0     		add	sp, sp, #8
 212              		.cfi_def_cfa_offset 8
 213              		@ sp needed
 214 001c 10BD     		pop	{r4, pc}
 215              		.cfi_endproc
 216              	.LFE68:
 217              		.size	ds18b20_convert_temperature, .-ds18b20_convert_temperature
 218 001e 00BF     		.section	.text.ds18b20_convert_temperature_all,"ax",%progbits
 219              		.align	2
 220              		.global	ds18b20_convert_temperature_all
 221              		.thumb
 222              		.thumb_func
 223              		.type	ds18b20_convert_temperature_all, %function
 224              	ds18b20_convert_temperature_all:
 225              	.LFB69:
  56:..\ds18b20.c  **** 
  57:..\ds18b20.c  **** void ds18b20_convert_temperature_all(void) 
  58:..\ds18b20.c  **** {
 226              		.loc 1 58 0
 227              		.cfi_startproc
ARM GAS  C:\Users\scott\AppData\Local\Temp\ccf00cU6.s 			page 6


 228              		@ args = 0, pretend = 0, frame = 0
 229              		@ frame_needed = 0, uses_anonymous_args = 0
 230 0000 10B5     		push	{r4, lr}
 231              		.cfi_def_cfa_offset 8
 232              		.cfi_offset 4, -8
 233              		.cfi_offset 14, -4
 234              	.LVL17:
  59:..\ds18b20.c  ****     uint8_t i = 0;
  60:..\ds18b20.c  ****     for (i = 0; i < one_wire_devices_list_size; ++i) 
 235              		.loc 1 60 0
 236 0002 0024     		movs	r4, #0
 237 0004 09E0     		b	.L18
 238              	.LVL18:
 239              	.L19:
  61:..\ds18b20.c  ****     {
  62:..\ds18b20.c  ****         ds18b20_convert_temperature(one_wire_list_of_devices[i]);
 240              		.loc 1 62 0 discriminator 3
 241 0006 074B     		ldr	r3, .L21
 242 0008 1B68     		ldr	r3, [r3]
 243 000a 03EBC403 		add	r3, r3, r4, lsl #3
 244 000e 1868     		ldr	r0, [r3]	@ unaligned
 245 0010 5968     		ldr	r1, [r3, #4]	@ unaligned
 246 0012 FFF7FEFF 		bl	ds18b20_convert_temperature
 247              	.LVL19:
  60:..\ds18b20.c  ****     {
 248              		.loc 1 60 0 discriminator 3
 249 0016 0134     		adds	r4, r4, #1
 250              	.LVL20:
 251 0018 E4B2     		uxtb	r4, r4
 252              	.LVL21:
 253              	.L18:
  60:..\ds18b20.c  ****     {
 254              		.loc 1 60 0 is_stmt 0 discriminator 1
 255 001a 034B     		ldr	r3, .L21+4
 256 001c 5B78     		ldrb	r3, [r3, #1]	@ zero_extendqisi2
 257 001e 9C42     		cmp	r4, r3
 258 0020 F1D3     		bcc	.L19
  63:..\ds18b20.c  ****     }
  64:..\ds18b20.c  **** }
 259              		.loc 1 64 0 is_stmt 1
 260 0022 10BD     		pop	{r4, pc}
 261              	.LVL22:
 262              	.L22:
 263              		.align	2
 264              	.L21:
 265 0024 00000000 		.word	.LANCHOR1
 266 0028 00000000 		.word	.LANCHOR0
 267              		.cfi_endproc
 268              	.LFE69:
 269              		.size	ds18b20_convert_temperature_all, .-ds18b20_convert_temperature_all
 270              		.global	__aeabi_i2f
 271              		.global	__aeabi_fmul
 272              		.section	.text.ds18b20_decode_temperature,"ax",%progbits
 273              		.align	2
 274              		.global	ds18b20_decode_temperature
 275              		.thumb
 276              		.thumb_func
ARM GAS  C:\Users\scott\AppData\Local\Temp\ccf00cU6.s 			page 7


 277              		.type	ds18b20_decode_temperature, %function
 278              	ds18b20_decode_temperature:
 279              	.LFB73:
  65:..\ds18b20.c  **** 
  66:..\ds18b20.c  **** float ds18b20_read_temperature_simple(void) 
  67:..\ds18b20.c  **** {
  68:..\ds18b20.c  ****     one_wire_reset_pulse();
  69:..\ds18b20.c  ****     one_wire_write_byte(0xCC); // Skip ROM
  70:..\ds18b20.c  ****     one_wire_write_byte(0xBE); // Read scratchpad
  71:..\ds18b20.c  **** 
  72:..\ds18b20.c  ****     return ds18b20_decode_temperature();
  73:..\ds18b20.c  **** }
  74:..\ds18b20.c  **** 
  75:..\ds18b20.c  **** float ds18b20_read_temperature(one_wire_device device) 
  76:..\ds18b20.c  **** {
  77:..\ds18b20.c  ****     ds18b20_wait_for_conversion();
  78:..\ds18b20.c  ****     one_wire_reset_pulse();
  79:..\ds18b20.c  ****     one_wire_match_rom(device); // Match ROM
  80:..\ds18b20.c  ****     one_wire_write_byte(0xBE); // Read scratchpad
  81:..\ds18b20.c  **** 
  82:..\ds18b20.c  ****     return ds18b20_decode_temperature();
  83:..\ds18b20.c  **** }
  84:..\ds18b20.c  **** 
  85:..\ds18b20.c  **** simple_float* ds18b20_read_temperature_all(void) {
  86:..\ds18b20.c  ****     uint8_t i = 0;
  87:..\ds18b20.c  ****     simple_float *temperatures;
  88:..\ds18b20.c  ****     temperatures = malloc(one_wire_devices_list_size * sizeof(simple_float));
  89:..\ds18b20.c  **** 
  90:..\ds18b20.c  ****     for (i = 0; i < one_wire_devices_list_size; ++i) 
  91:..\ds18b20.c  ****     {
  92:..\ds18b20.c  ****         temperatures[i].temperature = ds18b20_read_temperature(one_wire_list_of_devices[i]);
  93:..\ds18b20.c  ****         temperatures[i].is_valid = 1;
  94:..\ds18b20.c  ****     }
  95:..\ds18b20.c  ****     return temperatures;
  96:..\ds18b20.c  **** }
  97:..\ds18b20.c  **** 
  98:..\ds18b20.c  **** float ds18b20_decode_temperature(void) 
  99:..\ds18b20.c  **** {
 280              		.loc 1 99 0
 281              		.cfi_startproc
 282              		@ args = 0, pretend = 0, frame = 16
 283              		@ frame_needed = 0, uses_anonymous_args = 0
 284 0000 30B5     		push	{r4, r5, lr}
 285              		.cfi_def_cfa_offset 12
 286              		.cfi_offset 4, -12
 287              		.cfi_offset 5, -8
 288              		.cfi_offset 14, -4
 289 0002 85B0     		sub	sp, sp, #20
 290              		.cfi_def_cfa_offset 32
 100:..\ds18b20.c  ****     int i;
 101:..\ds18b20.c  ****     uint8_t crc;
 102:..\ds18b20.c  ****     uint8_t data[9];
 103:..\ds18b20.c  ****     uint8_t temp_msb, temp_lsb;
 104:..\ds18b20.c  ****     float temp;
 105:..\ds18b20.c  ****     
 106:..\ds18b20.c  ****     one_wire_reset_crc();
 291              		.loc 1 106 0
ARM GAS  C:\Users\scott\AppData\Local\Temp\ccf00cU6.s 			page 8


 292 0004 FFF7FEFF 		bl	one_wire_reset_crc
 293              	.LVL23:
 107:..\ds18b20.c  **** 
 108:..\ds18b20.c  ****     for (i = 0; i < 9; ++i) 
 294              		.loc 1 108 0
 295 0008 0024     		movs	r4, #0
 296 000a 09E0     		b	.L24
 297              	.LVL24:
 298              	.L25:
 109:..\ds18b20.c  ****     {
 110:..\ds18b20.c  ****         data[i] = one_wire_read_byte();
 299              		.loc 1 110 0 discriminator 3
 300 000c FFF7FEFF 		bl	one_wire_read_byte
 301              	.LVL25:
 302 0010 04AB     		add	r3, sp, #16
 303 0012 2344     		add	r3, r3, r4
 304 0014 03F80C0C 		strb	r0, [r3, #-12]
 111:..\ds18b20.c  ****         crc = one_wire_crc(data[i]);
 305              		.loc 1 111 0 discriminator 3
 306 0018 FFF7FEFF 		bl	one_wire_crc
 307              	.LVL26:
 308 001c 0546     		mov	r5, r0
 309              	.LVL27:
 108:..\ds18b20.c  ****     {
 310              		.loc 1 108 0 discriminator 3
 311 001e 0134     		adds	r4, r4, #1
 312              	.LVL28:
 313              	.L24:
 108:..\ds18b20.c  ****     {
 314              		.loc 1 108 0 is_stmt 0 discriminator 1
 315 0020 082C     		cmp	r4, #8
 316 0022 F3DD     		ble	.L25
 112:..\ds18b20.c  ****     }
 113:..\ds18b20.c  **** 
 114:..\ds18b20.c  ****     temp_msb = data[1]; // Sign byte + lsbit
 317              		.loc 1 114 0 is_stmt 1
 318 0024 9DF80530 		ldrb	r3, [sp, #5]	@ zero_extendqisi2
 319              	.LVL29:
 115:..\ds18b20.c  ****     temp_lsb = data[0]; // Temp data plus lsb
 320              		.loc 1 115 0
 321 0028 9DF80400 		ldrb	r0, [sp, #4]	@ zero_extendqisi2
 322              	.LVL30:
 116:..\ds18b20.c  **** 
 117:..\ds18b20.c  ****     if (crc != 0 || (!crc && !temp_msb && !temp_lsb)) 
 323              		.loc 1 117 0
 324 002c D5B9     		cbnz	r5, .L29
 325              		.loc 1 117 0 is_stmt 0 discriminator 1
 326 002e 03B9     		cbnz	r3, .L27
 327              		.loc 1 117 0 discriminator 2
 328 0030 D0B1     		cbz	r0, .L30
 329              	.L27:
 118:..\ds18b20.c  ****     {
 119:..\ds18b20.c  ****         return -100.0;
 120:..\ds18b20.c  ****     }
 121:..\ds18b20.c  **** 
 122:..\ds18b20.c  ****     if (temp_msb & 0x08)    // is it a negative number?
 330              		.loc 1 122 0 is_stmt 1
ARM GAS  C:\Users\scott\AppData\Local\Temp\ccf00cU6.s 			page 9


 331 0032 13F0080F 		tst	r3, #8
 332 0036 0CD0     		beq	.L28
 123:..\ds18b20.c  ****         temp = ((float)((0 - (temp_msb << 8 | temp_lsb)) & 0xffff) / 16.0) * -1;
 333              		.loc 1 123 0
 334 0038 40EA0320 		orr	r0, r0, r3, lsl #8
 335              	.LVL31:
 336 003c 4042     		negs	r0, r0
 337 003e 80B2     		uxth	r0, r0
 338 0040 FFF7FEFF 		bl	__aeabi_i2f
 339              	.LVL32:
 340 0044 4FF07651 		mov	r1, #1031798784
 341 0048 FFF7FEFF 		bl	__aeabi_fmul
 342              	.LVL33:
 343 004c 00F10040 		add	r0, r0, #-2147483648
 344              	.LVL34:
 345 0050 0BE0     		b	.L26
 346              	.LVL35:
 347              	.L28:
 124:..\ds18b20.c  ****     else
 125:..\ds18b20.c  ****         temp = (float)(temp_msb << 8 | temp_lsb) / 16.0;   // this is a positive number
 348              		.loc 1 125 0
 349 0052 40EA0320 		orr	r0, r0, r3, lsl #8
 350              	.LVL36:
 351 0056 FFF7FEFF 		bl	__aeabi_i2f
 352              	.LVL37:
 353 005a 4FF07651 		mov	r1, #1031798784
 354 005e FFF7FEFF 		bl	__aeabi_fmul
 355              	.LVL38:
 356 0062 02E0     		b	.L26
 357              	.LVL39:
 358              	.L29:
 119:..\ds18b20.c  ****     }
 359              		.loc 1 119 0
 360 0064 0248     		ldr	r0, .L32
 361              	.LVL40:
 362 0066 00E0     		b	.L26
 363              	.LVL41:
 364              	.L30:
 365 0068 0148     		ldr	r0, .L32
 366              	.LVL42:
 367              	.L26:
 126:..\ds18b20.c  ****     return temp;
 127:..\ds18b20.c  **** }
 368              		.loc 1 127 0
 369 006a 05B0     		add	sp, sp, #20
 370              		.cfi_def_cfa_offset 12
 371              		@ sp needed
 372 006c 30BD     		pop	{r4, r5, pc}
 373              	.LVL43:
 374              	.L33:
 375 006e 00BF     		.align	2
 376              	.L32:
 377 0070 0000C8C2 		.word	-1027080192
 378              		.cfi_endproc
 379              	.LFE73:
 380              		.size	ds18b20_decode_temperature, .-ds18b20_decode_temperature
 381              		.section	.text.ds18b20_read_temperature_simple,"ax",%progbits
ARM GAS  C:\Users\scott\AppData\Local\Temp\ccf00cU6.s 			page 10


 382              		.align	2
 383              		.global	ds18b20_read_temperature_simple
 384              		.thumb
 385              		.thumb_func
 386              		.type	ds18b20_read_temperature_simple, %function
 387              	ds18b20_read_temperature_simple:
 388              	.LFB70:
  67:..\ds18b20.c  ****     one_wire_reset_pulse();
 389              		.loc 1 67 0
 390              		.cfi_startproc
 391              		@ args = 0, pretend = 0, frame = 0
 392              		@ frame_needed = 0, uses_anonymous_args = 0
 393 0000 08B5     		push	{r3, lr}
 394              		.cfi_def_cfa_offset 8
 395              		.cfi_offset 3, -8
 396              		.cfi_offset 14, -4
  68:..\ds18b20.c  ****     one_wire_write_byte(0xCC); // Skip ROM
 397              		.loc 1 68 0
 398 0002 FFF7FEFF 		bl	one_wire_reset_pulse
 399              	.LVL44:
  69:..\ds18b20.c  ****     one_wire_write_byte(0xBE); // Read scratchpad
 400              		.loc 1 69 0
 401 0006 CC20     		movs	r0, #204
 402 0008 FFF7FEFF 		bl	one_wire_write_byte
 403              	.LVL45:
  70:..\ds18b20.c  **** 
 404              		.loc 1 70 0
 405 000c BE20     		movs	r0, #190
 406 000e FFF7FEFF 		bl	one_wire_write_byte
 407              	.LVL46:
  72:..\ds18b20.c  **** }
 408              		.loc 1 72 0
 409 0012 FFF7FEFF 		bl	ds18b20_decode_temperature
 410              	.LVL47:
  73:..\ds18b20.c  **** 
 411              		.loc 1 73 0
 412 0016 08BD     		pop	{r3, pc}
 413              		.cfi_endproc
 414              	.LFE70:
 415              		.size	ds18b20_read_temperature_simple, .-ds18b20_read_temperature_simple
 416              		.section	.text.ds18b20_wait_for_conversion,"ax",%progbits
 417              		.align	2
 418              		.global	ds18b20_wait_for_conversion
 419              		.thumb
 420              		.thumb_func
 421              		.type	ds18b20_wait_for_conversion, %function
 422              	ds18b20_wait_for_conversion:
 423              	.LFB74:
 128:..\ds18b20.c  **** 
 129:..\ds18b20.c  **** void ds18b20_wait_for_conversion(void) 
 130:..\ds18b20.c  **** {
 424              		.loc 1 130 0
 425              		.cfi_startproc
 426              		@ args = 0, pretend = 0, frame = 0
 427              		@ frame_needed = 0, uses_anonymous_args = 0
 428 0000 08B5     		push	{r3, lr}
 429              		.cfi_def_cfa_offset 8
ARM GAS  C:\Users\scott\AppData\Local\Temp\ccf00cU6.s 			page 11


 430              		.cfi_offset 3, -8
 431              		.cfi_offset 14, -4
 131:..\ds18b20.c  ****     if (precision == 0)
 432              		.loc 1 131 0
 433 0002 0D4B     		ldr	r3, .L42
 434 0004 1B78     		ldrb	r3, [r3]	@ zero_extendqisi2
 435 0006 1BB9     		cbnz	r3, .L37
 132:..\ds18b20.c  ****         CyDelay(95);
 436              		.loc 1 132 0
 437 0008 5F20     		movs	r0, #95
 438 000a FFF7FEFF 		bl	CyDelay
 439              	.LVL48:
 440 000e 08BD     		pop	{r3, pc}
 441              	.L37:
 133:..\ds18b20.c  ****     else if (precision == 1)
 442              		.loc 1 133 0
 443 0010 012B     		cmp	r3, #1
 444 0012 03D1     		bne	.L39
 134:..\ds18b20.c  ****         CyDelay(190);
 445              		.loc 1 134 0
 446 0014 BE20     		movs	r0, #190
 447 0016 FFF7FEFF 		bl	CyDelay
 448              	.LVL49:
 449 001a 08BD     		pop	{r3, pc}
 450              	.L39:
 135:..\ds18b20.c  ****     else if (precision == 2)
 451              		.loc 1 135 0
 452 001c 022B     		cmp	r3, #2
 453 001e 04D1     		bne	.L40
 136:..\ds18b20.c  ****         CyDelay(380);
 454              		.loc 1 136 0
 455 0020 4FF4BE70 		mov	r0, #380
 456 0024 FFF7FEFF 		bl	CyDelay
 457              	.LVL50:
 458 0028 08BD     		pop	{r3, pc}
 459              	.L40:
 137:..\ds18b20.c  ****     else if (precision == 3)
 460              		.loc 1 137 0
 461 002a 032B     		cmp	r3, #3
 462 002c 03D1     		bne	.L36
 138:..\ds18b20.c  ****         CyDelay(750);
 463              		.loc 1 138 0
 464 002e 40F2EE20 		movw	r0, #750
 465 0032 FFF7FEFF 		bl	CyDelay
 466              	.LVL51:
 467              	.L36:
 468 0036 08BD     		pop	{r3, pc}
 469              	.L43:
 470              		.align	2
 471              	.L42:
 472 0038 00000000 		.word	.LANCHOR0
 473              		.cfi_endproc
 474              	.LFE74:
 475              		.size	ds18b20_wait_for_conversion, .-ds18b20_wait_for_conversion
 476              		.section	.text.ds18b20_read_temperature,"ax",%progbits
 477              		.align	2
 478              		.global	ds18b20_read_temperature
ARM GAS  C:\Users\scott\AppData\Local\Temp\ccf00cU6.s 			page 12


 479              		.thumb
 480              		.thumb_func
 481              		.type	ds18b20_read_temperature, %function
 482              	ds18b20_read_temperature:
 483              	.LFB71:
  76:..\ds18b20.c  ****     ds18b20_wait_for_conversion();
 484              		.loc 1 76 0
 485              		.cfi_startproc
 486              		@ args = 0, pretend = 0, frame = 8
 487              		@ frame_needed = 0, uses_anonymous_args = 0
 488 0000 10B5     		push	{r4, lr}
 489              		.cfi_def_cfa_offset 8
 490              		.cfi_offset 4, -8
 491              		.cfi_offset 14, -4
 492 0002 82B0     		sub	sp, sp, #8
 493              		.cfi_def_cfa_offset 16
 494 0004 8DE80300 		stmia	sp, {r0, r1}
  77:..\ds18b20.c  ****     one_wire_reset_pulse();
 495              		.loc 1 77 0
 496 0008 FFF7FEFF 		bl	ds18b20_wait_for_conversion
 497              	.LVL52:
  78:..\ds18b20.c  ****     one_wire_match_rom(device); // Match ROM
 498              		.loc 1 78 0
 499 000c FFF7FEFF 		bl	one_wire_reset_pulse
 500              	.LVL53:
  79:..\ds18b20.c  ****     one_wire_write_byte(0xBE); // Read scratchpad
 501              		.loc 1 79 0
 502 0010 9DE80300 		ldmia	sp, {r0, r1}
 503 0014 FFF7FEFF 		bl	one_wire_match_rom
 504              	.LVL54:
  80:..\ds18b20.c  **** 
 505              		.loc 1 80 0
 506 0018 BE20     		movs	r0, #190
 507 001a FFF7FEFF 		bl	one_wire_write_byte
 508              	.LVL55:
  82:..\ds18b20.c  **** }
 509              		.loc 1 82 0
 510 001e FFF7FEFF 		bl	ds18b20_decode_temperature
 511              	.LVL56:
  83:..\ds18b20.c  **** 
 512              		.loc 1 83 0
 513 0022 02B0     		add	sp, sp, #8
 514              		.cfi_def_cfa_offset 8
 515              		@ sp needed
 516 0024 10BD     		pop	{r4, pc}
 517              		.cfi_endproc
 518              	.LFE71:
 519              		.size	ds18b20_read_temperature, .-ds18b20_read_temperature
 520 0026 00BF     		.section	.text.ds18b20_read_temperature_all,"ax",%progbits
 521              		.align	2
 522              		.global	ds18b20_read_temperature_all
 523              		.thumb
 524              		.thumb_func
 525              		.type	ds18b20_read_temperature_all, %function
 526              	ds18b20_read_temperature_all:
 527              	.LFB72:
  85:..\ds18b20.c  ****     uint8_t i = 0;
ARM GAS  C:\Users\scott\AppData\Local\Temp\ccf00cU6.s 			page 13


 528              		.loc 1 85 0
 529              		.cfi_startproc
 530              		@ args = 0, pretend = 0, frame = 0
 531              		@ frame_needed = 0, uses_anonymous_args = 0
 532 0000 70B5     		push	{r4, r5, r6, lr}
 533              		.cfi_def_cfa_offset 16
 534              		.cfi_offset 4, -16
 535              		.cfi_offset 5, -12
 536              		.cfi_offset 6, -8
 537              		.cfi_offset 14, -4
 538              	.LVL57:
  88:..\ds18b20.c  **** 
 539              		.loc 1 88 0
 540 0002 0E4B     		ldr	r3, .L50
 541 0004 5878     		ldrb	r0, [r3, #1]	@ zero_extendqisi2
 542 0006 C000     		lsls	r0, r0, #3
 543 0008 FFF7FEFF 		bl	malloc
 544              	.LVL58:
 545 000c 0546     		mov	r5, r0
 546              	.LVL59:
  90:..\ds18b20.c  ****     {
 547              		.loc 1 90 0
 548 000e 0024     		movs	r4, #0
 549 0010 0EE0     		b	.L47
 550              	.LVL60:
 551              	.L48:
  92:..\ds18b20.c  ****         temperatures[i].is_valid = 1;
 552              		.loc 1 92 0 discriminator 3
 553 0012 E300     		lsls	r3, r4, #3
 554 0014 EE18     		adds	r6, r5, r3
 555 0016 0A4A     		ldr	r2, .L50+4
 556 0018 1268     		ldr	r2, [r2]
 557 001a 1344     		add	r3, r3, r2
 558 001c 1868     		ldr	r0, [r3]	@ unaligned
 559 001e 5968     		ldr	r1, [r3, #4]	@ unaligned
 560 0020 FFF7FEFF 		bl	ds18b20_read_temperature
 561              	.LVL61:
 562 0024 45F83400 		str	r0, [r5, r4, lsl #3]	@ float
  93:..\ds18b20.c  ****     }
 563              		.loc 1 93 0 discriminator 3
 564 0028 0123     		movs	r3, #1
 565 002a 3371     		strb	r3, [r6, #4]
  90:..\ds18b20.c  ****     {
 566              		.loc 1 90 0 discriminator 3
 567 002c 1C44     		add	r4, r4, r3
 568              	.LVL62:
 569 002e E4B2     		uxtb	r4, r4
 570              	.LVL63:
 571              	.L47:
  90:..\ds18b20.c  ****     {
 572              		.loc 1 90 0 is_stmt 0 discriminator 1
 573 0030 024B     		ldr	r3, .L50
 574 0032 5B78     		ldrb	r3, [r3, #1]	@ zero_extendqisi2
 575 0034 9C42     		cmp	r4, r3
 576 0036 ECD3     		bcc	.L48
  96:..\ds18b20.c  **** 
 577              		.loc 1 96 0 is_stmt 1
ARM GAS  C:\Users\scott\AppData\Local\Temp\ccf00cU6.s 			page 14


 578 0038 2846     		mov	r0, r5
 579 003a 70BD     		pop	{r4, r5, r6, pc}
 580              	.LVL64:
 581              	.L51:
 582              		.align	2
 583              	.L50:
 584 003c 00000000 		.word	.LANCHOR0
 585 0040 00000000 		.word	.LANCHOR1
 586              		.cfi_endproc
 587              	.LFE72:
 588              		.size	ds18b20_read_temperature_all, .-ds18b20_read_temperature_all
 589              		.section	.text.ds18b20_get_temperature_simple,"ax",%progbits
 590              		.align	2
 591              		.global	ds18b20_get_temperature_simple
 592              		.thumb
 593              		.thumb_func
 594              		.type	ds18b20_get_temperature_simple, %function
 595              	ds18b20_get_temperature_simple:
 596              	.LFB75:
 139:..\ds18b20.c  **** }
 140:..\ds18b20.c  **** 
 141:..\ds18b20.c  **** 
 142:..\ds18b20.c  **** float ds18b20_get_temperature_simple(void) 
 143:..\ds18b20.c  **** {
 597              		.loc 1 143 0
 598              		.cfi_startproc
 599              		@ args = 0, pretend = 0, frame = 0
 600              		@ frame_needed = 0, uses_anonymous_args = 0
 601 0000 08B5     		push	{r3, lr}
 602              		.cfi_def_cfa_offset 8
 603              		.cfi_offset 3, -8
 604              		.cfi_offset 14, -4
 144:..\ds18b20.c  ****     ds18b20_convert_temperature_simple();  // we have only one device
 605              		.loc 1 144 0
 606 0002 FFF7FEFF 		bl	ds18b20_convert_temperature_simple
 607              	.LVL65:
 145:..\ds18b20.c  ****     ds18b20_wait_for_conversion();
 608              		.loc 1 145 0
 609 0006 FFF7FEFF 		bl	ds18b20_wait_for_conversion
 610              	.LVL66:
 146:..\ds18b20.c  ****     return ds18b20_read_temperature_simple();
 611              		.loc 1 146 0
 612 000a FFF7FEFF 		bl	ds18b20_read_temperature_simple
 613              	.LVL67:
 147:..\ds18b20.c  **** }
 614              		.loc 1 147 0
 615 000e 08BD     		pop	{r3, pc}
 616              		.cfi_endproc
 617              	.LFE75:
 618              		.size	ds18b20_get_temperature_simple, .-ds18b20_get_temperature_simple
 619              		.data
 620              		.set	.LANCHOR0,. + 0
 621              		.type	precision, %object
 622              		.size	precision, 1
 623              	precision:
 624 0000 02       		.byte	2
 625              		.type	one_wire_devices_list_size, %object
ARM GAS  C:\Users\scott\AppData\Local\Temp\ccf00cU6.s 			page 15


 626              		.size	one_wire_devices_list_size, 1
 627              	one_wire_devices_list_size:
 628 0001 0A       		.byte	10
 629              		.bss
 630              		.align	2
 631              		.set	.LANCHOR1,. + 0
 632              		.type	one_wire_list_of_devices, %object
 633              		.size	one_wire_list_of_devices, 4
 634              	one_wire_list_of_devices:
 635 0000 00000000 		.space	4
 636              		.text
 637              	.Letext0:
 638              		.file 2 "c:\\program files (x86)\\cypress\\psoc creator\\4.2\\psoc creator\\import\\gnu\\arm\\5.4.
 639              		.file 3 "c:\\program files (x86)\\cypress\\psoc creator\\4.2\\psoc creator\\import\\gnu\\arm\\5.4.
 640              		.file 4 "..\\one_wire.h"
 641              		.file 5 "..\\ds18b20.h"
 642              		.file 6 "Generated_Source\\PSoC5/CyLib.h"
 643              		.file 7 "c:\\program files (x86)\\cypress\\psoc creator\\4.2\\psoc creator\\import\\gnu\\arm\\5.4.
 644              		.file 8 "Generated_Source\\PSoC5/core_cm3.h"