ARM GAS  C:\Users\scott\AppData\Local\Temp\ccizu4DE.s 			page 1


   1              		.syntax unified
   2              		.cpu cortex-m3
   3              		.fpu softvfp
   4              		.eabi_attribute 20, 1
   5              		.eabi_attribute 21, 1
   6              		.eabi_attribute 23, 3
   7              		.eabi_attribute 24, 1
   8              		.eabi_attribute 25, 1
   9              		.eabi_attribute 26, 1
  10              		.eabi_attribute 30, 1
  11              		.eabi_attribute 34, 1
  12              		.eabi_attribute 18, 4
  13              		.thumb
  14              		.syntax unified
  15              		.file	"main.c"
  16              		.text
  17              	.Ltext0:
  18              		.cfi_sections	.debug_frame
  19              		.section	.text.Timer_ISR,"ax",%progbits
  20              		.align	2
  21              		.global	Timer_ISR
  22              		.thumb
  23              		.thumb_func
  24              		.type	Timer_ISR, %function
  25              	Timer_ISR:
  26              	.LFB64:
  27              		.file 1 "main.c"
   1:main.c        **** /* ========================================
   2:main.c        ****  *
   3:main.c        ****  * Copyright Park View Care Center, 2020
   4:main.c        ****  * All Rights Reserved
   5:main.c        ****  * UNPUBLISHED, LICENSED SOFTWARE.
   6:main.c        ****  *
   7:main.c        ****  * CONFIDENTIAL AND PROPRIETARY INFORMATION
   8:main.c        ****  * WHICH IS THE PROPERTY OF PVCC.
   9:main.c        ****  *
  10:main.c        ****  * ========================================
  11:main.c        **** */
  12:main.c        **** #include "project.h"
  13:main.c        **** #include <stdio.h>
  14:main.c        **** #include <stdlib.h>
  15:main.c        **** #include <math.h>
  16:main.c        **** #include <build_defs.h>
  17:main.c        **** #include <max31865.h>
  18:main.c        **** #include <one_wire.h>
  19:main.c        **** #include <ds18b20.h>
  20:main.c        **** #include <ModbusRtu.h>
  21:main.c        **** 
  22:main.c        **** #define MY_ID '0'
  23:main.c        **** // basically, poll the modbus about every 5 minutes
  24:main.c        **** #define TIME_BETWEEN_POLLING 295000
  25:main.c        **** // MODBUS_COUNT is the max number of modbus devices to poll
  26:main.c        **** #define MODBUS_COUNT 10
  27:main.c        **** #define MODBUS_BASE_ADDR 0x31
  28:main.c        **** 
  29:main.c        **** uint8_t wemos_buffer[256];
  30:main.c        **** uint8_t rs485_buffer[256];
ARM GAS  C:\Users\scott\AppData\Local\Temp\ccizu4DE.s 			page 2


  31:main.c        **** char temp_message[128];
  32:main.c        **** char myId;
  33:main.c        **** uint8_t rx_timed_out;
  34:main.c        **** uint8_t slave_id;
  35:main.c        **** uint8_t wemos_pos = 0;    // where in the receive buffer are we?
  36:main.c        **** uint8_t rs485_pos;    // where in the receive buffer are we?
  37:main.c        **** uint8_t esc;        // flag to indicate whether an escape character was received
  38:main.c        **** uint32 Global_time; // constantly updated by the timer interrupt, used for exact delays
  39:main.c        **** uint16_t last_modbus_time;  // At what point in the seconds counter was the modbus read
  40:main.c        **** uint32 esc_time;    // used to help indicate how long an escape character is valid, compared to Glo
  41:main.c        **** char version[12];   // just used to hold to version date sent at boot time
  42:main.c        **** // data array for modbus network sharing
  43:main.c        **** uint16_t registers[MODBUS_COUNT][60];
  44:main.c        **** uint16_t last_registers[MODBUS_COUNT][60];
  45:main.c        **** uint8_t modbus_state;
  46:main.c        **** uint8_t modbus_slave;
  47:main.c        **** unsigned long modbus_wait;
  48:main.c        **** uint16_t temp_regs[40];
  49:main.c        **** float last_Adc_result[4] = {0,0,0,0}; // the last____ variables are to cut down on sending unchange
  50:main.c        **** float last31865[8] = {0,0,0,0,0,0,0,0};
  51:main.c        **** float lastDS18B20[10] = {0,0,0,0,0,0,0,0,0,0};
  52:main.c        **** uint8_t lastPins = 0;
  53:main.c        **** /**
  54:main.c        ****  * This is an structure which contains a query to an slave device
  55:main.c        ****  */
  56:main.c        **** modbus_t telegram;
  57:main.c        **** 
  58:main.c        **** #define millis() Global_time;
  59:main.c        **** void printBinary(uint8_t inByte, char *ts);
  60:main.c        **** 
  61:main.c        **** CY_ISR(Timer_ISR){  // interrupt routine to update the Global_time value
  28              		.loc 1 61 0
  29              		.cfi_startproc
  30              		@ args = 0, pretend = 0, frame = 0
  31              		@ frame_needed = 0, uses_anonymous_args = 0
  32 0000 08B5     		push	{r3, lr}
  33              		.cfi_def_cfa_offset 8
  34              		.cfi_offset 3, -8
  35              		.cfi_offset 14, -4
  62:main.c        ****     Global_time++;
  36              		.loc 1 62 0
  37 0002 034A     		ldr	r2, .L3
  38 0004 1368     		ldr	r3, [r2]
  39 0006 0133     		adds	r3, r3, #1
  40 0008 1360     		str	r3, [r2]
  63:main.c        ****     Timer_Int_ClearPending();
  41              		.loc 1 63 0
  42 000a FFF7FEFF 		bl	Timer_Int_ClearPending
  43              	.LVL0:
  44 000e 08BD     		pop	{r3, pc}
  45              	.L4:
  46              		.align	2
  47              	.L3:
  48 0010 00000000 		.word	Global_time
  49              		.cfi_endproc
  50              	.LFE64:
  51              		.size	Timer_ISR, .-Timer_ISR
ARM GAS  C:\Users\scott\AppData\Local\Temp\ccizu4DE.s 			page 3


  52              		.section	.text.Rx_Timer_ISR,"ax",%progbits
  53              		.align	2
  54              		.global	Rx_Timer_ISR
  55              		.thumb
  56              		.thumb_func
  57              		.type	Rx_Timer_ISR, %function
  58              	Rx_Timer_ISR:
  59              	.LFB65:
  64:main.c        **** }
  65:main.c        **** CY_ISR(Rx_Timer_ISR)
  66:main.c        **** {
  60              		.loc 1 66 0
  61              		.cfi_startproc
  62              		@ args = 0, pretend = 0, frame = 0
  63              		@ frame_needed = 0, uses_anonymous_args = 0
  64 0000 08B5     		push	{r3, lr}
  65              		.cfi_def_cfa_offset 8
  66              		.cfi_offset 3, -8
  67              		.cfi_offset 14, -4
  67:main.c        ****   if (Rx_Timer_STATUS_TC & Rx_Timer_ReadStatusRegister())
  68              		.loc 1 67 0
  69 0002 FFF7FEFF 		bl	Rx_Timer_ReadStatusRegister
  70              	.LVL1:
  71 0006 10F0010F 		tst	r0, #1
  72 000a 02D0     		beq	.L6
  68:main.c        ****   {
  69:main.c        ****     rx_timed_out = 1;
  73              		.loc 1 69 0
  74 000c 0122     		movs	r2, #1
  75 000e 024B     		ldr	r3, .L8
  76 0010 1A70     		strb	r2, [r3]
  77              	.L6:
  70:main.c        ****   }
  71:main.c        ****   Rx_Timer_Int_ClearPending();
  78              		.loc 1 71 0
  79 0012 FFF7FEFF 		bl	Rx_Timer_Int_ClearPending
  80              	.LVL2:
  81 0016 08BD     		pop	{r3, pc}
  82              	.L9:
  83              		.align	2
  84              	.L8:
  85 0018 00000000 		.word	rx_timed_out
  86              		.cfi_endproc
  87              	.LFE65:
  88              		.size	Rx_Timer_ISR, .-Rx_Timer_ISR
  89              		.section	.text.Rx_ISR,"ax",%progbits
  90              		.align	2
  91              		.global	Rx_ISR
  92              		.thumb
  93              		.thumb_func
  94              		.type	Rx_ISR, %function
  95              	Rx_ISR:
  96              	.LFB66:
  72:main.c        **** }
  73:main.c        **** CY_ISR(Rx_ISR){     //ISR for 'On Byte Recd.'
  97              		.loc 1 73 0
  98              		.cfi_startproc
ARM GAS  C:\Users\scott\AppData\Local\Temp\ccizu4DE.s 			page 4


  99              		@ args = 0, pretend = 0, frame = 0
 100              		@ frame_needed = 0, uses_anonymous_args = 0
 101 0000 08B5     		push	{r3, lr}
 102              		.cfi_def_cfa_offset 8
 103              		.cfi_offset 3, -8
 104              		.cfi_offset 14, -4
  74:main.c        **** 	uint16 GetB;    //16bit var for storing GetByte's return.
  75:main.c        **** 	RS485_ReadRxStatus();   //Read it to clear interrupts.
 105              		.loc 1 75 0
 106 0002 FFF7FEFF 		bl	RS485_ReadRxStatus
 107              	.LVL3:
  76:main.c        **** 	GetB=RS485_GetByte();   //MSB has RxStatus Reg,and LSB has the data.
 108              		.loc 1 76 0
 109 0006 FFF7FEFF 		bl	RS485_GetByte
 110              	.LVL4:
  77:main.c        ****   rs485_buffer[rs485_pos++] = (GetB & 0xff);  // put the character in the buffer
 111              		.loc 1 77 0
 112 000a 0849     		ldr	r1, .L13
 113 000c 0A78     		ldrb	r2, [r1]	@ zero_extendqisi2
 114 000e 531C     		adds	r3, r2, #1
 115 0010 DBB2     		uxtb	r3, r3
 116 0012 0B70     		strb	r3, [r1]
 117 0014 0649     		ldr	r1, .L13+4
 118 0016 8854     		strb	r0, [r1, r2]
  78:main.c        ****   if (rs485_pos > 254)
 119              		.loc 1 78 0
 120 0018 FF2B     		cmp	r3, #255
 121 001a 02D1     		bne	.L11
  79:main.c        ****       rs485_pos = 254;
 122              		.loc 1 79 0
 123 001c FE22     		movs	r2, #254
 124 001e 034B     		ldr	r3, .L13
 125 0020 1A70     		strb	r2, [r3]
 126              	.L11:
  80:main.c        ****   Rx_Timer_Stop();
 127              		.loc 1 80 0
 128 0022 FFF7FEFF 		bl	Rx_Timer_Stop
 129              	.LVL5:
  81:main.c        ****   Rx_Timer_Start();
 130              		.loc 1 81 0
 131 0026 FFF7FEFF 		bl	Rx_Timer_Start
 132              	.LVL6:
 133 002a 08BD     		pop	{r3, pc}
 134              	.L14:
 135              		.align	2
 136              	.L13:
 137 002c 00000000 		.word	rs485_pos
 138 0030 00000000 		.word	rs485_buffer
 139              		.cfi_endproc
 140              	.LFE66:
 141              		.size	Rx_ISR, .-Rx_ISR
 142              		.section	.text.Wemos_Rx_ISR,"ax",%progbits
 143              		.align	2
 144              		.global	Wemos_Rx_ISR
 145              		.thumb
 146              		.thumb_func
 147              		.type	Wemos_Rx_ISR, %function
ARM GAS  C:\Users\scott\AppData\Local\Temp\ccizu4DE.s 			page 5


 148              	Wemos_Rx_ISR:
 149              	.LFB67:
  82:main.c        **** }
  83:main.c        **** CY_ISR(Wemos_Rx_ISR){     //ISR for 'On Byte Recd.'
 150              		.loc 1 83 0
 151              		.cfi_startproc
 152              		@ args = 0, pretend = 0, frame = 0
 153              		@ frame_needed = 0, uses_anonymous_args = 0
 154 0000 08B5     		push	{r3, lr}
 155              		.cfi_def_cfa_offset 8
 156              		.cfi_offset 3, -8
 157              		.cfi_offset 14, -4
  84:main.c        **** 	uint16 GetB;    //16bit var for storing GetByte's return.
  85:main.c        **** 	Wemos_ReadRxStatus();   //Read it to clear interrupts.
 158              		.loc 1 85 0
 159 0002 FFF7FEFF 		bl	Wemos_ReadRxStatus
 160              	.LVL7:
  86:main.c        **** 	GetB=Wemos_GetByte();   //MSB has RxStatus Reg,and LSB has the data.
 161              		.loc 1 86 0
 162 0006 FFF7FEFF 		bl	Wemos_GetByte
 163              	.LVL8:
  87:main.c        ****   if((GetB & 0xff)==0x1b)
 164              		.loc 1 87 0
 165 000a C3B2     		uxtb	r3, r0
 166 000c 1B2B     		cmp	r3, #27
 167 000e 0DD1     		bne	.L16
  88:main.c        ****   {    // did an escape character get received?
  89:main.c        ****     LED_Write(1);
 168              		.loc 1 89 0
 169 0010 0120     		movs	r0, #1
 170              	.LVL9:
 171 0012 FFF7FEFF 		bl	LED_Write
 172              	.LVL10:
  90:main.c        **** 		esc=1;              // set the flag
 173              		.loc 1 90 0
 174 0016 0122     		movs	r2, #1
 175 0018 0C4B     		ldr	r3, .L19
 176 001a 1A70     		strb	r2, [r3]
  91:main.c        **** 		wemos_pos=0;          // prepare for the next character
 177              		.loc 1 91 0
 178 001c 0022     		movs	r2, #0
 179 001e 0C4B     		ldr	r3, .L19+4
 180 0020 1A70     		strb	r2, [r3]
  92:main.c        **** 		esc_time = Global_time; // record when the escape was received
 181              		.loc 1 92 0
 182 0022 0C4B     		ldr	r3, .L19+8
 183 0024 1A68     		ldr	r2, [r3]
 184 0026 0C4B     		ldr	r3, .L19+12
 185 0028 1A60     		str	r2, [r3]
 186 002a 08BD     		pop	{r3, pc}
 187              	.LVL11:
 188              	.L16:
  93:main.c        **** 	}
  94:main.c        ****   else if (esc)   // had an escape character already been received?
 189              		.loc 1 94 0
 190 002c 074B     		ldr	r3, .L19
 191 002e 1B78     		ldrb	r3, [r3]	@ zero_extendqisi2
ARM GAS  C:\Users\scott\AppData\Local\Temp\ccizu4DE.s 			page 6


 192 0030 5BB1     		cbz	r3, .L15
  95:main.c        ****   {
  96:main.c        ****     wemos_buffer[wemos_pos++] = (GetB & 0xff);  // put the character in the buffer
 193              		.loc 1 96 0
 194 0032 0749     		ldr	r1, .L19+4
 195 0034 0A78     		ldrb	r2, [r1]	@ zero_extendqisi2
 196 0036 531C     		adds	r3, r2, #1
 197 0038 DBB2     		uxtb	r3, r3
 198 003a 0B70     		strb	r3, [r1]
 199 003c 0749     		ldr	r1, .L19+16
 200 003e 8854     		strb	r0, [r1, r2]
  97:main.c        ****     if (wemos_pos > 100)
 201              		.loc 1 97 0
 202 0040 642B     		cmp	r3, #100
 203 0042 02D9     		bls	.L15
  98:main.c        ****         wemos_pos = 0;
 204              		.loc 1 98 0
 205 0044 0022     		movs	r2, #0
 206 0046 024B     		ldr	r3, .L19+4
 207 0048 1A70     		strb	r2, [r3]
 208              	.L15:
 209 004a 08BD     		pop	{r3, pc}
 210              	.L20:
 211              		.align	2
 212              	.L19:
 213 004c 00000000 		.word	esc
 214 0050 00000000 		.word	.LANCHOR0
 215 0054 00000000 		.word	Global_time
 216 0058 00000000 		.word	esc_time
 217 005c 00000000 		.word	wemos_buffer
 218              		.cfi_endproc
 219              	.LFE67:
 220              		.size	Wemos_Rx_ISR, .-Wemos_Rx_ISR
 221              		.global	__aeabi_fsub
 222              		.global	__aeabi_fcmpgt
 223              		.global	__aeabi_fadd
 224              		.section	.text.checkDiff,"ax",%progbits
 225              		.align	2
 226              		.global	checkDiff
 227              		.thumb
 228              		.thumb_func
 229              		.type	checkDiff, %function
 230              	checkDiff:
 231              	.LFB68:
  99:main.c        ****   }
 100:main.c        **** }
 101:main.c        **** //========================================================================================
 102:main.c        **** // This simple function compares two values to see if they are different by more than maxDiff
 103:main.c        **** //========================================================================================
 104:main.c        **** _Bool checkDiff(float newValue, float prevValue, float maxDiff)
 105:main.c        **** {
 232              		.loc 1 105 0
 233              		.cfi_startproc
 234              		@ args = 0, pretend = 0, frame = 0
 235              		@ frame_needed = 0, uses_anonymous_args = 0
 236              	.LVL12:
 237 0000 70B5     		push	{r4, r5, r6, lr}
ARM GAS  C:\Users\scott\AppData\Local\Temp\ccizu4DE.s 			page 7


 238              		.cfi_def_cfa_offset 16
 239              		.cfi_offset 4, -16
 240              		.cfi_offset 5, -12
 241              		.cfi_offset 6, -8
 242              		.cfi_offset 14, -4
 243 0002 0446     		mov	r4, r0
 244 0004 0D46     		mov	r5, r1
 245 0006 1646     		mov	r6, r2
 106:main.c        ****   return (newValue < prevValue - maxDiff || newValue > prevValue + maxDiff);
 246              		.loc 1 106 0
 247 0008 1146     		mov	r1, r2
 248              	.LVL13:
 249 000a 2846     		mov	r0, r5
 250              	.LVL14:
 251 000c FFF7FEFF 		bl	__aeabi_fsub
 252              	.LVL15:
 253 0010 2146     		mov	r1, r4
 254 0012 FFF7FEFF 		bl	__aeabi_fcmpgt
 255              	.LVL16:
 256 0016 50B9     		cbnz	r0, .L24
 257              		.loc 1 106 0 is_stmt 0 discriminator 2
 258 0018 3146     		mov	r1, r6
 259 001a 2846     		mov	r0, r5
 260 001c FFF7FEFF 		bl	__aeabi_fadd
 261              	.LVL17:
 262 0020 0146     		mov	r1, r0
 263 0022 2046     		mov	r0, r4
 264 0024 FFF7FEFF 		bl	__aeabi_fcmpgt
 265              	.LVL18:
 266 0028 18B1     		cbz	r0, .L27
 267              		.loc 1 106 0
 268 002a 0120     		movs	r0, #1
 269 002c 70BD     		pop	{r4, r5, r6, pc}
 270              	.LVL19:
 271              	.L24:
 272 002e 0120     		movs	r0, #1
 273 0030 70BD     		pop	{r4, r5, r6, pc}
 274              	.LVL20:
 275              	.L27:
 276 0032 0020     		movs	r0, #0
 107:main.c        **** }
 277              		.loc 1 107 0 is_stmt 1
 278 0034 70BD     		pop	{r4, r5, r6, pc}
 279              		.cfi_endproc
 280              	.LFE68:
 281              		.size	checkDiff, .-checkDiff
 282 0036 00BF     		.section	.text.printBinary,"ax",%progbits
 283              		.align	2
 284              		.global	printBinary
 285              		.thumb
 286              		.thumb_func
 287              		.type	printBinary, %function
 288              	printBinary:
 289              	.LFB70:
 108:main.c        **** //========================================================================================
 109:main.c        **** /*
 110:main.c        ****  * Register mapping is
ARM GAS  C:\Users\scott\AppData\Local\Temp\ccizu4DE.s 			page 8


 111:main.c        ****  *  0-3 DS18B20 Temp is degrees Centigrade times 100 in the first register, then 6 address bytes in
 112:main.c        ****  *  4-7 The second DS18B20 that was found (if any)
 113:main.c        ****  *  8-11 The third DS18B20
 114:main.c        ****  *  12-15 The fourth DS18B20
 115:main.c        ****  *  16-20 The fifth DS18B20
 116:main.c        ****  *  21-23 The sixth, and last DS18B20 found
 117:main.c        ****  *  24 Version number of this program for diagnostics
 118:main.c        ****  *  25 How many seconds have passed since the last sensor readings AKA how out of date are the hold
 119:main.c        ****  *  26 The humidity as read by the HTU21D, times 10 to avoid floating points
 120:main.c        ****  *  27 The compensated humidity from the HTU21D, also times 10
 121:main.c        ****  *  28 The temperature in degrees centigrade from the HTU21D, times 100 to avoid floats
 122:main.c        ****  *  29 If there is a PCF8574, then this register has its value.  Otherwise it is unused.
 123:main.c        ****  *  30 Sent from the master, if non-zero the time is updated.  Set to 0 by this device after the ti
 124:main.c        ****  *  31-36 The time of day with the registers broken down to century, month, day, hour, minute and s
 125:main.c        ****  *  37-40 Available
 126:main.c        ****  */
 127:main.c        **** //========================================================================================
 128:main.c        **** void process_holding_registers(_Bool force)
 129:main.c        **** {
 130:main.c        ****   char ts[9];
 131:main.c        ****   uint8_t i,j,k;    // It's amazing how the variables from fortran just hang around...
 132:main.c        ****   uint16_t modbus_staleness;
 133:main.c        ****   float newTemp;
 134:main.c        **** 
 135:main.c        ****   CyDelay(250);   // provides times for communications to settle
 136:main.c        ****   // Note that modbus doesn't really handle negative values that well.  Everything is a positive in
 137:main.c        ****   for (j = 0; j < MODBUS_COUNT; j++)  // for each unit that is polled we check the registers
 138:main.c        ****   {
 139:main.c        ****     k = 0;
 140:main.c        ****     for (i = 0; i < 30; i++)
 141:main.c        ****       if (registers[j][i] > 0)
 142:main.c        ****         k = 1;    // all k does is indicate that there is a value other than 0 in one of the fields
 143:main.c        ****     if (k)  // we got something from a device cause not everything is 0
 144:main.c        ****     {
 145:main.c        ****       modbus_staleness = (Global_time / 1000) - last_modbus_time + registers[j][25]; // get the rea
 146:main.c        **** 
 147:main.c        ****       // pull the humidity readings from the HTU21D sensor on each remote device
 148:main.c        ****       if (registers[j][28] > 0)
 149:main.c        ****       {
 150:main.c        ****         newTemp = registers[j][28] / 100.0;
 151:main.c        ****         if (force || checkDiff(newTemp, last_registers[j][28] / 100.0, 0.55) ||
 152:main.c        ****             checkDiff(registers[j][26] / 10.0, last_registers[j][26] / 10.0, 0.55) ||
 153:main.c        ****             checkDiff(registers[j][27] / 10.0, last_registers[j][27] / 10.0, 0.55)) // only update 
 154:main.c        ****         {
 155:main.c        ****           last_registers[j][26] = registers[j][26];
 156:main.c        ****           last_registers[j][27] = registers[j][27];
 157:main.c        ****           last_registers[j][28] = registers[j][28];
 158:main.c        ****           CyDelay(100);  // done to let the buffer clear
 159:main.c        ****           sprintf(temp_message, "H|%03d|%06.2f|%05.2f|%05.2f|%c|%c\r\n", modbus_staleness,newTemp,r
 160:main.c        ****           Wemos_PutString(temp_message);  // send to mqtt later
 161:main.c        ****           // try sending twice just to see what happens
 162:main.c        ****           CyDelay(100);  // done to let the buffer clear
 163:main.c        ****           sprintf(temp_message, "H|%03d|%06.2f|%05.2f|%05.2f|%c|%c\r\n", modbus_staleness,newTemp,r
 164:main.c        ****           Wemos_PutString(temp_message);  // send to mqtt later
 165:main.c        ****         }
 166:main.c        ****       }
 167:main.c        **** 
ARM GAS  C:\Users\scott\AppData\Local\Temp\ccizu4DE.s 			page 9


 168:main.c        ****       for (i = 0; i < 6; i++)  // there are up to six ds18b20s on each remote device
 169:main.c        ****       {
 170:main.c        ****         if (registers[j][i*4] > 0)  // If this DS18B20 has a temperature that isn't 0, then queue i
 171:main.c        ****         {
 172:main.c        ****           newTemp = registers[j][i * 4] / 100.0;
 173:main.c        ****           if (force || checkDiff(newTemp, last_registers[j][i * 4] / 100.0, 0.55))  // only update 
 174:main.c        ****           {
 175:main.c        ****             last_registers[j][i * 4] = registers[j][i * 4];
 176:main.c        ****             CyDelay(100);  // done to let the buffer clear
 177:main.c        ****             sprintf(temp_message, "T|%03d|%06.2f|%04x%04x%04x|%c|%c\r\n", modbus_staleness,newTemp,
 178:main.c        ****             Wemos_PutString(temp_message);  // send to mqtt after queuing
 179:main.c        ****           }
 180:main.c        ****         }
 181:main.c        ****       }
 182:main.c        **** 
 183:main.c        ****       // now pull the PCF8574 readings from the remote device
 184:main.c        ****       if (registers[j][29] > 0)
 185:main.c        ****       {
 186:main.c        ****         if (force || registers[j][29] != last_registers[j][29])
 187:main.c        ****         {
 188:main.c        ****           last_registers[j][29] = registers[j][29];
 189:main.c        ****           printBinary((uint8_t)(registers[j][29] & 0xff), ts);
 190:main.c        ****           CyDelay(100);  // done to let the buffer clear
 191:main.c        ****           sprintf(temp_message, "P|%03d|%s|%c|%c\r\n", modbus_staleness,ts,MODBUS_BASE_ADDR + j,myI
 192:main.c        ****           Wemos_PutString(temp_message);  // send to mqtt later
 193:main.c        ****         }
 194:main.c        ****       }
 195:main.c        ****     }
 196:main.c        ****   }
 197:main.c        ****   // ------ End of processing the holding registers
 198:main.c        **** 
 199:main.c        **** }
 200:main.c        **** //========================================================================================
 201:main.c        **** //========================================================================================
 202:main.c        **** void printBinary(uint8_t inByte, char *ts)
 203:main.c        **** {
 290              		.loc 1 203 0
 291              		.cfi_startproc
 292              		@ args = 0, pretend = 0, frame = 0
 293              		@ frame_needed = 0, uses_anonymous_args = 0
 294              		@ link register save eliminated.
 295              	.LVL21:
 296              	.LBB2:
 204:main.c        ****   for (int b = 7; b >= 0; b--)
 297              		.loc 1 204 0
 298 0000 0723     		movs	r3, #7
 299 0002 0CE0     		b	.L30
 300              	.LVL22:
 301              	.L33:
 205:main.c        ****   {
 206:main.c        ****     if (bitRead(inByte, b))
 302              		.loc 1 206 0
 303 0004 40FA03F2 		asr	r2, r0, r3
 304 0008 12F0010F 		tst	r2, #1
 305 000c 03D0     		beq	.L31
 207:main.c        ****     {
 208:main.c        ****       *ts = '0';
ARM GAS  C:\Users\scott\AppData\Local\Temp\ccizu4DE.s 			page 10


 306              		.loc 1 208 0
 307 000e 3022     		movs	r2, #48
 308 0010 01F8012B 		strb	r2, [r1], #1
 309              	.LVL23:
 310 0014 02E0     		b	.L32
 311              	.L31:
 209:main.c        ****       ts++;
 210:main.c        ****     }
 211:main.c        ****     else
 212:main.c        ****     {
 213:main.c        ****       *ts = '1';
 312              		.loc 1 213 0
 313 0016 3122     		movs	r2, #49
 314 0018 01F8012B 		strb	r2, [r1], #1
 315              	.LVL24:
 316              	.L32:
 204:main.c        ****   {
 317              		.loc 1 204 0 discriminator 2
 318 001c 013B     		subs	r3, r3, #1
 319              	.LVL25:
 320              	.L30:
 204:main.c        ****   {
 321              		.loc 1 204 0 is_stmt 0 discriminator 1
 322 001e 002B     		cmp	r3, #0
 323 0020 F0DA     		bge	.L33
 324              	.LBE2:
 214:main.c        ****       ts++;
 215:main.c        ****     }
 216:main.c        ****   }
 217:main.c        ****   *ts = 0; // terminating null
 325              		.loc 1 217 0 is_stmt 1
 326 0022 0023     		movs	r3, #0
 327              	.LVL26:
 328 0024 0B70     		strb	r3, [r1]
 329 0026 7047     		bx	lr
 330              		.cfi_endproc
 331              	.LFE70:
 332              		.size	printBinary, .-printBinary
 333              		.global	__aeabi_i2d
 334              		.global	__aeabi_ddiv
 335              		.global	__aeabi_d2f
 336              		.global	__aeabi_f2d
 337              		.section	.text.process_holding_registers,"ax",%progbits
 338              		.align	2
 339              		.global	process_holding_registers
 340              		.thumb
 341              		.thumb_func
 342              		.type	process_holding_registers, %function
 343              	process_holding_registers:
 344              	.LFB69:
 129:main.c        ****   char ts[9];
 345              		.loc 1 129 0
 346              		.cfi_startproc
 347              		@ args = 0, pretend = 0, frame = 24
 348              		@ frame_needed = 0, uses_anonymous_args = 0
 349              	.LVL27:
 350 0000 2DE9F04F 		push	{r4, r5, r6, r7, r8, r9, r10, fp, lr}
ARM GAS  C:\Users\scott\AppData\Local\Temp\ccizu4DE.s 			page 11


 351              		.cfi_def_cfa_offset 36
 352              		.cfi_offset 4, -36
 353              		.cfi_offset 5, -32
 354              		.cfi_offset 6, -28
 355              		.cfi_offset 7, -24
 356              		.cfi_offset 8, -20
 357              		.cfi_offset 9, -16
 358              		.cfi_offset 10, -12
 359              		.cfi_offset 11, -8
 360              		.cfi_offset 14, -4
 361 0004 8FB0     		sub	sp, sp, #60
 362              		.cfi_def_cfa_offset 96
 363 0006 8346     		mov	fp, r0
 135:main.c        ****   // Note that modbus doesn't really handle negative values that well.  Everything is a positive in
 364              		.loc 1 135 0
 365 0008 FA20     		movs	r0, #250
 366              	.LVL28:
 367 000a FFF7FEFF 		bl	CyDelay
 368              	.LVL29:
 137:main.c        ****   {
 369              		.loc 1 137 0
 370 000e 0024     		movs	r4, #0
 371 0010 B3E1     		b	.L35
 372              	.LVL30:
 373              	.L37:
 141:main.c        ****         k = 1;    // all k does is indicate that there is a value other than 0 in one of the fields
 374              		.loc 1 141 0
 375 0012 C4EB0411 		rsb	r1, r4, r4, lsl #4
 376 0016 8A00     		lsls	r2, r1, #2
 377 0018 1A44     		add	r2, r2, r3
 378 001a 8149     		ldr	r1, .L50
 379 001c 31F81220 		ldrh	r2, [r1, r2, lsl #1]
 380 0020 02B1     		cbz	r2, .L36
 142:main.c        ****     if (k)  // we got something from a device cause not everything is 0
 381              		.loc 1 142 0
 382 0022 0120     		movs	r0, #1
 383              	.LVL31:
 384              	.L36:
 140:main.c        ****       if (registers[j][i] > 0)
 385              		.loc 1 140 0 discriminator 2
 386 0024 0133     		adds	r3, r3, #1
 387              	.LVL32:
 388 0026 DBB2     		uxtb	r3, r3
 389              	.LVL33:
 390 0028 01E0     		b	.L46
 391              	.LVL34:
 392              	.L48:
 393 002a 0020     		movs	r0, #0
 394 002c 0346     		mov	r3, r0
 395              	.L46:
 396              	.LVL35:
 140:main.c        ****       if (registers[j][i] > 0)
 397              		.loc 1 140 0 is_stmt 0 discriminator 1
 398 002e 1D2B     		cmp	r3, #29
 399 0030 EFD9     		bls	.L37
 143:main.c        ****     {
 400              		.loc 1 143 0 is_stmt 1
ARM GAS  C:\Users\scott\AppData\Local\Temp\ccizu4DE.s 			page 12


 401 0032 0028     		cmp	r0, #0
 402 0034 00F09F81 		beq	.L38
 145:main.c        **** 
 403              		.loc 1 145 0
 404 0038 7A4B     		ldr	r3, .L50+4
 405              	.LVL36:
 406 003a 1B68     		ldr	r3, [r3]
 407 003c 7A4A     		ldr	r2, .L50+8
 408 003e A2FB0332 		umull	r3, r2, r2, r3
 409 0042 2646     		mov	r6, r4
 410 0044 2101     		lsls	r1, r4, #4
 411 0046 091B     		subs	r1, r1, r4
 412 0048 CB00     		lsls	r3, r1, #3
 413 004a 7549     		ldr	r1, .L50
 414 004c 0B44     		add	r3, r3, r1
 415 004e 588E     		ldrh	r0, [r3, #50]
 416              	.LVL37:
 417 0050 7649     		ldr	r1, .L50+12
 418 0052 0988     		ldrh	r1, [r1]
 419 0054 C1EB9212 		rsb	r2, r1, r2, lsr #6
 420 0058 0244     		add	r2, r2, r0
 421 005a 1FFA82FA 		uxth	r10, r2
 422              	.LVL38:
 148:main.c        ****       {
 423              		.loc 1 148 0
 424 005e 1D8F     		ldrh	r5, [r3, #56]
 425 0060 002D     		cmp	r5, #0
 426 0062 00F0DA80 		beq	.L39
 150:main.c        ****         if (force || checkDiff(newTemp, last_registers[j][28] / 100.0, 0.55) ||
 427              		.loc 1 150 0
 428 0066 2846     		mov	r0, r5
 429 0068 FFF7FEFF 		bl	__aeabi_i2d
 430              	.LVL39:
 431 006c 0022     		movs	r2, #0
 432 006e 704B     		ldr	r3, .L50+16
 433 0070 FFF7FEFF 		bl	__aeabi_ddiv
 434              	.LVL40:
 435 0074 FFF7FEFF 		bl	__aeabi_d2f
 436              	.LVL41:
 437 0078 0746     		mov	r7, r0
 438              	.LVL42:
 151:main.c        ****             checkDiff(registers[j][26] / 10.0, last_registers[j][26] / 10.0, 0.55) ||
 439              		.loc 1 151 0
 440 007a BBF1000F 		cmp	fp, #0
 441 007e 67D1     		bne	.L40
 151:main.c        ****             checkDiff(registers[j][26] / 10.0, last_registers[j][26] / 10.0, 0.55) ||
 442              		.loc 1 151 0 is_stmt 0 discriminator 1
 443 0080 C4EB0412 		rsb	r2, r4, r4, lsl #4
 444 0084 D300     		lsls	r3, r2, #3
 445 0086 6B4A     		ldr	r2, .L50+20
 446 0088 1344     		add	r3, r3, r2
 447 008a 188F     		ldrh	r0, [r3, #56]
 448              	.LVL43:
 449 008c FFF7FEFF 		bl	__aeabi_i2d
 450              	.LVL44:
 451 0090 0022     		movs	r2, #0
 452 0092 674B     		ldr	r3, .L50+16
ARM GAS  C:\Users\scott\AppData\Local\Temp\ccizu4DE.s 			page 13


 453 0094 FFF7FEFF 		bl	__aeabi_ddiv
 454              	.LVL45:
 455 0098 FFF7FEFF 		bl	__aeabi_d2f
 456              	.LVL46:
 457 009c 664A     		ldr	r2, .L50+24
 458 009e 0146     		mov	r1, r0
 459 00a0 3846     		mov	r0, r7
 460 00a2 FFF7FEFF 		bl	checkDiff
 461              	.LVL47:
 462 00a6 0028     		cmp	r0, #0
 463 00a8 52D1     		bne	.L40
 152:main.c        ****             checkDiff(registers[j][27] / 10.0, last_registers[j][27] / 10.0, 0.55)) // only update 
 464              		.loc 1 152 0 is_stmt 1 discriminator 2
 465 00aa 4FEA0418 		lsl	r8, r4, #4
 466 00ae C4EB0802 		rsb	r2, r4, r8
 467 00b2 D300     		lsls	r3, r2, #3
 468 00b4 5A4A     		ldr	r2, .L50
 469 00b6 1344     		add	r3, r3, r2
 470 00b8 988E     		ldrh	r0, [r3, #52]
 471 00ba FFF7FEFF 		bl	__aeabi_i2d
 472              	.LVL48:
 473 00be 0022     		movs	r2, #0
 474 00c0 5E4B     		ldr	r3, .L50+28
 475 00c2 FFF7FEFF 		bl	__aeabi_ddiv
 476              	.LVL49:
 477 00c6 CDE90801 		strd	r0, [sp, #32]
 478 00ca C4EB0808 		rsb	r8, r4, r8
 479 00ce 4FEAC803 		lsl	r3, r8, #3
 480 00d2 584A     		ldr	r2, .L50+20
 481 00d4 1344     		add	r3, r3, r2
 482 00d6 988E     		ldrh	r0, [r3, #52]
 483 00d8 FFF7FEFF 		bl	__aeabi_i2d
 484              	.LVL50:
 485 00dc 0022     		movs	r2, #0
 486 00de 574B     		ldr	r3, .L50+28
 487 00e0 FFF7FEFF 		bl	__aeabi_ddiv
 488              	.LVL51:
 489 00e4 FFF7FEFF 		bl	__aeabi_d2f
 490              	.LVL52:
 491 00e8 8046     		mov	r8, r0
 492 00ea DDE90801 		ldrd	r0, [sp, #32]
 493 00ee FFF7FEFF 		bl	__aeabi_d2f
 494              	.LVL53:
 495 00f2 514A     		ldr	r2, .L50+24
 496 00f4 4146     		mov	r1, r8
 497 00f6 FFF7FEFF 		bl	checkDiff
 498              	.LVL54:
 151:main.c        ****             checkDiff(registers[j][26] / 10.0, last_registers[j][26] / 10.0, 0.55) ||
 499              		.loc 1 151 0 discriminator 2
 500 00fa 48BB     		cbnz	r0, .L40
 153:main.c        ****         {
 501              		.loc 1 153 0
 502 00fc 4FEA0418 		lsl	r8, r4, #4
 503 0100 C4EB0802 		rsb	r2, r4, r8
 504 0104 D300     		lsls	r3, r2, #3
 505 0106 464A     		ldr	r2, .L50
 506 0108 1344     		add	r3, r3, r2
ARM GAS  C:\Users\scott\AppData\Local\Temp\ccizu4DE.s 			page 14


 507 010a D88E     		ldrh	r0, [r3, #54]
 508 010c FFF7FEFF 		bl	__aeabi_i2d
 509              	.LVL55:
 510 0110 0022     		movs	r2, #0
 511 0112 4A4B     		ldr	r3, .L50+28
 512 0114 FFF7FEFF 		bl	__aeabi_ddiv
 513              	.LVL56:
 514 0118 CDE90801 		strd	r0, [sp, #32]
 515 011c C4EB0808 		rsb	r8, r4, r8
 516 0120 4FEAC803 		lsl	r3, r8, #3
 517 0124 434A     		ldr	r2, .L50+20
 518 0126 1344     		add	r3, r3, r2
 519 0128 D88E     		ldrh	r0, [r3, #54]
 520 012a FFF7FEFF 		bl	__aeabi_i2d
 521              	.LVL57:
 522 012e 0022     		movs	r2, #0
 523 0130 424B     		ldr	r3, .L50+28
 524 0132 FFF7FEFF 		bl	__aeabi_ddiv
 525              	.LVL58:
 526 0136 FFF7FEFF 		bl	__aeabi_d2f
 527              	.LVL59:
 528 013a 8046     		mov	r8, r0
 529 013c DDE90801 		ldrd	r0, [sp, #32]
 530 0140 FFF7FEFF 		bl	__aeabi_d2f
 531              	.LVL60:
 532 0144 3C4A     		ldr	r2, .L50+24
 533 0146 4146     		mov	r1, r8
 534 0148 FFF7FEFF 		bl	checkDiff
 535              	.LVL61:
 152:main.c        ****             checkDiff(registers[j][27] / 10.0, last_registers[j][27] / 10.0, 0.55)) // only update 
 536              		.loc 1 152 0
 537 014c 0028     		cmp	r0, #0
 538 014e 64D0     		beq	.L39
 539              	.L40:
 155:main.c        ****           last_registers[j][27] = registers[j][27];
 540              		.loc 1 155 0
 541 0150 3201     		lsls	r2, r6, #4
 542 0152 911B     		subs	r1, r2, r6
 543 0154 CB00     		lsls	r3, r1, #3
 544 0156 3249     		ldr	r1, .L50
 545 0158 01EB0308 		add	r8, r1, r3
 546 015c B8F83410 		ldrh	r1, [r8, #52]
 547 0160 344A     		ldr	r2, .L50+20
 548 0162 1344     		add	r3, r3, r2
 549 0164 9986     		strh	r1, [r3, #52]	@ movhi
 156:main.c        ****           last_registers[j][28] = registers[j][28];
 550              		.loc 1 156 0
 551 0166 B8F83620 		ldrh	r2, [r8, #54]
 552 016a DA86     		strh	r2, [r3, #54]	@ movhi
 157:main.c        ****           CyDelay(100);  // done to let the buffer clear
 553              		.loc 1 157 0
 554 016c 1D87     		strh	r5, [r3, #56]	@ movhi
 158:main.c        ****           sprintf(temp_message, "H|%03d|%06.2f|%05.2f|%05.2f|%c|%c\r\n", modbus_staleness,newTemp,r
 555              		.loc 1 158 0
 556 016e 6420     		movs	r0, #100
 557 0170 FFF7FEFF 		bl	CyDelay
 558              	.LVL62:
ARM GAS  C:\Users\scott\AppData\Local\Temp\ccizu4DE.s 			page 15


 159:main.c        ****           Wemos_PutString(temp_message);  // send to mqtt later
 559              		.loc 1 159 0
 560 0174 3846     		mov	r0, r7
 561 0176 FFF7FEFF 		bl	__aeabi_f2d
 562              	.LVL63:
 563 017a CDE90801 		strd	r0, [sp, #32]
 564 017e B8F83490 		ldrh	r9, [r8, #52]
 565 0182 B8F83600 		ldrh	r0, [r8, #54]
 566 0186 06F13105 		add	r5, r6, #49
 567 018a 2D4F     		ldr	r7, .L50+32
 568              	.LVL64:
 569 018c 3B78     		ldrb	r3, [r7]	@ zero_extendqisi2
 570 018e 0793     		str	r3, [sp, #28]
 571 0190 0695     		str	r5, [sp, #24]
 572 0192 FFF7FEFF 		bl	__aeabi_i2d
 573              	.LVL65:
 574 0196 0022     		movs	r2, #0
 575 0198 284B     		ldr	r3, .L50+28
 576 019a FFF7FEFF 		bl	__aeabi_ddiv
 577              	.LVL66:
 578 019e CDE90401 		strd	r0, [sp, #16]
 579 01a2 4846     		mov	r0, r9
 580 01a4 FFF7FEFF 		bl	__aeabi_i2d
 581              	.LVL67:
 582 01a8 0022     		movs	r2, #0
 583 01aa 244B     		ldr	r3, .L50+28
 584 01ac FFF7FEFF 		bl	__aeabi_ddiv
 585              	.LVL68:
 586 01b0 CDE90201 		strd	r0, [sp, #8]
 587 01b4 DDE90823 		ldrd	r2, [sp, #32]
 588 01b8 CDE90023 		strd	r2, [sp]
 589 01bc 5246     		mov	r2, r10
 590 01be 2149     		ldr	r1, .L50+36
 591 01c0 2148     		ldr	r0, .L50+40
 592 01c2 FFF7FEFF 		bl	sprintf
 593              	.LVL69:
 160:main.c        ****           // try sending twice just to see what happens
 594              		.loc 1 160 0
 595 01c6 2048     		ldr	r0, .L50+40
 596 01c8 FFF7FEFF 		bl	Wemos_PutString
 597              	.LVL70:
 162:main.c        ****           sprintf(temp_message, "H|%03d|%06.2f|%05.2f|%05.2f|%c|%c\r\n", modbus_staleness,newTemp,r
 598              		.loc 1 162 0
 599 01cc 6420     		movs	r0, #100
 600 01ce FFF7FEFF 		bl	CyDelay
 601              	.LVL71:
 163:main.c        ****           Wemos_PutString(temp_message);  // send to mqtt later
 602              		.loc 1 163 0
 603 01d2 B8F83490 		ldrh	r9, [r8, #52]
 604 01d6 B8F83600 		ldrh	r0, [r8, #54]
 605 01da 3B78     		ldrb	r3, [r7]	@ zero_extendqisi2
 606 01dc 0793     		str	r3, [sp, #28]
 607 01de 0695     		str	r5, [sp, #24]
 608 01e0 FFF7FEFF 		bl	__aeabi_i2d
 609              	.LVL72:
 610 01e4 0022     		movs	r2, #0
 611 01e6 154B     		ldr	r3, .L50+28
ARM GAS  C:\Users\scott\AppData\Local\Temp\ccizu4DE.s 			page 16


 612 01e8 FFF7FEFF 		bl	__aeabi_ddiv
 613              	.LVL73:
 614 01ec CDE90401 		strd	r0, [sp, #16]
 615 01f0 4846     		mov	r0, r9
 616 01f2 FFF7FEFF 		bl	__aeabi_i2d
 617              	.LVL74:
 618 01f6 0022     		movs	r2, #0
 619 01f8 104B     		ldr	r3, .L50+28
 620 01fa FFF7FEFF 		bl	__aeabi_ddiv
 621              	.LVL75:
 622 01fe CDE90201 		strd	r0, [sp, #8]
 623 0202 DDE90823 		ldrd	r2, [sp, #32]
 624 0206 CDE90023 		strd	r2, [sp]
 625 020a 5246     		mov	r2, r10
 626 020c 0D49     		ldr	r1, .L50+36
 627 020e 0E48     		ldr	r0, .L50+40
 628 0210 FFF7FEFF 		bl	sprintf
 629              	.LVL76:
 164:main.c        ****         }
 630              		.loc 1 164 0
 631 0214 0C48     		ldr	r0, .L50+40
 632 0216 FFF7FEFF 		bl	Wemos_PutString
 633              	.LVL77:
 634              	.L39:
 635 021a 0025     		movs	r5, #0
 636 021c A146     		mov	r9, r4
 637 021e 79E0     		b	.L41
 638              	.L51:
 639              		.align	2
 640              	.L50:
 641 0220 00000000 		.word	registers
 642 0224 00000000 		.word	Global_time
 643 0228 D34D6210 		.word	274877907
 644 022c 00000000 		.word	last_modbus_time
 645 0230 00005940 		.word	1079574528
 646 0234 00000000 		.word	last_registers
 647 0238 CDCC0C3F 		.word	1057803469
 648 023c 00002440 		.word	1076101120
 649 0240 00000000 		.word	myId
 650 0244 00000000 		.word	.LC0
 651 0248 00000000 		.word	temp_message
 652              	.LVL78:
 653              	.L44:
 170:main.c        ****         {
 654              		.loc 1 170 0
 655 024c AF00     		lsls	r7, r5, #2
 656 024e C6EB0612 		rsb	r2, r6, r6, lsl #4
 657 0252 9300     		lsls	r3, r2, #2
 658 0254 3B44     		add	r3, r3, r7
 659 0256 4C4A     		ldr	r2, .L52
 660 0258 32F81340 		ldrh	r4, [r2, r3, lsl #1]
 661 025c 002C     		cmp	r4, #0
 662 025e 57D0     		beq	.L42
 172:main.c        ****           if (force || checkDiff(newTemp, last_registers[j][i * 4] / 100.0, 0.55))  // only update 
 663              		.loc 1 172 0
 664 0260 2046     		mov	r0, r4
 665 0262 FFF7FEFF 		bl	__aeabi_i2d
ARM GAS  C:\Users\scott\AppData\Local\Temp\ccizu4DE.s 			page 17


 666              	.LVL79:
 667 0266 0022     		movs	r2, #0
 668 0268 484B     		ldr	r3, .L52+4
 669 026a FFF7FEFF 		bl	__aeabi_ddiv
 670              	.LVL80:
 671 026e FFF7FEFF 		bl	__aeabi_d2f
 672              	.LVL81:
 673 0272 8046     		mov	r8, r0
 674 0274 0890     		str	r0, [sp, #32]	@ float
 675              	.LVL82:
 173:main.c        ****           {
 676              		.loc 1 173 0
 677 0276 BBF1000F 		cmp	fp, #0
 678 027a 15D1     		bne	.L43
 173:main.c        ****           {
 679              		.loc 1 173 0 is_stmt 0 discriminator 1
 680 027c C6EB0612 		rsb	r2, r6, r6, lsl #4
 681 0280 9300     		lsls	r3, r2, #2
 682 0282 3B44     		add	r3, r3, r7
 683 0284 424A     		ldr	r2, .L52+8
 684 0286 32F81300 		ldrh	r0, [r2, r3, lsl #1]
 685              	.LVL83:
 686 028a FFF7FEFF 		bl	__aeabi_i2d
 687              	.LVL84:
 688 028e 0022     		movs	r2, #0
 689 0290 3E4B     		ldr	r3, .L52+4
 690 0292 FFF7FEFF 		bl	__aeabi_ddiv
 691              	.LVL85:
 692 0296 FFF7FEFF 		bl	__aeabi_d2f
 693              	.LVL86:
 694 029a 3E4A     		ldr	r2, .L52+12
 695 029c 0146     		mov	r1, r0
 696 029e 4046     		mov	r0, r8
 697 02a0 FFF7FEFF 		bl	checkDiff
 698              	.LVL87:
 699 02a4 0028     		cmp	r0, #0
 700 02a6 33D0     		beq	.L42
 701              	.L43:
 175:main.c        ****             CyDelay(100);  // done to let the buffer clear
 702              		.loc 1 175 0 is_stmt 1
 703 02a8 4FEA0618 		lsl	r8, r6, #4
 704              	.LVL88:
 705 02ac C6EB0802 		rsb	r2, r6, r8
 706 02b0 9300     		lsls	r3, r2, #2
 707 02b2 3B44     		add	r3, r3, r7
 708 02b4 364A     		ldr	r2, .L52+8
 709 02b6 22F81340 		strh	r4, [r2, r3, lsl #1]	@ movhi
 176:main.c        ****             sprintf(temp_message, "T|%03d|%06.2f|%04x%04x%04x|%c|%c\r\n", modbus_staleness,newTemp,
 710              		.loc 1 176 0
 711 02ba 6420     		movs	r0, #100
 712 02bc FFF7FEFF 		bl	CyDelay
 713              	.LVL89:
 177:main.c        ****             Wemos_PutString(temp_message);  // send to mqtt after queuing
 714              		.loc 1 177 0
 715 02c0 7A1C     		adds	r2, r7, #1
 716 02c2 314B     		ldr	r3, .L52
 717 02c4 C6EB0800 		rsb	r0, r6, r8
ARM GAS  C:\Users\scott\AppData\Local\Temp\ccizu4DE.s 			page 18


 718 02c8 8100     		lsls	r1, r0, #2
 719 02ca 0A44     		add	r2, r2, r1
 720 02cc 33F81210 		ldrh	r1, [r3, r2, lsl #1]
 721 02d0 BA1C     		adds	r2, r7, #2
 722 02d2 8000     		lsls	r0, r0, #2
 723 02d4 0244     		add	r2, r2, r0
 724 02d6 33F81220 		ldrh	r2, [r3, r2, lsl #1]
 725 02da 0337     		adds	r7, r7, #3
 726 02dc 0744     		add	r7, r7, r0
 727 02de 33F81730 		ldrh	r3, [r3, r7, lsl #1]
 728 02e2 2D4C     		ldr	r4, .L52+16
 729 02e4 2D48     		ldr	r0, .L52+20
 730 02e6 0078     		ldrb	r0, [r0]	@ zero_extendqisi2
 731 02e8 0690     		str	r0, [sp, #24]
 732 02ea 06F13100 		add	r0, r6, #49
 733 02ee 0590     		str	r0, [sp, #20]
 734 02f0 0493     		str	r3, [sp, #16]
 735 02f2 0392     		str	r2, [sp, #12]
 736 02f4 0291     		str	r1, [sp, #8]
 737 02f6 0898     		ldr	r0, [sp, #32]	@ float
 738 02f8 FFF7FEFF 		bl	__aeabi_f2d
 739              	.LVL90:
 740 02fc CDE90001 		strd	r0, [sp]
 741 0300 5246     		mov	r2, r10
 742 0302 2749     		ldr	r1, .L52+24
 743 0304 2046     		mov	r0, r4
 744 0306 FFF7FEFF 		bl	sprintf
 745              	.LVL91:
 178:main.c        ****           }
 746              		.loc 1 178 0
 747 030a 2046     		mov	r0, r4
 748 030c FFF7FEFF 		bl	Wemos_PutString
 749              	.LVL92:
 750              	.L42:
 168:main.c        ****       {
 751              		.loc 1 168 0 discriminator 2
 752 0310 0135     		adds	r5, r5, #1
 753              	.LVL93:
 754 0312 EDB2     		uxtb	r5, r5
 755              	.LVL94:
 756              	.L41:
 168:main.c        ****       {
 757              		.loc 1 168 0 is_stmt 0 discriminator 1
 758 0314 052D     		cmp	r5, #5
 759 0316 99D9     		bls	.L44
 760 0318 4C46     		mov	r4, r9
 184:main.c        ****       {
 761              		.loc 1 184 0 is_stmt 1
 762 031a C6EB0612 		rsb	r2, r6, r6, lsl #4
 763 031e D300     		lsls	r3, r2, #3
 764 0320 194A     		ldr	r2, .L52
 765 0322 1344     		add	r3, r3, r2
 766 0324 588F     		ldrh	r0, [r3, #58]
 767 0326 30B3     		cbz	r0, .L38
 186:main.c        ****         {
 768              		.loc 1 186 0
 769 0328 BBF1000F 		cmp	fp, #0
ARM GAS  C:\Users\scott\AppData\Local\Temp\ccizu4DE.s 			page 19


 770 032c 07D1     		bne	.L45
 186:main.c        ****         {
 771              		.loc 1 186 0 is_stmt 0 discriminator 1
 772 032e C6EB0612 		rsb	r2, r6, r6, lsl #4
 773 0332 D300     		lsls	r3, r2, #3
 774 0334 164A     		ldr	r2, .L52+8
 775 0336 1344     		add	r3, r3, r2
 776 0338 5B8F     		ldrh	r3, [r3, #58]
 777 033a 9842     		cmp	r0, r3
 778 033c 1BD0     		beq	.L38
 779              	.L45:
 188:main.c        ****           printBinary((uint8_t)(registers[j][29] & 0xff), ts);
 780              		.loc 1 188 0 is_stmt 1
 781 033e C6EB0612 		rsb	r2, r6, r6, lsl #4
 782 0342 D300     		lsls	r3, r2, #3
 783 0344 124A     		ldr	r2, .L52+8
 784 0346 1344     		add	r3, r3, r2
 785 0348 5887     		strh	r0, [r3, #58]	@ movhi
 189:main.c        ****           CyDelay(100);  // done to let the buffer clear
 786              		.loc 1 189 0
 787 034a 0BA9     		add	r1, sp, #44
 788 034c C0B2     		uxtb	r0, r0
 789 034e FFF7FEFF 		bl	printBinary
 790              	.LVL95:
 190:main.c        ****           sprintf(temp_message, "P|%03d|%s|%c|%c\r\n", modbus_staleness,ts,MODBUS_BASE_ADDR + j,myI
 791              		.loc 1 190 0
 792 0352 6420     		movs	r0, #100
 793 0354 FFF7FEFF 		bl	CyDelay
 794              	.LVL96:
 191:main.c        ****           Wemos_PutString(temp_message);  // send to mqtt later
 795              		.loc 1 191 0
 796 0358 0F4D     		ldr	r5, .L52+16
 797              	.LVL97:
 798 035a 104B     		ldr	r3, .L52+20
 799 035c 1B78     		ldrb	r3, [r3]	@ zero_extendqisi2
 800 035e 0193     		str	r3, [sp, #4]
 801 0360 3136     		adds	r6, r6, #49
 802 0362 0096     		str	r6, [sp]
 803 0364 0BAB     		add	r3, sp, #44
 804 0366 5246     		mov	r2, r10
 805 0368 0E49     		ldr	r1, .L52+28
 806 036a 2846     		mov	r0, r5
 807 036c FFF7FEFF 		bl	sprintf
 808              	.LVL98:
 192:main.c        ****         }
 809              		.loc 1 192 0
 810 0370 2846     		mov	r0, r5
 811 0372 FFF7FEFF 		bl	Wemos_PutString
 812              	.LVL99:
 813              	.L38:
 137:main.c        ****   {
 814              		.loc 1 137 0 discriminator 2
 815 0376 0134     		adds	r4, r4, #1
 816 0378 E4B2     		uxtb	r4, r4
 817              	.LVL100:
 818              	.L35:
 137:main.c        ****   {
ARM GAS  C:\Users\scott\AppData\Local\Temp\ccizu4DE.s 			page 20


 819              		.loc 1 137 0 is_stmt 0 discriminator 1
 820 037a 092C     		cmp	r4, #9
 821 037c 7FF655AE 		bls	.L48
 199:main.c        **** //========================================================================================
 822              		.loc 1 199 0 is_stmt 1
 823 0380 0FB0     		add	sp, sp, #60
 824              		.cfi_def_cfa_offset 36
 825              		@ sp needed
 826 0382 BDE8F08F 		pop	{r4, r5, r6, r7, r8, r9, r10, fp, pc}
 827              	.LVL101:
 828              	.L53:
 829 0386 00BF     		.align	2
 830              	.L52:
 831 0388 00000000 		.word	registers
 832 038c 00005940 		.word	1079574528
 833 0390 00000000 		.word	last_registers
 834 0394 CDCC0C3F 		.word	1057803469
 835 0398 00000000 		.word	temp_message
 836 039c 00000000 		.word	myId
 837 03a0 24000000 		.word	.LC1
 838 03a4 48000000 		.word	.LC2
 839              		.cfi_endproc
 840              	.LFE69:
 841              		.size	process_holding_registers, .-process_holding_registers
 842              		.global	__aeabi_dmul
 843              		.global	__aeabi_fcmpeq
 844              		.global	__aeabi_dcmplt
 845              		.global	__aeabi_dcmpgt
 846              		.global	__aeabi_dcmpeq
 847              		.section	.text.main,"ax",%progbits
 848              		.align	2
 849              		.global	main
 850              		.thumb
 851              		.thumb_func
 852              		.type	main, %function
 853              	main:
 854              	.LFB71:
 218:main.c        **** }
 219:main.c        **** 
 220:main.c        **** //========================================================================================
 221:main.c        **** //========================================================================================
 222:main.c        **** int main(void)
 223:main.c        **** {
 855              		.loc 1 223 0
 856              		.cfi_startproc
 857              		@ args = 0, pretend = 0, frame = 168
 858              		@ frame_needed = 0, uses_anonymous_args = 0
 859 0000 2DE9F04F 		push	{r4, r5, r6, r7, r8, r9, r10, fp, lr}
 860              		.cfi_def_cfa_offset 36
 861              		.cfi_offset 4, -36
 862              		.cfi_offset 5, -32
 863              		.cfi_offset 6, -28
 864              		.cfi_offset 7, -24
 865              		.cfi_offset 8, -20
 866              		.cfi_offset 9, -16
 867              		.cfi_offset 10, -12
 868              		.cfi_offset 11, -8
ARM GAS  C:\Users\scott\AppData\Local\Temp\ccizu4DE.s 			page 21


 869              		.cfi_offset 14, -4
 870 0004 B3B0     		sub	sp, sp, #204
 871              		.cfi_def_cfa_offset 240
 224:main.c        ****   uint8_t i;
 225:main.c        ****   uint8_t fault;  // used to check faults on the RTDs
 226:main.c        ****   char s[20];   // essentially just used to report pin states
 227:main.c        ****   char ts[128]; // a temporary string used for brief periods to send messages
 228:main.c        ****   double f1;
 229:main.c        ****   uint32_t Adc_result;
 230:main.c        ****   float fAdc;
 231:main.c        ****   float temperature;    // temperature of the DS18B20s directly connected to this device
 232:main.c        ****   ds18b20_devices devices;  // the structure of DS18B20s found on this device by a search
 233:main.c        ****   one_wire_device address;  // The address of each DS18B20 to get the temperature from
 234:main.c        **** 
 235:main.c        ****   // TODO Convert the switches to an id
 236:main.c        ****   myId = MY_ID;
 872              		.loc 1 236 0
 873 0006 984F     		ldr	r7, .L94+8
 874 0008 3023     		movs	r3, #48
 875 000a 3B70     		strb	r3, [r7]
 237:main.c        ****   wemos_pos = 0;
 876              		.loc 1 237 0
 877 000c 974D     		ldr	r5, .L94+12
 878 000e 0024     		movs	r4, #0
 879 0010 2C70     		strb	r4, [r5]
 238:main.c        ****   rs485_pos = 0;
 880              		.loc 1 238 0
 881 0012 974B     		ldr	r3, .L94+16
 882 0014 1C70     		strb	r4, [r3]
 239:main.c        ****   Global_time = 0;
 883              		.loc 1 239 0
 884 0016 974E     		ldr	r6, .L94+20
 885 0018 3460     		str	r4, [r6]
 240:main.c        ****   rx_timed_out = 0;
 886              		.loc 1 240 0
 887 001a 974B     		ldr	r3, .L94+24
 888 001c 1C70     		strb	r4, [r3]
 241:main.c        ****   sprintf(version,"%02d%02d%02d-%02d%02d", BUILD_YEAR - 2000, BUILD_MONTH, BUILD_DAY, BUILD_HOUR, B
 889              		.loc 1 241 0
 890 001e 0823     		movs	r3, #8
 891 0020 0293     		str	r3, [sp, #8]
 892 0022 1422     		movs	r2, #20
 893 0024 0192     		str	r2, [sp, #4]
 894 0026 0323     		movs	r3, #3
 895 0028 0093     		str	r3, [sp]
 896 002a 0223     		movs	r3, #2
 897 002c 9349     		ldr	r1, .L94+28
 898 002e 9448     		ldr	r0, .L94+32
 899 0030 FFF7FEFF 		bl	sprintf
 900              	.LVL102:
 242:main.c        ****   CyDelay(6000); // Just take a short pause to let the wemos start
 901              		.loc 1 242 0
 902 0034 41F27070 		movw	r0, #6000
 903 0038 FFF7FEFF 		bl	CyDelay
 904              	.LVL103:
 243:main.c        ****   myId = DIP_Read();    // Find out what device this is supposed to be reported as
 905              		.loc 1 243 0
ARM GAS  C:\Users\scott\AppData\Local\Temp\ccizu4DE.s 			page 22


 906 003c FFF7FEFF 		bl	DIP_Read
 907              	.LVL104:
 244:main.c        ****   myId += 0x40;         // This type of device starts at 'A', and works up to 'O'
 908              		.loc 1 244 0
 909 0040 4030     		adds	r0, r0, #64
 910 0042 3870     		strb	r0, [r7]
 245:main.c        ****   Modbus_begin();       // Initialize the modbus routines
 911              		.loc 1 245 0
 912 0044 FFF7FEFF 		bl	Modbus_begin
 913              	.LVL105:
 246:main.c        ****   Modbus_setTimeOut( 2000 ); // if there is no answer in 2 seconds, roll over
 914              		.loc 1 246 0
 915 0048 4FF4FA60 		mov	r0, #2000
 916 004c FFF7FEFF 		bl	Modbus_setTimeOut
 917              	.LVL106:
 247:main.c        ****   modbus_wait = Global_time + 10000;  // wait 10 seconds to do the first poll
 918              		.loc 1 247 0
 919 0050 3368     		ldr	r3, [r6]
 920 0052 03F51C53 		add	r3, r3, #9984
 921 0056 1033     		adds	r3, r3, #16
 922 0058 8A4A     		ldr	r2, .L94+36
 923 005a 1360     		str	r3, [r2]
 248:main.c        ****   modbus_state = 0;     // 0 is idle, 1 is sending a request, and 2 is getting the reponse
 924              		.loc 1 248 0
 925 005c 8A4B     		ldr	r3, .L94+40
 926 005e 1C70     		strb	r4, [r3]
 249:main.c        ****   modbus_slave = 0;     // What slave we are requesting and getting information from
 927              		.loc 1 249 0
 928 0060 8A4B     		ldr	r3, .L94+44
 929 0062 1C70     		strb	r4, [r3]
 250:main.c        ****   MAX31865_CS_Write(0xff);    // deselect all of the MAX31865 spi devices
 930              		.loc 1 250 0
 931 0064 FF20     		movs	r0, #255
 932 0066 FFF7FEFF 		bl	MAX31865_CS_Write
 933              	.LVL107:
 251:main.c        **** 
 252:main.c        ****   CYGlobalIntDisable;//Disable interrupts to avoid triggering during setup.
 934              		.loc 1 252 0
 935              		.syntax unified
 936              	@ 252 "main.c" 1
 937 006a 72B6     		CPSID   i
 938              	@ 0 "" 2
 253:main.c        **** 
 254:main.c        ****   SPIM_Start();
 939              		.loc 1 254 0
 940              		.thumb
 941              		.syntax unified
 942 006c FFF7FEFF 		bl	SPIM_Start
 943              	.LVL108:
 255:main.c        **** 
 256:main.c        ****   Timer_Start();        // This starts our counter for Global_time, which is in milliseconds
 944              		.loc 1 256 0
 945 0070 FFF7FEFF 		bl	Timer_Start
 946              	.LVL109:
 257:main.c        ****   Timer_Int_Start();
 947              		.loc 1 257 0
 948 0074 FFF7FEFF 		bl	Timer_Int_Start
ARM GAS  C:\Users\scott\AppData\Local\Temp\ccizu4DE.s 			page 23


 949              	.LVL110:
 258:main.c        ****   Timer_Int_SetVector(Timer_ISR);
 950              		.loc 1 258 0
 951 0078 8548     		ldr	r0, .L94+48
 952 007a FFF7FEFF 		bl	Timer_Int_SetVector
 953              	.LVL111:
 259:main.c        **** 
 260:main.c        ****   RS485_Start();              // all communications are done using RS485 for modbus
 954              		.loc 1 260 0
 955 007e FFF7FEFF 		bl	RS485_Start
 956              	.LVL112:
 261:main.c        ****   Rx_Int_Start();             //Start the Interrupt.
 957              		.loc 1 261 0
 958 0082 FFF7FEFF 		bl	Rx_Int_Start
 959              	.LVL113:
 262:main.c        ****   Rx_Int_SetVector(Rx_ISR);   //Set the Vector to the ISR.
 960              		.loc 1 262 0
 961 0086 8348     		ldr	r0, .L94+52
 962 0088 FFF7FEFF 		bl	Rx_Int_SetVector
 963              	.LVL114:
 263:main.c        **** 
 264:main.c        ****   Rx_Timer_Int_SetVector(Rx_Timer_ISR);
 964              		.loc 1 264 0
 965 008c 8248     		ldr	r0, .L94+56
 966 008e FFF7FEFF 		bl	Rx_Timer_Int_SetVector
 967              	.LVL115:
 265:main.c        **** 
 266:main.c        ****   CyGlobalIntEnable; /* Enable global interrupts. */
 968              		.loc 1 266 0
 969              		.syntax unified
 970              	@ 266 "main.c" 1
 971 0092 62B6     		CPSIE   i
 972              	@ 0 "" 2
 267:main.c        ****   max31865_begin(MAX31865_3WIRE); // tell all of the MAX31865 that they use 3-wire connections to t
 973              		.loc 1 267 0
 974              		.thumb
 975              		.syntax unified
 976 0094 0120     		movs	r0, #1
 977 0096 FFF7FEFF 		bl	max31865_begin
 978              	.LVL116:
 268:main.c        **** 
 269:main.c        ****   Wemos_Start();              // all communications are done via serial to the Wemos
 979              		.loc 1 269 0
 980 009a FFF7FEFF 		bl	Wemos_Start
 981              	.LVL117:
 270:main.c        ****   Wemos_Rx_Int_Start();             //Start the Interrupt.
 982              		.loc 1 270 0
 983 009e FFF7FEFF 		bl	Wemos_Rx_Int_Start
 984              	.LVL118:
 271:main.c        ****   Wemos_Rx_Int_SetVector(Wemos_Rx_ISR);   //Set the Vector to the ISR.
 985              		.loc 1 271 0
 986 00a2 7E48     		ldr	r0, .L94+60
 987 00a4 FFF7FEFF 		bl	Wemos_Rx_Int_SetVector
 988              	.LVL119:
 272:main.c        **** 
 273:main.c        ****   wemos_pos = 0;        // The position of any received bytes from the wemos
 989              		.loc 1 273 0
ARM GAS  C:\Users\scott\AppData\Local\Temp\ccizu4DE.s 			page 24


 990 00a8 2C70     		strb	r4, [r5]
 274:main.c        ****   Wemos_ClearRxBuffer();    // Make sure the firmware has nothing hanging
 991              		.loc 1 274 0
 992 00aa FFF7FEFF 		bl	Wemos_ClearRxBuffer
 993              	.LVL120:
 275:main.c        **** 
 276:main.c        ****   AMux_Start();
 994              		.loc 1 276 0
 995 00ae FFF7FEFF 		bl	AMux_Start
 996              	.LVL121:
 277:main.c        ****   ADC_Start();
 997              		.loc 1 277 0
 998 00b2 FFF7FEFF 		bl	ADC_Start
 999              	.LVL122:
 278:main.c        **** 
 279:main.c        ****   CyDelay(5000);
 1000              		.loc 1 279 0
 1001 00b6 41F28830 		movw	r0, #5000
 1002 00ba FFF7FEFF 		bl	CyDelay
 1003              	.LVL123:
 1004              	.L55:
 280:main.c        ****   //=============================================
 281:main.c        ****   // Everything up to this point was setup
 282:main.c        ****   // The normal processing occurs after this point
 283:main.c        ****   //=============================================
 284:main.c        ****   for(;;)     // this program loops forever
 285:main.c        ****   {
 286:main.c        ****     // check to see if both the escape character and the requested id is in the receive buffer
 287:main.c        ****     if (esc && wemos_pos)
 1005              		.loc 1 287 0
 1006 00be 784B     		ldr	r3, .L94+64
 1007 00c0 1B78     		ldrb	r3, [r3]	@ zero_extendqisi2
 1008 00c2 002B     		cmp	r3, #0
 1009 00c4 00F0A381 		beq	.L57
 1010              		.loc 1 287 0 is_stmt 0 discriminator 1
 1011 00c8 684B     		ldr	r3, .L94+12
 1012 00ca 1B78     		ldrb	r3, [r3]	@ zero_extendqisi2
 1013 00cc 002B     		cmp	r3, #0
 1014 00ce 00F09E81 		beq	.L57
 288:main.c        ****     {   // going into this routine means we got an escape character, and at least one other charact
 289:main.c        ****       esc = 0;                    //reset the escape flag
 1015              		.loc 1 289 0 is_stmt 1
 1016 00d2 0022     		movs	r2, #0
 1017 00d4 7249     		ldr	r1, .L94+64
 1018 00d6 0A70     		strb	r2, [r1]
 290:main.c        ****       wemos_buffer[wemos_pos] = 0;    //terminate the input at the end of the data
 1019              		.loc 1 290 0
 1020 00d8 7249     		ldr	r1, .L94+68
 1021 00da CA54     		strb	r2, [r1, r3]
 291:main.c        ****       wemos_pos = 0;
 1022              		.loc 1 291 0
 1023 00dc 634B     		ldr	r3, .L94+12
 1024 00de 1A70     		strb	r2, [r3]
 292:main.c        ****       if (wemos_buffer[0] == '1' || wemos_buffer[0] == '2')  // process requests
 1025              		.loc 1 292 0
 1026 00e0 0B78     		ldrb	r3, [r1]	@ zero_extendqisi2
 1027 00e2 313B     		subs	r3, r3, #49
ARM GAS  C:\Users\scott\AppData\Local\Temp\ccizu4DE.s 			page 25


 1028 00e4 DBB2     		uxtb	r3, r3
 1029 00e6 012B     		cmp	r3, #1
 1030 00e8 00F29181 		bhi	.L57
 293:main.c        ****       {
 294:main.c        ****         CyDelay(50);            // Needed to let the other side turn around and listen
 1031              		.loc 1 294 0
 1032 00ec 3220     		movs	r0, #50
 1033 00ee FFF7FEFF 		bl	CyDelay
 1034              	.LVL124:
 295:main.c        ****         LED_Write(1);           // light the led just to show we received a request for this id, fo
 1035              		.loc 1 295 0
 1036 00f2 0120     		movs	r0, #1
 1037 00f4 FFF7FEFF 		bl	LED_Write
 1038              	.LVL125:
 296:main.c        ****         one_wire_reset_pulse(); // do this for all of the DS18B20's
 1039              		.loc 1 296 0
 1040 00f8 FFF7FEFF 		bl	one_wire_reset_pulse
 1041              	.LVL126:
 297:main.c        ****         // do this here because of timing, the DS18B20's can convert while other devices report
 298:main.c        ****         devices = ds18b20_get_devices(1);
 1042              		.loc 1 298 0
 1043 00fc 0121     		movs	r1, #1
 1044 00fe 0BA8     		add	r0, sp, #44
 1045 0100 FFF7FEFF 		bl	ds18b20_get_devices
 1046              	.LVL127:
 299:main.c        ****         ds18b20_convert_temperature_all();  // because this take 750ms, might as well start it now
 1047              		.loc 1 299 0
 1048 0104 FFF7FEFF 		bl	ds18b20_convert_temperature_all
 1049              	.LVL128:
 300:main.c        **** 
 301:main.c        ****         sprintf(ts,"R|000|%s|%c\r\n",version,myId);
 1050              		.loc 1 301 0
 1051 0108 574B     		ldr	r3, .L94+8
 1052 010a 1B78     		ldrb	r3, [r3]	@ zero_extendqisi2
 1053 010c 5C4A     		ldr	r2, .L94+32
 1054 010e 6649     		ldr	r1, .L94+72
 1055 0110 0DA8     		add	r0, sp, #52
 1056 0112 FFF7FEFF 		bl	sprintf
 1057              	.LVL129:
 302:main.c        ****         Wemos_PutString(ts);  // done just to clear everything
 1058              		.loc 1 302 0
 1059 0116 0DA8     		add	r0, sp, #52
 1060 0118 FFF7FEFF 		bl	Wemos_PutString
 1061              	.LVL130:
 303:main.c        ****         if (wemos_buffer[0] == '1') // A 1 just requests whatever has changed
 1062              		.loc 1 303 0
 1063 011c 614B     		ldr	r3, .L94+68
 1064 011e 1B78     		ldrb	r3, [r3]	@ zero_extendqisi2
 1065 0120 312B     		cmp	r3, #49
 1066 0122 03D1     		bne	.L58
 304:main.c        ****             process_holding_registers(false);    // this queues up the changed data for mqtt
 1067              		.loc 1 304 0
 1068 0124 0020     		movs	r0, #0
 1069 0126 FFF7FEFF 		bl	process_holding_registers
 1070              	.LVL131:
 1071 012a 1BE0     		b	.L59
 1072              	.L58:
ARM GAS  C:\Users\scott\AppData\Local\Temp\ccizu4DE.s 			page 26


 305:main.c        ****           else  // A 2 forces everthing to report, in case a change is missing
 306:main.c        ****           {
 307:main.c        ****             process_holding_registers(true);    // this queues up all the data for mqtt
 1073              		.loc 1 307 0
 1074 012c 0120     		movs	r0, #1
 1075 012e FFF7FEFF 		bl	process_holding_registers
 1076              	.LVL132:
 308:main.c        ****             for (i = 0; i < 8; i++) // clear all last values so we get past the checkDiff function
 1077              		.loc 1 308 0
 1078 0132 0023     		movs	r3, #0
 1079 0134 14E0     		b	.L60
 1080              	.LVL133:
 1081              	.L62:
 309:main.c        ****             {
 310:main.c        ****               last31865[i] = -20.0;
 1082              		.loc 1 310 0
 1083 0136 4D4A     		ldr	r2, .L94+12
 1084 0138 02EB8302 		add	r2, r2, r3, lsl #2
 1085 013c 5B49     		ldr	r1, .L94+76
 1086 013e 5160     		str	r1, [r2, #4]	@ float
 311:main.c        ****               lastDS18B20[i] = 0.0;
 1087              		.loc 1 311 0
 1088 0140 0021     		movs	r1, #0
 1089 0142 5162     		str	r1, [r2, #36]	@ float
 312:main.c        ****               if (i < 4)
 1090              		.loc 1 312 0
 1091 0144 032B     		cmp	r3, #3
 1092 0146 05D8     		bhi	.L61
 313:main.c        ****                 last_Adc_result[i] = 1;
 1093              		.loc 1 313 0
 1094 0148 484A     		ldr	r2, .L94+12
 1095 014a 02EB8302 		add	r2, r2, r3, lsl #2
 1096 014e 4FF07E51 		mov	r1, #1065353216
 1097 0152 D164     		str	r1, [r2, #76]	@ float
 1098              	.L61:
 314:main.c        ****               lastPins = 0;
 1099              		.loc 1 314 0 discriminator 2
 1100 0154 0021     		movs	r1, #0
 1101 0156 454A     		ldr	r2, .L94+12
 1102 0158 82F85C10 		strb	r1, [r2, #92]
 308:main.c        ****             {
 1103              		.loc 1 308 0 discriminator 2
 1104 015c 0133     		adds	r3, r3, #1
 1105              	.LVL134:
 1106 015e DBB2     		uxtb	r3, r3
 1107              	.LVL135:
 1108              	.L60:
 308:main.c        ****             {
 1109              		.loc 1 308 0 is_stmt 0 discriminator 1
 1110 0160 072B     		cmp	r3, #7
 1111 0162 E8D9     		bls	.L62
 1112              	.LVL136:
 1113              	.L59:
 315:main.c        ****             }
 316:main.c        ****           }
 317:main.c        ****         i = DINP_Read() << DINP_WIDTH; // get the values from the digital pins
 1114              		.loc 1 317 0 is_stmt 1
ARM GAS  C:\Users\scott\AppData\Local\Temp\ccizu4DE.s 			page 27


 1115 0164 FFF7FEFF 		bl	DINP_Read
 1116              	.LVL137:
 1117 0168 0001     		lsls	r0, r0, #4
 1118 016a C4B2     		uxtb	r4, r0
 1119              	.LVL138:
 318:main.c        ****         printBinary(i,s);
 1120              		.loc 1 318 0
 1121 016c 2DA9     		add	r1, sp, #180
 1122 016e 2046     		mov	r0, r4
 1123 0170 FFF7FEFF 		bl	printBinary
 1124              	.LVL139:
 319:main.c        ****         s[DINP_WIDTH] = 0; // the WIDTH is the actual number of pins being looked at
 1125              		.loc 1 319 0
 1126 0174 0023     		movs	r3, #0
 1127 0176 8DF8B830 		strb	r3, [sp, #184]
 320:main.c        ****         sprintf(ts,"P|000|%s|%c\r\n",s,myId);    // report on the status of the air conditioners
 1128              		.loc 1 320 0
 1129 017a 3B4B     		ldr	r3, .L94+8
 1130 017c 1B78     		ldrb	r3, [r3]	@ zero_extendqisi2
 1131 017e 2DAA     		add	r2, sp, #180
 1132 0180 4B49     		ldr	r1, .L94+80
 1133 0182 0DA8     		add	r0, sp, #52
 1134 0184 FFF7FEFF 		bl	sprintf
 1135              	.LVL140:
 321:main.c        ****         if (i != lastPins)
 1136              		.loc 1 321 0
 1137 0188 384B     		ldr	r3, .L94+12
 1138 018a 93F85C30 		ldrb	r3, [r3, #92]	@ zero_extendqisi2
 1139 018e 9C42     		cmp	r4, r3
 1140 0190 08D0     		beq	.L63
 322:main.c        ****         {
 323:main.c        ****           lastPins = i;
 1141              		.loc 1 323 0
 1142 0192 364B     		ldr	r3, .L94+12
 1143 0194 83F85C40 		strb	r4, [r3, #92]
 324:main.c        ****           CyDelay(20);
 1144              		.loc 1 324 0
 1145 0198 1420     		movs	r0, #20
 1146 019a FFF7FEFF 		bl	CyDelay
 1147              	.LVL141:
 325:main.c        ****           Wemos_PutString(ts);
 1148              		.loc 1 325 0
 1149 019e 0DA8     		add	r0, sp, #52
 1150 01a0 FFF7FEFF 		bl	Wemos_PutString
 1151              	.LVL142:
 1152              	.L63:
 326:main.c        ****         }
 327:main.c        **** 
 328:main.c        **** 
 329:main.c        ****         for (i = 0; i < 4; i++) // read the analog pins
 330:main.c        ****         {
 331:main.c        ****           AMux_Select(i); // pick which analog pin to read
 332:main.c        ****           CyDelay(20);
 333:main.c        ****           Adc_result = ADC_Read32();  // This function starts/stops and reads the conversion
 334:main.c        ****           if (Adc_result > 1000000 || Adc_result < 80000) // used to eliminate the extreme edges
 335:main.c        ****             Adc_result = 0;
 1153              		.loc 1 335 0 discriminator 1
ARM GAS  C:\Users\scott\AppData\Local\Temp\ccizu4DE.s 			page 28


 1154 01a4 0024     		movs	r4, #0
 1155              	.LVL143:
 1156 01a6 47E0     		b	.L64
 1157              	.LVL144:
 1158              	.L68:
 331:main.c        ****           CyDelay(20);
 1159              		.loc 1 331 0
 1160 01a8 2046     		mov	r0, r4
 1161 01aa FFF7FEFF 		bl	AMux_Select
 1162              	.LVL145:
 332:main.c        ****           Adc_result = ADC_Read32();  // This function starts/stops and reads the conversion
 1163              		.loc 1 332 0
 1164 01ae 1420     		movs	r0, #20
 1165 01b0 FFF7FEFF 		bl	CyDelay
 1166              	.LVL146:
 333:main.c        ****           if (Adc_result > 1000000 || Adc_result < 80000) // used to eliminate the extreme edges
 1167              		.loc 1 333 0
 1168 01b4 FFF7FEFF 		bl	ADC_Read32
 1169              	.LVL147:
 1170 01b8 0546     		mov	r5, r0
 1171              	.LVL148:
 334:main.c        ****             Adc_result = 0;
 1172              		.loc 1 334 0
 1173 01ba A0F59C33 		sub	r3, r0, #79872
 1174 01be 803B     		subs	r3, r3, #128
 1175 01c0 3C4A     		ldr	r2, .L94+84
 1176 01c2 9342     		cmp	r3, r2
 1177 01c4 00D9     		bls	.L65
 1178              		.loc 1 335 0
 1179 01c6 0025     		movs	r5, #0
 1180              	.L65:
 1181              	.LVL149:
 336:main.c        ****           fAdc = round((ADC_CountsTo_Volts(Adc_result) * 1.052) * 10) / 10;
 1182              		.loc 1 336 0
 1183 01c8 2846     		mov	r0, r5
 1184 01ca FFF7FEFF 		bl	ADC_CountsTo_Volts
 1185              	.LVL150:
 1186 01ce FFF7FEFF 		bl	__aeabi_f2d
 1187              	.LVL151:
 1188 01d2 23A3     		adr	r3, .L94
 1189 01d4 D3E90023 		ldrd	r2, [r3]
 1190 01d8 FFF7FEFF 		bl	__aeabi_dmul
 1191              	.LVL152:
 1192 01dc 0022     		movs	r2, #0
 1193 01de 364B     		ldr	r3, .L94+88
 1194 01e0 FFF7FEFF 		bl	__aeabi_dmul
 1195              	.LVL153:
 1196 01e4 FFF7FEFF 		bl	round
 1197              	.LVL154:
 1198 01e8 0022     		movs	r2, #0
 1199 01ea 334B     		ldr	r3, .L94+88
 1200 01ec FFF7FEFF 		bl	__aeabi_ddiv
 1201              	.LVL155:
 1202 01f0 FFF7FEFF 		bl	__aeabi_d2f
 1203              	.LVL156:
 1204 01f4 0646     		mov	r6, r0
 1205              	.LVL157:
ARM GAS  C:\Users\scott\AppData\Local\Temp\ccizu4DE.s 			page 29


 337:main.c        ****           if (last_Adc_result[i] != fAdc) // only show what has changed
 1206              		.loc 1 337 0
 1207 01f6 1D4B     		ldr	r3, .L94+12
 1208 01f8 03EB8403 		add	r3, r3, r4, lsl #2
 1209 01fc D96C     		ldr	r1, [r3, #76]	@ float
 1210 01fe FFF7FEFF 		bl	__aeabi_fcmpeq
 1211              	.LVL158:
 1212 0202 B8B9     		cbnz	r0, .L66
 338:main.c        ****           {
 339:main.c        ****             sprintf(ts,"A|000|%06.2lf|%06lu|%d|%c\r\n",fAdc,Adc_result,i,myId);
 1213              		.loc 1 339 0
 1214 0204 3046     		mov	r0, r6
 1215 0206 FFF7FEFF 		bl	__aeabi_f2d
 1216              	.LVL159:
 1217 020a 174B     		ldr	r3, .L94+8
 1218 020c 1B78     		ldrb	r3, [r3]	@ zero_extendqisi2
 1219 020e 0293     		str	r3, [sp, #8]
 1220 0210 0194     		str	r4, [sp, #4]
 1221 0212 0095     		str	r5, [sp]
 1222 0214 0246     		mov	r2, r0
 1223 0216 0B46     		mov	r3, r1
 1224 0218 2849     		ldr	r1, .L94+92
 1225 021a 0DA8     		add	r0, sp, #52
 1226 021c FFF7FEFF 		bl	sprintf
 1227              	.LVL160:
 340:main.c        ****             CyDelay(20);
 1228              		.loc 1 340 0
 1229 0220 1420     		movs	r0, #20
 1230 0222 FFF7FEFF 		bl	CyDelay
 1231              	.LVL161:
 341:main.c        ****             Wemos_PutString(ts);
 1232              		.loc 1 341 0
 1233 0226 0DA8     		add	r0, sp, #52
 1234 0228 FFF7FEFF 		bl	Wemos_PutString
 1235              	.LVL162:
 342:main.c        ****             last_Adc_result[i] = fAdc;
 1236              		.loc 1 342 0
 1237 022c 0F4B     		ldr	r3, .L94+12
 1238 022e 03EB8403 		add	r3, r3, r4, lsl #2
 1239 0232 DE64     		str	r6, [r3, #76]	@ float
 1240              	.L66:
 329:main.c        ****         {
 1241              		.loc 1 329 0 discriminator 2
 1242 0234 0134     		adds	r4, r4, #1
 1243              	.LVL163:
 1244 0236 E4B2     		uxtb	r4, r4
 1245              	.LVL164:
 1246              	.L64:
 329:main.c        ****         {
 1247              		.loc 1 329 0 is_stmt 0 discriminator 1
 1248 0238 032C     		cmp	r4, #3
 1249 023a B5D9     		bls	.L68
 1250 023c 0024     		movs	r4, #0
 1251              	.LVL165:
 1252 023e 87E0     		b	.L69
 1253              	.LVL166:
 1254              	.L77:
ARM GAS  C:\Users\scott\AppData\Local\Temp\ccizu4DE.s 			page 30


 343:main.c        ****           }
 344:main.c        ****         }
 345:main.c        **** 
 346:main.c        ****         for (i = 0; i < 8; i++)     // get the temperatures from up to 8 devices
 347:main.c        ****         {
 348:main.c        ****           fault = max31865_readFault(i);
 1255              		.loc 1 348 0 is_stmt 1
 1256 0240 2046     		mov	r0, r4
 1257 0242 FFF7FEFF 		bl	max31865_readFault
 1258              	.LVL167:
 1259 0246 0546     		mov	r5, r0
 1260              	.LVL168:
 349:main.c        ****           CyDelay(5);
 1261              		.loc 1 349 0
 1262 0248 0520     		movs	r0, #5
 1263 024a FFF7FEFF 		bl	CyDelay
 1264              	.LVL169:
 350:main.c        ****           if (fault > 1)
 1265              		.loc 1 350 0
 1266 024e 012D     		cmp	r5, #1
 1267 0250 36D9     		bls	.L70
 351:main.c        ****           {
 352:main.c        **** /*
 353:main.c        ****             if (fault & MAX31865_FAULT_HIGHTHRESH)
 354:main.c        ****               sprintf(ts,"E|000|Fault - RTD High Threshold|%d|%c\r\n",i,myId);
 355:main.c        ****             if (fault & MAX31865_FAULT_LOWTHRESH)
 356:main.c        ****               sprintf(ts,"E|000|Fault - RTD Low Threshold|%d|%c\r\n",i,myId);
 357:main.c        ****             if (fault & MAX31865_FAULT_REFINLOW)
 358:main.c        ****               sprintf(ts,"E|000|Fault - REFIN- > 0.85 x Bias|%d|%c\r\n",i,myId);
 359:main.c        ****             if (fault & MAX31865_FAULT_REFINHIGH)
 360:main.c        ****               sprintf(ts,"E|000|Fault - REFIN- < 0.85 x Bias - FORCE- open|%d|%c\r\n",i,myId);
 361:main.c        ****             if (fault & MAX31865_FAULT_RTDINLOW)
 362:main.c        ****               sprintf(ts,"E|000|Fault - RTDIN- < 0.85 x Bias - FORCE- open|%d|%c\r\n",i,myId);
 363:main.c        ****             if (fault & MAX31865_FAULT_OVUV)
 364:main.c        ****               sprintf(ts,"E|000|Fault - Under/Over voltage|%d|%c\r\n",i,myId);
 365:main.c        **** */
 366:main.c        ****             max31865_clearFault(i);
 1268              		.loc 1 366 0
 1269 0252 2046     		mov	r0, r4
 1270 0254 FFF7FEFF 		bl	max31865_clearFault
 1271              	.LVL170:
 367:main.c        ****             //Wemos_PutString(ts);
 368:main.c        ****             CyDelay(10);
 1272              		.loc 1 368 0
 1273 0258 0A20     		movs	r0, #10
 1274 025a FFF7FEFF 		bl	CyDelay
 1275              	.LVL171:
 1276 025e 75E0     		b	.L71
 1277              	.L95:
 1278              		.align	3
 1279              	.L94:
 1280 0260 A245B6F3 		.word	-206158430
 1281 0264 FDD4F03F 		.word	1072747773
 1282 0268 00000000 		.word	myId
 1283 026c 00000000 		.word	.LANCHOR0
 1284 0270 00000000 		.word	rs485_pos
 1285 0274 00000000 		.word	Global_time
ARM GAS  C:\Users\scott\AppData\Local\Temp\ccizu4DE.s 			page 31


 1286 0278 00000000 		.word	rx_timed_out
 1287 027c 5C000000 		.word	.LC3
 1288 0280 00000000 		.word	version
 1289 0284 00000000 		.word	modbus_wait
 1290 0288 00000000 		.word	modbus_state
 1291 028c 00000000 		.word	modbus_slave
 1292 0290 00000000 		.word	Timer_ISR
 1293 0294 00000000 		.word	Rx_ISR
 1294 0298 00000000 		.word	Rx_Timer_ISR
 1295 029c 00000000 		.word	Wemos_Rx_ISR
 1296 02a0 00000000 		.word	esc
 1297 02a4 00000000 		.word	wemos_buffer
 1298 02a8 74000000 		.word	.LC4
 1299 02ac 0000A0C1 		.word	-1046478848
 1300 02b0 84000000 		.word	.LC5
 1301 02b4 C0090E00 		.word	920000
 1302 02b8 00002440 		.word	1076101120
 1303 02bc 94000000 		.word	.LC6
 1304              	.L70:
 369:main.c        ****           }
 370:main.c        ****           else
 371:main.c        ****           {
 372:main.c        ****             f1 = max31865_temperature(RNOMINAL, RREF, i); // pass all temperature values in celsius
 1305              		.loc 1 372 0
 1306 02c0 2246     		mov	r2, r4
 1307 02c2 9249     		ldr	r1, .L96
 1308 02c4 9248     		ldr	r0, .L96+4
 1309 02c6 FFF7FEFF 		bl	max31865_temperature
 1310              	.LVL172:
 1311 02ca 0546     		mov	r5, r0
 1312              	.LVL173:
 1313 02cc FFF7FEFF 		bl	__aeabi_f2d
 1314              	.LVL174:
 1315 02d0 0646     		mov	r6, r0
 1316 02d2 0F46     		mov	r7, r1
 1317              	.LVL175:
 373:main.c        ****             if (f1 < 100 && f1 > -30 && f1 != 0.0)  // account for bad readings
 1318              		.loc 1 373 0
 1319 02d4 0022     		movs	r2, #0
 1320 02d6 8F4B     		ldr	r3, .L96+8
 1321 02d8 FFF7FEFF 		bl	__aeabi_dcmplt
 1322              	.LVL176:
 1323 02dc 0028     		cmp	r0, #0
 1324 02de 35D0     		beq	.L71
 1325              		.loc 1 373 0 is_stmt 0 discriminator 1
 1326 02e0 0022     		movs	r2, #0
 1327 02e2 8D4B     		ldr	r3, .L96+12
 1328 02e4 3046     		mov	r0, r6
 1329 02e6 3946     		mov	r1, r7
 1330 02e8 FFF7FEFF 		bl	__aeabi_dcmpgt
 1331              	.LVL177:
 1332 02ec 70B3     		cbz	r0, .L71
 1333              		.loc 1 373 0 discriminator 2
 1334 02ee 0022     		movs	r2, #0
 1335 02f0 0023     		movs	r3, #0
 1336 02f2 3046     		mov	r0, r6
 1337 02f4 3946     		mov	r1, r7
ARM GAS  C:\Users\scott\AppData\Local\Temp\ccizu4DE.s 			page 32


 1338 02f6 FFF7FEFF 		bl	__aeabi_dcmpeq
 1339              	.LVL178:
 1340 02fa 38BB     		cbnz	r0, .L71
 374:main.c        ****             {
 375:main.c        ****               sprintf(ts,"M|000|%06.2lf|%d|%c\r\n",f1,i,myId);
 1341              		.loc 1 375 0 is_stmt 1
 1342 02fc 874B     		ldr	r3, .L96+16
 1343 02fe 1B78     		ldrb	r3, [r3]	@ zero_extendqisi2
 1344 0300 0193     		str	r3, [sp, #4]
 1345 0302 0094     		str	r4, [sp]
 1346 0304 3246     		mov	r2, r6
 1347 0306 3B46     		mov	r3, r7
 1348 0308 8549     		ldr	r1, .L96+20
 1349 030a 0DA8     		add	r0, sp, #52
 1350 030c FFF7FEFF 		bl	sprintf
 1351              	.LVL179:
 376:main.c        ****               if (checkDiff(f1,last31865[i],0.5) && f1 != 0.0)
 1352              		.loc 1 376 0
 1353 0310 844B     		ldr	r3, .L96+24
 1354 0312 03EB8403 		add	r3, r3, r4, lsl #2
 1355 0316 4FF07C52 		mov	r2, #1056964608
 1356 031a 5968     		ldr	r1, [r3, #4]	@ float
 1357 031c 2846     		mov	r0, r5
 1358 031e FFF7FEFF 		bl	checkDiff
 1359              	.LVL180:
 1360 0322 80B1     		cbz	r0, .L75
 1361              		.loc 1 376 0 is_stmt 0 discriminator 1
 1362 0324 0022     		movs	r2, #0
 1363 0326 0023     		movs	r3, #0
 1364 0328 3046     		mov	r0, r6
 1365 032a 3946     		mov	r1, r7
 1366 032c FFF7FEFF 		bl	__aeabi_dcmpeq
 1367              	.LVL181:
 1368 0330 48B9     		cbnz	r0, .L75
 377:main.c        ****               {
 378:main.c        ****                 last31865[i] = f1;
 1369              		.loc 1 378 0 is_stmt 1
 1370 0332 7C4B     		ldr	r3, .L96+24
 1371 0334 03EB8403 		add	r3, r3, r4, lsl #2
 1372 0338 5D60     		str	r5, [r3, #4]	@ float
 379:main.c        ****                 CyDelay(20);
 1373              		.loc 1 379 0
 1374 033a 1420     		movs	r0, #20
 1375 033c FFF7FEFF 		bl	CyDelay
 1376              	.LVL182:
 380:main.c        ****                 Wemos_PutString(ts);
 1377              		.loc 1 380 0
 1378 0340 0DA8     		add	r0, sp, #52
 1379 0342 FFF7FEFF 		bl	Wemos_PutString
 1380              	.LVL183:
 1381              	.L75:
 381:main.c        ****               }
 382:main.c        ****               CyDelay(50);
 1382              		.loc 1 382 0
 1383 0346 3220     		movs	r0, #50
 1384 0348 FFF7FEFF 		bl	CyDelay
 1385              	.LVL184:
ARM GAS  C:\Users\scott\AppData\Local\Temp\ccizu4DE.s 			page 33


 1386              	.L71:
 346:main.c        ****         {
 1387              		.loc 1 346 0 discriminator 2
 1388 034c 0134     		adds	r4, r4, #1
 1389              	.LVL185:
 1390 034e E4B2     		uxtb	r4, r4
 1391              	.LVL186:
 1392              	.L69:
 346:main.c        ****         {
 1393              		.loc 1 346 0 is_stmt 0 discriminator 1
 1394 0350 072C     		cmp	r4, #7
 1395 0352 7FF675AF 		bls	.L77
 1396 0356 0024     		movs	r4, #0
 1397              	.LVL187:
 1398 0358 46E0     		b	.L78
 1399              	.LVL188:
 1400              	.L80:
 383:main.c        ****             }
 384:main.c        ****           }
 385:main.c        ****         }
 386:main.c        **** 
 387:main.c        ****         for (i = 0; i < devices.size; ++i) // get the temperatures from all of the local DS18B20s t
 388:main.c        ****         {
 389:main.c        ****           temperature = ds18b20_read_temperature(devices.devices[i]);
 1401              		.loc 1 389 0 is_stmt 1
 1402 035a 0C9D     		ldr	r5, [sp, #48]
 1403 035c 05EBC405 		add	r5, r5, r4, lsl #3
 1404 0360 2868     		ldr	r0, [r5]	@ unaligned
 1405 0362 6968     		ldr	r1, [r5, #4]	@ unaligned
 1406 0364 FFF7FEFF 		bl	ds18b20_read_temperature
 1407              	.LVL189:
 1408 0368 0646     		mov	r6, r0
 1409              	.LVL190:
 390:main.c        **** 
 391:main.c        ****           address = devices.devices[i];
 1410              		.loc 1 391 0
 1411 036a 09AB     		add	r3, sp, #36
 1412 036c 2868     		ldr	r0, [r5]	@ unaligned
 1413              	.LVL191:
 1414 036e 6968     		ldr	r1, [r5, #4]	@ unaligned
 1415 0370 03C3     		stmia	r3!, {r0, r1}
 392:main.c        ****           sprintf(ts,"T|000|%06.2lf|%02x%02x%02x%02x%02x%02x|%c\r\n",
 393:main.c        ****               temperature,address.address[2],address.address[3],
 1416              		.loc 1 393 0
 1417 0372 9DF82650 		ldrb	r5, [sp, #38]	@ zero_extendqisi2
 1418 0376 9DF82770 		ldrb	r7, [sp, #39]	@ zero_extendqisi2
 394:main.c        ****               address.address[4],address.address[5],address.address[6],
 1419              		.loc 1 394 0
 1420 037a 9DF82880 		ldrb	r8, [sp, #40]	@ zero_extendqisi2
 1421 037e 9DF82990 		ldrb	r9, [sp, #41]	@ zero_extendqisi2
 1422 0382 9DF82AA0 		ldrb	r10, [sp, #42]	@ zero_extendqisi2
 395:main.c        ****               address.address[7],myId);
 1423              		.loc 1 395 0
 1424 0386 9DF82BB0 		ldrb	fp, [sp, #43]	@ zero_extendqisi2
 392:main.c        ****           sprintf(ts,"T|000|%06.2lf|%02x%02x%02x%02x%02x%02x|%c\r\n",
 1425              		.loc 1 392 0
 1426 038a 3046     		mov	r0, r6
ARM GAS  C:\Users\scott\AppData\Local\Temp\ccizu4DE.s 			page 34


 1427 038c FFF7FEFF 		bl	__aeabi_f2d
 1428              	.LVL192:
 1429 0390 624B     		ldr	r3, .L96+16
 1430 0392 1B78     		ldrb	r3, [r3]	@ zero_extendqisi2
 1431 0394 0693     		str	r3, [sp, #24]
 1432 0396 CDF814B0 		str	fp, [sp, #20]
 1433 039a CDF810A0 		str	r10, [sp, #16]
 1434 039e CDF80C90 		str	r9, [sp, #12]
 1435 03a2 CDF80880 		str	r8, [sp, #8]
 1436 03a6 0197     		str	r7, [sp, #4]
 1437 03a8 0095     		str	r5, [sp]
 1438 03aa 0246     		mov	r2, r0
 1439 03ac 0B46     		mov	r3, r1
 1440 03ae 5E49     		ldr	r1, .L96+28
 1441 03b0 0DA8     		add	r0, sp, #52
 1442 03b2 FFF7FEFF 		bl	sprintf
 1443              	.LVL193:
 396:main.c        ****           if (checkDiff(temperature,lastDS18B20[i],0.5))
 1444              		.loc 1 396 0
 1445 03b6 5B4B     		ldr	r3, .L96+24
 1446 03b8 03EB8403 		add	r3, r3, r4, lsl #2
 1447 03bc 4FF07C52 		mov	r2, #1056964608
 1448 03c0 596A     		ldr	r1, [r3, #36]	@ float
 1449 03c2 3046     		mov	r0, r6
 1450 03c4 FFF7FEFF 		bl	checkDiff
 1451              	.LVL194:
 1452 03c8 48B1     		cbz	r0, .L79
 397:main.c        ****           {
 398:main.c        ****             CyDelay(20);
 1453              		.loc 1 398 0
 1454 03ca 1420     		movs	r0, #20
 1455 03cc FFF7FEFF 		bl	CyDelay
 1456              	.LVL195:
 399:main.c        ****             Wemos_PutString(ts);
 1457              		.loc 1 399 0
 1458 03d0 0DA8     		add	r0, sp, #52
 1459 03d2 FFF7FEFF 		bl	Wemos_PutString
 1460              	.LVL196:
 400:main.c        ****             lastDS18B20[i] = temperature;
 1461              		.loc 1 400 0
 1462 03d6 534B     		ldr	r3, .L96+24
 1463 03d8 03EB8403 		add	r3, r3, r4, lsl #2
 1464 03dc 5E62     		str	r6, [r3, #36]	@ float
 1465              	.L79:
 401:main.c        ****           }
 402:main.c        ****           CyDelay(50);
 1466              		.loc 1 402 0 discriminator 2
 1467 03de 3220     		movs	r0, #50
 1468 03e0 FFF7FEFF 		bl	CyDelay
 1469              	.LVL197:
 387:main.c        ****         {
 1470              		.loc 1 387 0 discriminator 2
 1471 03e4 0134     		adds	r4, r4, #1
 1472              	.LVL198:
 1473 03e6 E4B2     		uxtb	r4, r4
 1474              	.LVL199:
 1475              	.L78:
ARM GAS  C:\Users\scott\AppData\Local\Temp\ccizu4DE.s 			page 35


 387:main.c        ****         {
 1476              		.loc 1 387 0 is_stmt 0 discriminator 1
 1477 03e8 9DF82C30 		ldrb	r3, [sp, #44]	@ zero_extendqisi2
 1478 03ec 9C42     		cmp	r4, r3
 1479 03ee B4D3     		bcc	.L80
 403:main.c        ****         }
 404:main.c        ****         CyDelay(20);
 1480              		.loc 1 404 0 is_stmt 1
 1481 03f0 1420     		movs	r0, #20
 1482 03f2 FFF7FEFF 		bl	CyDelay
 1483              	.LVL200:
 405:main.c        ****         Wemos_PutString("DONE\r\n");  // Nothing more to send
 1484              		.loc 1 405 0
 1485 03f6 4D48     		ldr	r0, .L96+32
 1486 03f8 FFF7FEFF 		bl	Wemos_PutString
 1487              	.LVL201:
 406:main.c        ****         wemos_buffer[0] = 0;  // Clear the received character buffer
 1488              		.loc 1 406 0
 1489 03fc 0024     		movs	r4, #0
 1490              	.LVL202:
 1491 03fe 4C4B     		ldr	r3, .L96+36
 1492 0400 1C70     		strb	r4, [r3]
 407:main.c        ****         CyDelay(50);
 1493              		.loc 1 407 0
 1494 0402 3220     		movs	r0, #50
 1495 0404 FFF7FEFF 		bl	CyDelay
 1496              	.LVL203:
 408:main.c        ****         LED_Write(0);   // turn the communications indicator light off
 1497              		.loc 1 408 0
 1498 0408 2046     		mov	r0, r4
 1499 040a FFF7FEFF 		bl	LED_Write
 1500              	.LVL204:
 1501              	.L57:
 409:main.c        ****     }
 410:main.c        ****   } // end of communicating with wemos
 411:main.c        ****   if (esc && (Global_time - esc_time > 2000))  // give it 2 seconds for a character to follow the e
 1502              		.loc 1 411 0
 1503 040e 494B     		ldr	r3, .L96+40
 1504 0410 1B78     		ldrb	r3, [r3]	@ zero_extendqisi2
 1505 0412 B3B1     		cbz	r3, .L81
 1506              		.loc 1 411 0 is_stmt 0 discriminator 1
 1507 0414 484B     		ldr	r3, .L96+44
 1508 0416 1B68     		ldr	r3, [r3]
 1509 0418 484A     		ldr	r2, .L96+48
 1510 041a 1268     		ldr	r2, [r2]
 1511 041c 9B1A     		subs	r3, r3, r2
 1512 041e B3F5FA6F 		cmp	r3, #2000
 1513 0422 0ED9     		bls	.L81
 412:main.c        ****   {
 413:main.c        ****     esc = 0;  // reset the esc flag, since it should have been followed by the id within 2 seconds
 1514              		.loc 1 413 0 is_stmt 1
 1515 0424 0024     		movs	r4, #0
 1516 0426 434B     		ldr	r3, .L96+40
 1517 0428 1C70     		strb	r4, [r3]
 414:main.c        ****     wemos_pos = 0;
 1518              		.loc 1 414 0
 1519 042a 3E4B     		ldr	r3, .L96+24
ARM GAS  C:\Users\scott\AppData\Local\Temp\ccizu4DE.s 			page 36


 1520 042c 1C70     		strb	r4, [r3]
 415:main.c        ****     wemos_buffer[0] = 0;
 1521              		.loc 1 415 0
 1522 042e 404B     		ldr	r3, .L96+36
 1523 0430 1C70     		strb	r4, [r3]
 416:main.c        ****     Wemos_PutString("E|000|esc timed out\r\n");
 1524              		.loc 1 416 0
 1525 0432 4348     		ldr	r0, .L96+52
 1526 0434 FFF7FEFF 		bl	Wemos_PutString
 1527              	.LVL205:
 417:main.c        ****     Wemos_ClearRxBuffer();
 1528              		.loc 1 417 0
 1529 0438 FFF7FEFF 		bl	Wemos_ClearRxBuffer
 1530              	.LVL206:
 418:main.c        ****     //CySoftwareReset();
 419:main.c        ****     LED_Write(0);
 1531              		.loc 1 419 0
 1532 043c 2046     		mov	r0, r4
 1533 043e FFF7FEFF 		bl	LED_Write
 1534              	.LVL207:
 1535              	.L81:
 420:main.c        ****   }
 421:main.c        ****   switch( modbus_state )
 1536              		.loc 1 421 0
 1537 0442 404B     		ldr	r3, .L96+56
 1538 0444 1B78     		ldrb	r3, [r3]	@ zero_extendqisi2
 1539 0446 012B     		cmp	r3, #1
 1540 0448 0ED0     		beq	.L82
 1541 044a 13B1     		cbz	r3, .L83
 1542 044c 022B     		cmp	r3, #2
 1543 044e 3CD0     		beq	.L84
 1544 0450 35E6     		b	.L55
 1545              	.L83:
 422:main.c        ****   {
 423:main.c        ****     case 0:
 424:main.c        ****       if (Global_time > modbus_wait)
 1546              		.loc 1 424 0
 1547 0452 394A     		ldr	r2, .L96+44
 1548 0454 1168     		ldr	r1, [r2]
 1549 0456 3C4A     		ldr	r2, .L96+60
 1550 0458 1268     		ldr	r2, [r2]
 1551 045a 9142     		cmp	r1, r2
 1552 045c 7FF62FAE 		bls	.L55
 425:main.c        ****       {
 426:main.c        ****         modbus_state++; // wait state
 1553              		.loc 1 426 0
 1554 0460 0133     		adds	r3, r3, #1
 1555 0462 384A     		ldr	r2, .L96+56
 1556 0464 1370     		strb	r3, [r2]
 1557 0466 2AE6     		b	.L55
 1558              	.L82:
 427:main.c        ****       }
 428:main.c        ****       break;
 429:main.c        ****     case 1:
 430:main.c        ****       LED_Write(1);   // turn the communications indicator light on
 1559              		.loc 1 430 0
 1560 0468 0120     		movs	r0, #1
ARM GAS  C:\Users\scott\AppData\Local\Temp\ccizu4DE.s 			page 37


 1561 046a FFF7FEFF 		bl	LED_Write
 1562              	.LVL208:
 431:main.c        ****       for (i = 0; i < 60; i++)
 1563              		.loc 1 431 0
 1564 046e 0022     		movs	r2, #0
 1565 0470 0BE0     		b	.L85
 1566              	.LVL209:
 1567              	.L86:
 432:main.c        ****         registers[modbus_slave][i] = 0;
 1568              		.loc 1 432 0 discriminator 3
 1569 0472 364B     		ldr	r3, .L96+64
 1570 0474 1B78     		ldrb	r3, [r3]	@ zero_extendqisi2
 1571 0476 C3EB0313 		rsb	r3, r3, r3, lsl #4
 1572 047a 02EB8303 		add	r3, r2, r3, lsl #2
 1573 047e 0020     		movs	r0, #0
 1574 0480 3349     		ldr	r1, .L96+68
 1575 0482 21F81300 		strh	r0, [r1, r3, lsl #1]	@ movhi
 431:main.c        ****       for (i = 0; i < 60; i++)
 1576              		.loc 1 431 0 discriminator 3
 1577 0486 0132     		adds	r2, r2, #1
 1578              	.LVL210:
 1579 0488 D2B2     		uxtb	r2, r2
 1580              	.LVL211:
 1581              	.L85:
 431:main.c        ****       for (i = 0; i < 60; i++)
 1582              		.loc 1 431 0 is_stmt 0 discriminator 1
 1583 048a 3B2A     		cmp	r2, #59
 1584 048c F1D9     		bls	.L86
 433:main.c        ****       telegram.u8id = MODBUS_BASE_ADDR + modbus_slave; // slave address
 1585              		.loc 1 433 0 is_stmt 1
 1586 048e 2F4C     		ldr	r4, .L96+64
 1587 0490 2278     		ldrb	r2, [r4]	@ zero_extendqisi2
 1588              	.LVL212:
 1589 0492 304B     		ldr	r3, .L96+72
 1590 0494 02F13101 		add	r1, r2, #49
 1591 0498 1970     		strb	r1, [r3]
 434:main.c        ****       telegram.u8fct = 3; // function code (this one is registers read)
 1592              		.loc 1 434 0
 1593 049a 0321     		movs	r1, #3
 1594 049c 5970     		strb	r1, [r3, #1]
 435:main.c        ****       telegram.u16RegAdd = 0; // start address in slave
 1595              		.loc 1 435 0
 1596 049e 0021     		movs	r1, #0
 1597 04a0 5980     		strh	r1, [r3, #2]	@ movhi
 436:main.c        ****       telegram.u16CoilsNo = 40; // number of elements (coils or registers) to read
 1598              		.loc 1 436 0
 1599 04a2 2821     		movs	r1, #40
 1600 04a4 9980     		strh	r1, [r3, #4]	@ movhi
 437:main.c        ****       telegram.au16reg = &registers[modbus_slave][0]; // pointer to a memory array in the Arduino
 1601              		.loc 1 437 0
 1602 04a6 C2EB0212 		rsb	r2, r2, r2, lsl #4
 1603 04aa 2949     		ldr	r1, .L96+68
 1604 04ac 01EBC202 		add	r2, r1, r2, lsl #3
 1605 04b0 9A60     		str	r2, [r3, #8]
 438:main.c        ****       Modbus_query( telegram ); // send query (only once)
 1606              		.loc 1 438 0
 1607 04b2 93E80700 		ldmia	r3, {r0, r1, r2}
ARM GAS  C:\Users\scott\AppData\Local\Temp\ccizu4DE.s 			page 38


 1608 04b6 FFF7FEFF 		bl	Modbus_query
 1609              	.LVL213:
 439:main.c        ****       modbus_state++;   // now looking for responses
 1610              		.loc 1 439 0
 1611 04ba 224A     		ldr	r2, .L96+56
 1612 04bc 1378     		ldrb	r3, [r2]	@ zero_extendqisi2
 1613 04be 0133     		adds	r3, r3, #1
 1614 04c0 1370     		strb	r3, [r2]
 440:main.c        ****       modbus_slave++;   // set up for the next slave
 1615              		.loc 1 440 0
 1616 04c2 2378     		ldrb	r3, [r4]	@ zero_extendqisi2
 1617 04c4 0133     		adds	r3, r3, #1
 1618 04c6 2370     		strb	r3, [r4]
 441:main.c        ****       break;
 1619              		.loc 1 441 0
 1620 04c8 F9E5     		b	.L55
 1621              	.L84:
 442:main.c        ****     case 2:
 443:main.c        ****       Modbus_poll(); // check incoming messages
 1622              		.loc 1 443 0
 1623 04ca FFF7FEFF 		bl	Modbus_poll
 1624              	.LVL214:
 444:main.c        ****       if (Modbus_getState() == COM_IDLE)  // COM_IDLE is after we've received our response
 1625              		.loc 1 444 0
 1626 04ce FFF7FEFF 		bl	Modbus_getState
 1627              	.LVL215:
 1628 04d2 0028     		cmp	r0, #0
 1629 04d4 7FF4F3AD 		bne	.L55
 445:main.c        ****       {
 446:main.c        ****         modbus_state = 0;
 1630              		.loc 1 446 0
 1631 04d8 0022     		movs	r2, #0
 1632 04da 1A4B     		ldr	r3, .L96+56
 1633 04dc 1A70     		strb	r2, [r3]
 447:main.c        ****         if (modbus_slave > (MODBUS_COUNT - 1))
 1634              		.loc 1 447 0
 1635 04de 1B4B     		ldr	r3, .L96+64
 1636 04e0 1B78     		ldrb	r3, [r3]	@ zero_extendqisi2
 1637 04e2 092B     		cmp	r3, #9
 1638 04e4 7FF6EBAD 		bls	.L55
 448:main.c        ****         {
 449:main.c        ****           last_modbus_time = Global_time / 1000;  // how many seconds since the last modbus read wa
 1639              		.loc 1 449 0
 1640 04e8 134B     		ldr	r3, .L96+44
 1641 04ea 1B68     		ldr	r3, [r3]
 1642 04ec 1A4A     		ldr	r2, .L96+76
 1643 04ee A2FB0312 		umull	r1, r2, r2, r3
 1644 04f2 9209     		lsrs	r2, r2, #6
 1645 04f4 1949     		ldr	r1, .L96+80
 1646 04f6 0A80     		strh	r2, [r1]	@ movhi
 450:main.c        ****           modbus_wait = Global_time + TIME_BETWEEN_POLLING;  // reset for the next loop
 1647              		.loc 1 450 0
 1648 04f8 03F59023 		add	r3, r3, #294912
 1649 04fc 5833     		adds	r3, r3, #88
 1650 04fe 124A     		ldr	r2, .L96+60
 1651 0500 1360     		str	r3, [r2]
 451:main.c        ****           modbus_slave = 0; // setup for the next time we wake up
ARM GAS  C:\Users\scott\AppData\Local\Temp\ccizu4DE.s 			page 39


 1652              		.loc 1 451 0
 1653 0502 124B     		ldr	r3, .L96+64
 1654 0504 1870     		strb	r0, [r3]
 452:main.c        ****           LED_Write(0);   // Turn the light back off
 1655              		.loc 1 452 0
 1656 0506 FFF7FEFF 		bl	LED_Write
 1657              	.LVL216:
 1658 050a D8E5     		b	.L55
 1659              	.L97:
 1660              		.align	2
 1661              	.L96:
 1662 050c 0000D943 		.word	1138294784
 1663 0510 0000C842 		.word	1120403456
 1664 0514 00005940 		.word	1079574528
 1665 0518 00003EC0 		.word	-1069678592
 1666 051c 00000000 		.word	myId
 1667 0520 B0000000 		.word	.LC7
 1668 0524 00000000 		.word	.LANCHOR0
 1669 0528 C8000000 		.word	.LC8
 1670 052c F4000000 		.word	.LC9
 1671 0530 00000000 		.word	wemos_buffer
 1672 0534 00000000 		.word	esc
 1673 0538 00000000 		.word	Global_time
 1674 053c 00000000 		.word	esc_time
 1675 0540 FC000000 		.word	.LC10
 1676 0544 00000000 		.word	modbus_state
 1677 0548 00000000 		.word	modbus_wait
 1678 054c 00000000 		.word	modbus_slave
 1679 0550 00000000 		.word	registers
 1680 0554 00000000 		.word	telegram
 1681 0558 D34D6210 		.word	274877907
 1682 055c 00000000 		.word	last_modbus_time
 1683              		.cfi_endproc
 1684              	.LFE71:
 1685              		.size	main, .-main
 1686              		.comm	telegram,12,4
 1687              		.global	lastPins
 1688              		.global	lastDS18B20
 1689              		.global	last31865
 1690              		.global	last_Adc_result
 1691              		.comm	temp_regs,80,4
 1692              		.comm	modbus_wait,4,4
 1693              		.comm	modbus_slave,1,1
 1694              		.comm	modbus_state,1,1
 1695              		.comm	last_registers,1200,4
 1696              		.comm	registers,1200,4
 1697              		.comm	version,12,4
 1698              		.comm	esc_time,4,4
 1699              		.comm	last_modbus_time,2,2
 1700              		.comm	Global_time,4,4
 1701              		.comm	esc,1,1
 1702              		.comm	rs485_pos,1,1
 1703              		.global	wemos_pos
 1704              		.comm	slave_id,1,1
 1705              		.comm	rx_timed_out,1,1
 1706              		.comm	myId,1,1
 1707              		.comm	temp_message,128,4
ARM GAS  C:\Users\scott\AppData\Local\Temp\ccizu4DE.s 			page 40


 1708              		.comm	rs485_buffer,256,4
 1709              		.comm	wemos_buffer,256,4
 1710              		.section	.rodata.str1.4,"aMS",%progbits,1
 1711              		.align	2
 1712              	.LC0:
 1713 0000 487C2530 		.ascii	"H|%03d|%06.2f|%05.2f|%05.2f|%c|%c\015\012\000"
 1713      33647C25 
 1713      30362E32 
 1713      667C2530 
 1713      352E3266 
 1714              	.LC1:
 1715 0024 547C2530 		.ascii	"T|%03d|%06.2f|%04x%04x%04x|%c|%c\015\012\000"
 1715      33647C25 
 1715      30362E32 
 1715      667C2530 
 1715      34782530 
 1716 0047 00       		.space	1
 1717              	.LC2:
 1718 0048 507C2530 		.ascii	"P|%03d|%s|%c|%c\015\012\000"
 1718      33647C25 
 1718      737C2563 
 1718      7C25630D 
 1718      0A00
 1719 005a 0000     		.space	2
 1720              	.LC3:
 1721 005c 25303264 		.ascii	"%02d%02d%02d-%02d%02d\000"
 1721      25303264 
 1721      25303264 
 1721      2D253032 
 1721      64253032 
 1722 0072 0000     		.space	2
 1723              	.LC4:
 1724 0074 527C3030 		.ascii	"R|000|%s|%c\015\012\000"
 1724      307C2573 
 1724      7C25630D 
 1724      0A00
 1725 0082 0000     		.space	2
 1726              	.LC5:
 1727 0084 507C3030 		.ascii	"P|000|%s|%c\015\012\000"
 1727      307C2573 
 1727      7C25630D 
 1727      0A00
 1728 0092 0000     		.space	2
 1729              	.LC6:
 1730 0094 417C3030 		.ascii	"A|000|%06.2lf|%06lu|%d|%c\015\012\000"
 1730      307C2530 
 1730      362E326C 
 1730      667C2530 
 1730      366C757C 
 1731              	.LC7:
 1732 00b0 4D7C3030 		.ascii	"M|000|%06.2lf|%d|%c\015\012\000"
 1732      307C2530 
 1732      362E326C 
 1732      667C2564 
 1732      7C25630D 
 1733 00c6 0000     		.space	2
 1734              	.LC8:
ARM GAS  C:\Users\scott\AppData\Local\Temp\ccizu4DE.s 			page 41


 1735 00c8 547C3030 		.ascii	"T|000|%06.2lf|%02x%02x%02x%02x%02x%02x|%c\015\012\000"
 1735      307C2530 
 1735      362E326C 
 1735      667C2530 
 1735      32782530 
 1736              	.LC9:
 1737 00f4 444F4E45 		.ascii	"DONE\015\012\000"
 1737      0D0A00
 1738 00fb 00       		.space	1
 1739              	.LC10:
 1740 00fc 457C3030 		.ascii	"E|000|esc timed out\015\012\000"
 1740      307C6573 
 1740      63207469 
 1740      6D656420 
 1740      6F75740D 
 1741              		.bss
 1742              		.align	2
 1743              		.set	.LANCHOR0,. + 0
 1744              		.type	wemos_pos, %object
 1745              		.size	wemos_pos, 1
 1746              	wemos_pos:
 1747 0000 00       		.space	1
 1748 0001 000000   		.space	3
 1749              		.type	last31865, %object
 1750              		.size	last31865, 32
 1751              	last31865:
 1752 0004 00000000 		.space	32
 1752      00000000 
 1752      00000000 
 1752      00000000 
 1752      00000000 
 1753              		.type	lastDS18B20, %object
 1754              		.size	lastDS18B20, 40
 1755              	lastDS18B20:
 1756 0024 00000000 		.space	40
 1756      00000000 
 1756      00000000 
 1756      00000000 
 1756      00000000 
 1757              		.type	last_Adc_result, %object
 1758              		.size	last_Adc_result, 16
 1759              	last_Adc_result:
 1760 004c 00000000 		.space	16
 1760      00000000 
 1760      00000000 
 1760      00000000 
 1761              		.type	lastPins, %object
 1762              		.size	lastPins, 1
 1763              	lastPins:
 1764 005c 00       		.space	1
 1765              		.text
 1766              	.Letext0:
 1767              		.file 2 "c:\\program files (x86)\\cypress\\psoc creator\\4.2\\psoc creator\\import\\gnu\\arm\\5.4.
 1768              		.file 3 "c:\\program files (x86)\\cypress\\psoc creator\\4.2\\psoc creator\\import\\gnu\\arm\\5.4.
 1769              		.file 4 "Generated_Source\\PSoC5/cytypes.h"
 1770              		.file 5 "../one_wire.h"
 1771              		.file 6 "../ds18b20.h"
ARM GAS  C:\Users\scott\AppData\Local\Temp\ccizu4DE.s 			page 42


 1772              		.file 7 "../ModbusRtu.h"
 1773              		.file 8 "../max31865.h"
 1774              		.file 9 "Generated_Source\\PSoC5/core_cm3.h"
 1775              		.file 10 "Generated_Source\\PSoC5/Timer_Int.h"
 1776              		.file 11 "Generated_Source\\PSoC5/Rx_Timer.h"
 1777              		.file 12 "Generated_Source\\PSoC5/Rx_Timer_Int.h"
 1778              		.file 13 "Generated_Source\\PSoC5/RS485.h"
 1779              		.file 14 "Generated_Source\\PSoC5/Wemos.h"
 1780              		.file 15 "Generated_Source\\PSoC5/LED.h"
 1781              		.file 16 "Generated_Source\\PSoC5/CyLib.h"
 1782              		.file 17 "c:\\program files (x86)\\cypress\\psoc creator\\4.2\\psoc creator\\import\\gnu\\arm\\5.4
 1783              		.file 18 "Generated_Source\\PSoC5/DIP.h"
 1784              		.file 19 "Generated_Source\\PSoC5/MAX31865_CS.h"
 1785              		.file 20 "Generated_Source\\PSoC5/SPIM.h"
 1786              		.file 21 "Generated_Source\\PSoC5/Timer.h"
 1787              		.file 22 "Generated_Source\\PSoC5/Rx_Int.h"
 1788              		.file 23 "Generated_Source\\PSoC5/Wemos_Rx_Int.h"
 1789              		.file 24 "Generated_Source\\PSoC5/AMux.h"
 1790              		.file 25 "Generated_Source\\PSoC5/ADC.h"
 1791              		.file 26 "Generated_Source\\PSoC5/DINP.h"
 1792              		.file 27 "c:\\program files (x86)\\cypress\\psoc creator\\4.2\\psoc creator\\import\\gnu\\arm\\5.4