ARM GAS  C:\Users\scott\AppData\Local\Temp\cc62F3Ac.s 			page 1


   1              		.syntax unified
   2              		.cpu cortex-m3
   3              		.fpu softvfp
   4              		.eabi_attribute 20, 1
   5              		.eabi_attribute 21, 1
   6              		.eabi_attribute 23, 3
   7              		.eabi_attribute 24, 1
   8              		.eabi_attribute 25, 1
   9              		.eabi_attribute 26, 1
  10              		.eabi_attribute 30, 1
  11              		.eabi_attribute 34, 1
  12              		.eabi_attribute 18, 4
  13              		.thumb
  14              		.syntax unified
  15              		.file	"max31865.c"
  16              		.text
  17              	.Ltext0:
  18              		.cfi_sections	.debug_frame
  19              		.section	.text.MAX31865_spixfer,"ax",%progbits
  20              		.align	2
  21              		.global	MAX31865_spixfer
  22              		.thumb
  23              		.thumb_func
  24              		.type	MAX31865_spixfer, %function
  25              	MAX31865_spixfer:
  26              	.LFB76:
  27              		.file 1 "..\\max31865.c"
   1:..\max31865.c **** #include "project.h"
   2:..\max31865.c **** #include <stdio.h>
   3:..\max31865.c **** #include "max31865.h"
   4:..\max31865.c **** #include <math.h>
   5:..\max31865.c **** // A lot of this code is based on what Adafruit published for Ardnuino.  That code was object orien
   6:..\max31865.c **** // and mostly for 8-bit MCUs.  PSoC Creator doesn't do object oriented, and this is a 32-bit MCU.
   7:..\max31865.c **** 
   8:..\max31865.c **** // note that all of the MAX31865 SPI communications is done with software SPI.  For some reason the
   9:..\max31865.c **** // SPI had difficulties consistently talking with the MAX31865 on the PSOC 5LPs.  There are just a 
  10:..\max31865.c **** // functions at the end to handle this communications.
  11:..\max31865.c **** 
  12:..\max31865.c **** // throughout this program the cs variable is the "chip select", used to bring the gpio line low fo
  13:..\max31865.c **** // to talk with.  All other gpio select lines should be high for the other MAX31865s.
  14:..\max31865.c **** 
  15:..\max31865.c **** uint8_t max31865_begin(max31865_numwires_t wires) {
  16:..\max31865.c ****     uint8_t cs, t;
  17:..\max31865.c ****     for (cs = 0; cs < 8; cs++)
  18:..\max31865.c ****     {
  19:..\max31865.c ****         t = 0;
  20:..\max31865.c ****         if (wires == MAX31865_3WIRE)
  21:..\max31865.c ****             t |= MAX31856_CONFIG_3WIRE;
  22:..\max31865.c ****         t |= MAX31856_CONFIG_FAULTSTAT;
  23:..\max31865.c ****         max31865_writeRegister8(MAX31856_CONFIG_REG, t, cs);
  24:..\max31865.c ****     }
  25:..\max31865.c ****     return 1;
  26:..\max31865.c **** }
  27:..\max31865.c **** 
  28:..\max31865.c **** 
  29:..\max31865.c **** uint8_t max31865_readFault(uint8_t cs) {
  30:..\max31865.c ****     uint8_t ret;
ARM GAS  C:\Users\scott\AppData\Local\Temp\cc62F3Ac.s 			page 2


  31:..\max31865.c ****     max31865_readRegisterN(MAX31856_CONFIG_REG, &ret, 1, cs);
  32:..\max31865.c ****     if (!(ret * 0x10) || (ret & 0x01))
  33:..\max31865.c ****         return 1;
  34:..\max31865.c ****     max31865_readRegisterN(MAX31856_FAULTSTAT_REG, &ret, 1, cs);
  35:..\max31865.c ****     return ret;
  36:..\max31865.c **** }
  37:..\max31865.c **** 
  38:..\max31865.c **** void max31865_clearFault(uint8_t cs) {
  39:..\max31865.c ****     uint8_t t;
  40:..\max31865.c ****     max31865_readRegisterN(MAX31856_CONFIG_REG, &t, 1, cs);
  41:..\max31865.c ****     t &= ~0x2C;
  42:..\max31865.c ****     t |= MAX31856_CONFIG_FAULTSTAT;
  43:..\max31865.c ****     max31865_writeRegister8(MAX31856_CONFIG_REG, t, cs);
  44:..\max31865.c **** }
  45:..\max31865.c **** 
  46:..\max31865.c **** void max31865_enableBias(uint8_t b, uint8_t cs) {
  47:..\max31865.c ****     uint8_t t;
  48:..\max31865.c ****     max31865_readRegisterN(MAX31856_CONFIG_REG, &t, 1, cs);
  49:..\max31865.c ****     if (b) {
  50:..\max31865.c ****         t |= MAX31856_CONFIG_BIAS;       // enable bias
  51:..\max31865.c ****     } else {
  52:..\max31865.c ****         t &= ~MAX31856_CONFIG_BIAS;       // disable bias
  53:..\max31865.c ****     }
  54:..\max31865.c ****     max31865_writeRegister8(MAX31856_CONFIG_REG, t, cs);
  55:..\max31865.c **** }
  56:..\max31865.c **** 
  57:..\max31865.c **** void max31865_autoConvert(uint8_t b, uint8_t cs) {
  58:..\max31865.c ****     uint8_t t;
  59:..\max31865.c ****     max31865_readRegisterN(MAX31856_CONFIG_REG, &t, 1, cs);
  60:..\max31865.c ****     if (b) {
  61:..\max31865.c ****         t |= MAX31856_CONFIG_MODEAUTO;       // enable autoconvert
  62:..\max31865.c ****     } else {
  63:..\max31865.c ****         t &= ~MAX31856_CONFIG_MODEAUTO;       // disable autoconvert
  64:..\max31865.c ****     }
  65:..\max31865.c ****     max31865_writeRegister8(MAX31856_CONFIG_REG, t, cs);
  66:..\max31865.c **** }
  67:..\max31865.c **** 
  68:..\max31865.c **** void max31865_setWires(max31865_numwires_t wires , uint8_t cs) {
  69:..\max31865.c ****     uint8_t t;
  70:..\max31865.c ****     max31865_readRegisterN(MAX31856_CONFIG_REG, &t, 1, cs);
  71:..\max31865.c ****     if (wires == MAX31865_3WIRE) {
  72:..\max31865.c ****         t |= MAX31856_CONFIG_3WIRE;
  73:..\max31865.c ****     } else {
  74:..\max31865.c ****     // 2 or 4 wire
  75:..\max31865.c ****         t &= ~MAX31856_CONFIG_3WIRE;
  76:..\max31865.c ****     }
  77:..\max31865.c ****     max31865_writeRegister8(MAX31856_CONFIG_REG, t, cs);
  78:..\max31865.c **** }
  79:..\max31865.c **** 
  80:..\max31865.c **** float  max31865_temperature(float RTDnominal, float refResistor, uint8_t cs) {
  81:..\max31865.c ****     // http://www.analog.com/media/en/technical-documentation/application-notes/AN709_0.pdf
  82:..\max31865.c **** 
  83:..\max31865.c ****     float Z1, Z2, Z3, Z4, Rt, temp;
  84:..\max31865.c **** 
  85:..\max31865.c ****     Rt = max31865_readRTD(cs);
  86:..\max31865.c ****     Rt /= 32768;
  87:..\max31865.c ****     Rt *= refResistor;
ARM GAS  C:\Users\scott\AppData\Local\Temp\cc62F3Ac.s 			page 3


  88:..\max31865.c ****     
  89:..\max31865.c ****     Z1 = -RTD_A;
  90:..\max31865.c ****     Z2 = RTD_A * RTD_A - (4 * RTD_B);
  91:..\max31865.c ****     Z3 = (4 * RTD_B) / RTDnominal;
  92:..\max31865.c ****     Z4 = 2 * RTD_B;
  93:..\max31865.c **** 
  94:..\max31865.c ****     temp = Z2 + (Z3 * Rt);
  95:..\max31865.c ****     temp = (sqrtf(temp) + Z1) / Z4;
  96:..\max31865.c ****     if (temp > 120) return 0;  // should not have a temp over 120 degrees celsius
  97:..\max31865.c ****     if (temp >= 0) return temp;
  98:..\max31865.c **** 
  99:..\max31865.c ****     // ugh.  From here on down in this procedure doesn't really seem to work, but all temps read ar
 100:..\max31865.c ****     // so it's not exactly a worry
 101:..\max31865.c ****     Rt /= RTDnominal;
 102:..\max31865.c ****     Rt *= 100;      // normalize to 100 ohm
 103:..\max31865.c **** 
 104:..\max31865.c ****     float rpoly = Rt;
 105:..\max31865.c **** 
 106:..\max31865.c ****     temp = -242.02;
 107:..\max31865.c ****     temp += 2.2228 * rpoly;
 108:..\max31865.c ****     rpoly *= Rt;  // square
 109:..\max31865.c ****     temp += 2.5859e-3 * rpoly;
 110:..\max31865.c ****     rpoly *= Rt;  // ^3
 111:..\max31865.c ****     temp -= 4.8260e-6 * rpoly;
 112:..\max31865.c ****     rpoly *= Rt;  // ^4
 113:..\max31865.c ****     temp -= 2.8183e-8 * rpoly;
 114:..\max31865.c ****     rpoly *= Rt;  // ^5
 115:..\max31865.c ****     temp += 1.5243e-10 * rpoly;
 116:..\max31865.c ****     if (temp < -20)
 117:..\max31865.c ****         return -20;
 118:..\max31865.c ****     return temp;
 119:..\max31865.c **** }
 120:..\max31865.c **** 
 121:..\max31865.c **** uint16_t max31865_readRTD (uint8_t cs) {
 122:..\max31865.c ****     uint16_t rtd;
 123:..\max31865.c ****     uint8_t t;
 124:..\max31865.c ****     max31865_clearFault(cs);
 125:..\max31865.c ****     max31865_enableBias(1, cs);
 126:..\max31865.c ****     CyDelay(15);
 127:..\max31865.c ****     max31865_readRegisterN(MAX31856_CONFIG_REG, &t, 1, cs);
 128:..\max31865.c ****     t |= MAX31856_CONFIG_1SHOT;
 129:..\max31865.c ****     max31865_writeRegister8(MAX31856_CONFIG_REG, t, cs);
 130:..\max31865.c ****     CyDelay(70);
 131:..\max31865.c **** 
 132:..\max31865.c ****     //rtd = max31865_readRegister16(MAX31856_RTDMSB_REG, cs);
 133:..\max31865.c ****     max31865_readRegisterN(MAX31856_RTDMSB_REG, &t, 1, cs);
 134:..\max31865.c ****     rtd = t <<8;
 135:..\max31865.c ****     max31865_readRegisterN(MAX31856_RTDLSB_REG, &t, 1, cs);
 136:..\max31865.c ****     rtd |= t;
 137:..\max31865.c **** 
 138:..\max31865.c ****     // remove fault
 139:..\max31865.c ****     rtd >>= 1;
 140:..\max31865.c **** 
 141:..\max31865.c ****     return rtd;
 142:..\max31865.c **** }
 143:..\max31865.c **** 
 144:..\max31865.c **** /**********************************************/
ARM GAS  C:\Users\scott\AppData\Local\Temp\cc62F3Ac.s 			page 4


 145:..\max31865.c **** 
 146:..\max31865.c **** uint8_t max31865_readRegister8(uint8_t addr, uint8_t cs) {
 147:..\max31865.c ****   uint8_t ret = 0;
 148:..\max31865.c ****   max31865_readRegisterN(addr, &ret, 1, cs);
 149:..\max31865.c ****   return ret;
 150:..\max31865.c **** }
 151:..\max31865.c **** 
 152:..\max31865.c **** uint16_t max31865_readRegister16(uint8_t addr, uint8_t cs) {
 153:..\max31865.c ****   uint8_t buffer[2] = {0, 0};
 154:..\max31865.c ****   max31865_readRegisterN(addr, buffer, 2, cs);
 155:..\max31865.c **** 
 156:..\max31865.c ****   uint16_t ret = buffer[0];
 157:..\max31865.c ****   ret <<= 8;
 158:..\max31865.c ****   ret |=  buffer[1];
 159:..\max31865.c **** 
 160:..\max31865.c ****   return ret;
 161:..\max31865.c **** }
 162:..\max31865.c **** 
 163:..\max31865.c **** 
 164:..\max31865.c **** void max31865_readRegisterN(uint8_t addr, uint8_t buffer[], uint8_t n, uint8_t cs) {
 165:..\max31865.c ****     addr &= 0x7F; // make sure top bit is not set
 166:..\max31865.c **** 
 167:..\max31865.c ****     MAX31865_CS_Write(~(1<<cs));
 168:..\max31865.c ****     CyDelay(1);
 169:..\max31865.c ****     MAX31865_spixfer(addr);
 170:..\max31865.c ****     while (n--) {
 171:..\max31865.c ****         *buffer = MAX31865_spixfer(0x7f);
 172:..\max31865.c ****         buffer++;
 173:..\max31865.c ****     }
 174:..\max31865.c ****     CyDelay(1);
 175:..\max31865.c ****     MAX31865_CS_Write(0xff);
 176:..\max31865.c **** }
 177:..\max31865.c **** 
 178:..\max31865.c **** 
 179:..\max31865.c **** void max31865_writeRegister8(uint8_t addr, uint8_t data, uint8_t cs) {
 180:..\max31865.c ****     MAX31865_CS_Write(~(1<<cs));
 181:..\max31865.c ****     CyDelay(1);
 182:..\max31865.c ****     MAX31865_spixfer(addr | 0x80);   // make sure top bit is set
 183:..\max31865.c ****     MAX31865_spixfer(data);
 184:..\max31865.c ****     MAX31865_CS_Write(0xff);
 185:..\max31865.c **** }
 186:..\max31865.c **** 
 187:..\max31865.c **** // This is the hardware SPI function that handles all of the communications with the MAX31865s.
 188:..\max31865.c **** // The pin names are MOSI, MISO, and SCLK.  They are arbitrary, and can be almost any pins
 189:..\max31865.c **** // on the PSoC 5LP.  The chip select is done separately.
 190:..\max31865.c **** uint8_t MAX31865_spixfer(uint8_t x) {
  28              		.loc 1 190 0
  29              		.cfi_startproc
  30              		@ args = 0, pretend = 0, frame = 0
  31              		@ frame_needed = 0, uses_anonymous_args = 0
  32              	.LVL0:
  33 0000 10B5     		push	{r4, lr}
  34              		.cfi_def_cfa_offset 8
  35              		.cfi_offset 4, -8
  36              		.cfi_offset 14, -4
  37              	.LVL1:
 191:..\max31865.c **** 
ARM GAS  C:\Users\scott\AppData\Local\Temp\cc62F3Ac.s 			page 5


 192:..\max31865.c ****   uint8_t reply = 0;
 193:..\max31865.c ****   uint8_t i;
 194:..\max31865.c ****   i = 0;
 195:..\max31865.c ****   SPIM_WriteByte(x);
  38              		.loc 1 195 0
  39 0002 FFF7FEFF 		bl	SPIM_WriteTxData
  40              	.LVL2:
 196:..\max31865.c ****   CyDelayUs(50);
  41              		.loc 1 196 0
  42 0006 3220     		movs	r0, #50
  43 0008 FFF7FEFF 		bl	CyDelayUs
  44              	.LVL3:
 194:..\max31865.c ****   SPIM_WriteByte(x);
  45              		.loc 1 194 0
  46 000c 0024     		movs	r4, #0
 197:..\max31865.c ****   while (0u == (SPIM_ReadTxStatus() & SPIM_STS_SPI_DONE) && i < 250)
  47              		.loc 1 197 0
  48 000e 04E0     		b	.L2
  49              	.LVL4:
  50              	.L4:
 198:..\max31865.c ****   {
 199:..\max31865.c ****     i++;
  51              		.loc 1 199 0
  52 0010 0134     		adds	r4, r4, #1
  53              	.LVL5:
  54 0012 E4B2     		uxtb	r4, r4
  55              	.LVL6:
 200:..\max31865.c ****     CyDelay(2);
  56              		.loc 1 200 0
  57 0014 0220     		movs	r0, #2
  58 0016 FFF7FEFF 		bl	CyDelay
  59              	.LVL7:
  60              	.L2:
 197:..\max31865.c ****   while (0u == (SPIM_ReadTxStatus() & SPIM_STS_SPI_DONE) && i < 250)
  61              		.loc 1 197 0
  62 001a FFF7FEFF 		bl	SPIM_ReadTxStatus
  63              	.LVL8:
  64 001e 10F0010F 		tst	r0, #1
  65 0022 01D1     		bne	.L3
 197:..\max31865.c ****   while (0u == (SPIM_ReadTxStatus() & SPIM_STS_SPI_DONE) && i < 250)
  66              		.loc 1 197 0 is_stmt 0 discriminator 1
  67 0024 F92C     		cmp	r4, #249
  68 0026 F3D9     		bls	.L4
  69              	.L3:
 201:..\max31865.c ****   }
 202:..\max31865.c ****   reply = SPIM_ReadRxData();
  70              		.loc 1 202 0 is_stmt 1
  71 0028 FFF7FEFF 		bl	SPIM_ReadRxData
  72              	.LVL9:
 203:..\max31865.c ****   
 204:..\max31865.c ****   return reply;
 205:..\max31865.c **** }
  73              		.loc 1 205 0
  74 002c 10BD     		pop	{r4, pc}
  75              		.cfi_endproc
  76              	.LFE76:
  77              		.size	MAX31865_spixfer, .-MAX31865_spixfer
ARM GAS  C:\Users\scott\AppData\Local\Temp\cc62F3Ac.s 			page 6


  78 002e 00BF     		.section	.text.max31865_readRegisterN,"ax",%progbits
  79              		.align	2
  80              		.global	max31865_readRegisterN
  81              		.thumb
  82              		.thumb_func
  83              		.type	max31865_readRegisterN, %function
  84              	max31865_readRegisterN:
  85              	.LFB74:
 164:..\max31865.c ****     addr &= 0x7F; // make sure top bit is not set
  86              		.loc 1 164 0
  87              		.cfi_startproc
  88              		@ args = 0, pretend = 0, frame = 0
  89              		@ frame_needed = 0, uses_anonymous_args = 0
  90              	.LVL10:
  91 0000 F8B5     		push	{r3, r4, r5, r6, r7, lr}
  92              		.cfi_def_cfa_offset 24
  93              		.cfi_offset 3, -24
  94              		.cfi_offset 4, -20
  95              		.cfi_offset 5, -16
  96              		.cfi_offset 6, -12
  97              		.cfi_offset 7, -8
  98              		.cfi_offset 14, -4
  99 0002 0E46     		mov	r6, r1
 100 0004 1546     		mov	r5, r2
 165:..\max31865.c **** 
 101              		.loc 1 165 0
 102 0006 00F07F07 		and	r7, r0, #127
 103              	.LVL11:
 167:..\max31865.c ****     CyDelay(1);
 104              		.loc 1 167 0
 105 000a 0124     		movs	r4, #1
 106 000c 04FA03F3 		lsl	r3, r4, r3
 107              	.LVL12:
 108 0010 D843     		mvns	r0, r3
 109 0012 C0B2     		uxtb	r0, r0
 110 0014 FFF7FEFF 		bl	MAX31865_CS_Write
 111              	.LVL13:
 168:..\max31865.c ****     MAX31865_spixfer(addr);
 112              		.loc 1 168 0
 113 0018 2046     		mov	r0, r4
 114 001a FFF7FEFF 		bl	CyDelay
 115              	.LVL14:
 169:..\max31865.c ****     while (n--) {
 116              		.loc 1 169 0
 117 001e 3846     		mov	r0, r7
 118 0020 FFF7FEFF 		bl	MAX31865_spixfer
 119              	.LVL15:
 170:..\max31865.c ****         *buffer = MAX31865_spixfer(0x7f);
 120              		.loc 1 170 0
 121 0024 05E0     		b	.L7
 122              	.LVL16:
 123              	.L8:
 171:..\max31865.c ****         buffer++;
 124              		.loc 1 171 0
 125 0026 7F20     		movs	r0, #127
 126 0028 FFF7FEFF 		bl	MAX31865_spixfer
 127              	.LVL17:
ARM GAS  C:\Users\scott\AppData\Local\Temp\cc62F3Ac.s 			page 7


 128 002c 06F8010B 		strb	r0, [r6], #1
 129              	.LVL18:
 170:..\max31865.c ****         *buffer = MAX31865_spixfer(0x7f);
 130              		.loc 1 170 0
 131 0030 2546     		mov	r5, r4
 132              	.LVL19:
 133              	.L7:
 134 0032 6B1E     		subs	r3, r5, #1
 135 0034 DCB2     		uxtb	r4, r3
 136              	.LVL20:
 137 0036 002D     		cmp	r5, #0
 138 0038 F5D1     		bne	.L8
 174:..\max31865.c ****     MAX31865_CS_Write(0xff);
 139              		.loc 1 174 0
 140 003a 0120     		movs	r0, #1
 141 003c FFF7FEFF 		bl	CyDelay
 142              	.LVL21:
 175:..\max31865.c **** }
 143              		.loc 1 175 0
 144 0040 FF20     		movs	r0, #255
 145 0042 FFF7FEFF 		bl	MAX31865_CS_Write
 146              	.LVL22:
 147 0046 F8BD     		pop	{r3, r4, r5, r6, r7, pc}
 148              		.cfi_endproc
 149              	.LFE74:
 150              		.size	max31865_readRegisterN, .-max31865_readRegisterN
 151              		.section	.text.max31865_readFault,"ax",%progbits
 152              		.align	2
 153              		.global	max31865_readFault
 154              		.thumb
 155              		.thumb_func
 156              		.type	max31865_readFault, %function
 157              	max31865_readFault:
 158              	.LFB65:
  29:..\max31865.c ****     uint8_t ret;
 159              		.loc 1 29 0
 160              		.cfi_startproc
 161              		@ args = 0, pretend = 0, frame = 8
 162              		@ frame_needed = 0, uses_anonymous_args = 0
 163              	.LVL23:
 164 0000 10B5     		push	{r4, lr}
 165              		.cfi_def_cfa_offset 8
 166              		.cfi_offset 4, -8
 167              		.cfi_offset 14, -4
 168 0002 82B0     		sub	sp, sp, #8
 169              		.cfi_def_cfa_offset 16
 170 0004 0446     		mov	r4, r0
  31:..\max31865.c ****     if (!(ret * 0x10) || (ret & 0x01))
 171              		.loc 1 31 0
 172 0006 0346     		mov	r3, r0
 173 0008 0122     		movs	r2, #1
 174 000a 0DF10701 		add	r1, sp, #7
 175 000e 0020     		movs	r0, #0
 176              	.LVL24:
 177 0010 FFF7FEFF 		bl	max31865_readRegisterN
 178              	.LVL25:
  32:..\max31865.c ****         return 1;
ARM GAS  C:\Users\scott\AppData\Local\Temp\cc62F3Ac.s 			page 8


 179              		.loc 1 32 0
 180 0014 9DF80730 		ldrb	r3, [sp, #7]	@ zero_extendqisi2
 181 0018 63B1     		cbz	r3, .L12
  32:..\max31865.c ****         return 1;
 182              		.loc 1 32 0 is_stmt 0 discriminator 1
 183 001a 13F0010F 		tst	r3, #1
 184 001e 0BD1     		bne	.L13
  34:..\max31865.c ****     return ret;
 185              		.loc 1 34 0 is_stmt 1
 186 0020 2346     		mov	r3, r4
 187 0022 0122     		movs	r2, #1
 188 0024 0DF10701 		add	r1, sp, #7
 189 0028 0720     		movs	r0, #7
 190 002a FFF7FEFF 		bl	max31865_readRegisterN
 191              	.LVL26:
  35:..\max31865.c **** }
 192              		.loc 1 35 0
 193 002e 9DF80700 		ldrb	r0, [sp, #7]	@ zero_extendqisi2
 194 0032 02E0     		b	.L11
 195              	.L12:
  33:..\max31865.c ****     max31865_readRegisterN(MAX31856_FAULTSTAT_REG, &ret, 1, cs);
 196              		.loc 1 33 0
 197 0034 0120     		movs	r0, #1
 198 0036 00E0     		b	.L11
 199              	.L13:
 200 0038 0120     		movs	r0, #1
 201              	.L11:
  36:..\max31865.c **** 
 202              		.loc 1 36 0
 203 003a 02B0     		add	sp, sp, #8
 204              		.cfi_def_cfa_offset 8
 205              		@ sp needed
 206 003c 10BD     		pop	{r4, pc}
 207              		.cfi_endproc
 208              	.LFE65:
 209              		.size	max31865_readFault, .-max31865_readFault
 210 003e 00BF     		.section	.text.max31865_readRegister8,"ax",%progbits
 211              		.align	2
 212              		.global	max31865_readRegister8
 213              		.thumb
 214              		.thumb_func
 215              		.type	max31865_readRegister8, %function
 216              	max31865_readRegister8:
 217              	.LFB72:
 146:..\max31865.c ****   uint8_t ret = 0;
 218              		.loc 1 146 0
 219              		.cfi_startproc
 220              		@ args = 0, pretend = 0, frame = 8
 221              		@ frame_needed = 0, uses_anonymous_args = 0
 222              	.LVL27:
 223 0000 10B5     		push	{r4, lr}
 224              		.cfi_def_cfa_offset 8
 225              		.cfi_offset 4, -8
 226              		.cfi_offset 14, -4
 227 0002 82B0     		sub	sp, sp, #8
 228              		.cfi_def_cfa_offset 16
 147:..\max31865.c ****   max31865_readRegisterN(addr, &ret, 1, cs);
ARM GAS  C:\Users\scott\AppData\Local\Temp\cc62F3Ac.s 			page 9


 229              		.loc 1 147 0
 230 0004 02AC     		add	r4, sp, #8
 231 0006 0023     		movs	r3, #0
 232 0008 04F8013D 		strb	r3, [r4, #-1]!
 148:..\max31865.c ****   return ret;
 233              		.loc 1 148 0
 234 000c 0B46     		mov	r3, r1
 235 000e 0122     		movs	r2, #1
 236 0010 2146     		mov	r1, r4
 237              	.LVL28:
 238 0012 FFF7FEFF 		bl	max31865_readRegisterN
 239              	.LVL29:
 150:..\max31865.c **** 
 240              		.loc 1 150 0
 241 0016 9DF80700 		ldrb	r0, [sp, #7]	@ zero_extendqisi2
 242 001a 02B0     		add	sp, sp, #8
 243              		.cfi_def_cfa_offset 8
 244              		@ sp needed
 245 001c 10BD     		pop	{r4, pc}
 246              		.cfi_endproc
 247              	.LFE72:
 248              		.size	max31865_readRegister8, .-max31865_readRegister8
 249 001e 00BF     		.section	.text.max31865_readRegister16,"ax",%progbits
 250              		.align	2
 251              		.global	max31865_readRegister16
 252              		.thumb
 253              		.thumb_func
 254              		.type	max31865_readRegister16, %function
 255              	max31865_readRegister16:
 256              	.LFB73:
 152:..\max31865.c ****   uint8_t buffer[2] = {0, 0};
 257              		.loc 1 152 0
 258              		.cfi_startproc
 259              		@ args = 0, pretend = 0, frame = 8
 260              		@ frame_needed = 0, uses_anonymous_args = 0
 261              	.LVL30:
 262 0000 00B5     		push	{lr}
 263              		.cfi_def_cfa_offset 4
 264              		.cfi_offset 14, -4
 265 0002 83B0     		sub	sp, sp, #12
 266              		.cfi_def_cfa_offset 16
 153:..\max31865.c ****   max31865_readRegisterN(addr, buffer, 2, cs);
 267              		.loc 1 153 0
 268 0004 0023     		movs	r3, #0
 269 0006 8DF80430 		strb	r3, [sp, #4]
 270 000a 8DF80530 		strb	r3, [sp, #5]
 154:..\max31865.c **** 
 271              		.loc 1 154 0
 272 000e 0B46     		mov	r3, r1
 273 0010 0222     		movs	r2, #2
 274 0012 01A9     		add	r1, sp, #4
 275              	.LVL31:
 276 0014 FFF7FEFF 		bl	max31865_readRegisterN
 277              	.LVL32:
 156:..\max31865.c ****   ret <<= 8;
 278              		.loc 1 156 0
 279 0018 9DF80400 		ldrb	r0, [sp, #4]	@ zero_extendqisi2
ARM GAS  C:\Users\scott\AppData\Local\Temp\cc62F3Ac.s 			page 10


 280              	.LVL33:
 158:..\max31865.c **** 
 281              		.loc 1 158 0
 282 001c 9DF80530 		ldrb	r3, [sp, #5]	@ zero_extendqisi2
 283              	.LVL34:
 161:..\max31865.c **** 
 284              		.loc 1 161 0
 285 0020 43EA0020 		orr	r0, r3, r0, lsl #8
 286              	.LVL35:
 287 0024 03B0     		add	sp, sp, #12
 288              		.cfi_def_cfa_offset 4
 289              		@ sp needed
 290 0026 5DF804FB 		ldr	pc, [sp], #4
 291              		.cfi_endproc
 292              	.LFE73:
 293              		.size	max31865_readRegister16, .-max31865_readRegister16
 294 002a 00BF     		.section	.text.max31865_writeRegister8,"ax",%progbits
 295              		.align	2
 296              		.global	max31865_writeRegister8
 297              		.thumb
 298              		.thumb_func
 299              		.type	max31865_writeRegister8, %function
 300              	max31865_writeRegister8:
 301              	.LFB75:
 179:..\max31865.c ****     MAX31865_CS_Write(~(1<<cs));
 302              		.loc 1 179 0
 303              		.cfi_startproc
 304              		@ args = 0, pretend = 0, frame = 0
 305              		@ frame_needed = 0, uses_anonymous_args = 0
 306              	.LVL36:
 307 0000 70B5     		push	{r4, r5, r6, lr}
 308              		.cfi_def_cfa_offset 16
 309              		.cfi_offset 4, -16
 310              		.cfi_offset 5, -12
 311              		.cfi_offset 6, -8
 312              		.cfi_offset 14, -4
 313 0002 0646     		mov	r6, r0
 314 0004 0D46     		mov	r5, r1
 180:..\max31865.c ****     CyDelay(1);
 315              		.loc 1 180 0
 316 0006 0124     		movs	r4, #1
 317 0008 04FA02F2 		lsl	r2, r4, r2
 318              	.LVL37:
 319 000c D043     		mvns	r0, r2
 320              	.LVL38:
 321 000e C0B2     		uxtb	r0, r0
 322 0010 FFF7FEFF 		bl	MAX31865_CS_Write
 323              	.LVL39:
 181:..\max31865.c ****     MAX31865_spixfer(addr | 0x80);   // make sure top bit is set
 324              		.loc 1 181 0
 325 0014 2046     		mov	r0, r4
 326 0016 FFF7FEFF 		bl	CyDelay
 327              	.LVL40:
 182:..\max31865.c ****     MAX31865_spixfer(data);
 328              		.loc 1 182 0
 329 001a 46F08000 		orr	r0, r6, #128
 330 001e FFF7FEFF 		bl	MAX31865_spixfer
ARM GAS  C:\Users\scott\AppData\Local\Temp\cc62F3Ac.s 			page 11


 331              	.LVL41:
 183:..\max31865.c ****     MAX31865_CS_Write(0xff);
 332              		.loc 1 183 0
 333 0022 2846     		mov	r0, r5
 334 0024 FFF7FEFF 		bl	MAX31865_spixfer
 335              	.LVL42:
 184:..\max31865.c **** }
 336              		.loc 1 184 0
 337 0028 FF20     		movs	r0, #255
 338 002a FFF7FEFF 		bl	MAX31865_CS_Write
 339              	.LVL43:
 340 002e 70BD     		pop	{r4, r5, r6, pc}
 341              		.cfi_endproc
 342              	.LFE75:
 343              		.size	max31865_writeRegister8, .-max31865_writeRegister8
 344              		.section	.text.max31865_begin,"ax",%progbits
 345              		.align	2
 346              		.global	max31865_begin
 347              		.thumb
 348              		.thumb_func
 349              		.type	max31865_begin, %function
 350              	max31865_begin:
 351              	.LFB64:
  15:..\max31865.c ****     uint8_t cs, t;
 352              		.loc 1 15 0
 353              		.cfi_startproc
 354              		@ args = 0, pretend = 0, frame = 0
 355              		@ frame_needed = 0, uses_anonymous_args = 0
 356              	.LVL44:
 357 0000 38B5     		push	{r3, r4, r5, lr}
 358              		.cfi_def_cfa_offset 16
 359              		.cfi_offset 3, -16
 360              		.cfi_offset 4, -12
 361              		.cfi_offset 5, -8
 362              		.cfi_offset 14, -4
 363 0002 0546     		mov	r5, r0
 364              	.LVL45:
  17:..\max31865.c ****     {
 365              		.loc 1 17 0
 366 0004 0024     		movs	r4, #0
 367 0006 0CE0     		b	.L22
 368              	.LVL46:
 369              	.L24:
  20:..\max31865.c ****             t |= MAX31856_CONFIG_3WIRE;
 370              		.loc 1 20 0
 371 0008 012D     		cmp	r5, #1
 372 000a 01D0     		beq	.L25
  19:..\max31865.c ****         if (wires == MAX31865_3WIRE)
 373              		.loc 1 19 0
 374 000c 0021     		movs	r1, #0
 375 000e 00E0     		b	.L23
 376              	.L25:
  21:..\max31865.c ****         t |= MAX31856_CONFIG_FAULTSTAT;
 377              		.loc 1 21 0
 378 0010 1021     		movs	r1, #16
 379              	.L23:
 380              	.LVL47:
ARM GAS  C:\Users\scott\AppData\Local\Temp\cc62F3Ac.s 			page 12


  23:..\max31865.c ****     }
 381              		.loc 1 23 0 discriminator 2
 382 0012 2246     		mov	r2, r4
 383 0014 41F00201 		orr	r1, r1, #2
 384              	.LVL48:
 385 0018 0020     		movs	r0, #0
 386 001a FFF7FEFF 		bl	max31865_writeRegister8
 387              	.LVL49:
  17:..\max31865.c ****     {
 388              		.loc 1 17 0 discriminator 2
 389 001e 0134     		adds	r4, r4, #1
 390              	.LVL50:
 391 0020 E4B2     		uxtb	r4, r4
 392              	.LVL51:
 393              	.L22:
  17:..\max31865.c ****     {
 394              		.loc 1 17 0 is_stmt 0 discriminator 1
 395 0022 072C     		cmp	r4, #7
 396 0024 F0D9     		bls	.L24
  26:..\max31865.c **** 
 397              		.loc 1 26 0 is_stmt 1
 398 0026 0120     		movs	r0, #1
 399 0028 38BD     		pop	{r3, r4, r5, pc}
 400              		.cfi_endproc
 401              	.LFE64:
 402              		.size	max31865_begin, .-max31865_begin
 403 002a 00BF     		.section	.text.max31865_clearFault,"ax",%progbits
 404              		.align	2
 405              		.global	max31865_clearFault
 406              		.thumb
 407              		.thumb_func
 408              		.type	max31865_clearFault, %function
 409              	max31865_clearFault:
 410              	.LFB66:
  38:..\max31865.c ****     uint8_t t;
 411              		.loc 1 38 0
 412              		.cfi_startproc
 413              		@ args = 0, pretend = 0, frame = 8
 414              		@ frame_needed = 0, uses_anonymous_args = 0
 415              	.LVL52:
 416 0000 10B5     		push	{r4, lr}
 417              		.cfi_def_cfa_offset 8
 418              		.cfi_offset 4, -8
 419              		.cfi_offset 14, -4
 420 0002 82B0     		sub	sp, sp, #8
 421              		.cfi_def_cfa_offset 16
 422 0004 0446     		mov	r4, r0
  40:..\max31865.c ****     t &= ~0x2C;
 423              		.loc 1 40 0
 424 0006 0346     		mov	r3, r0
 425 0008 0122     		movs	r2, #1
 426 000a 0DF10701 		add	r1, sp, #7
 427 000e 0020     		movs	r0, #0
 428              	.LVL53:
 429 0010 FFF7FEFF 		bl	max31865_readRegisterN
 430              	.LVL54:
  41:..\max31865.c ****     t |= MAX31856_CONFIG_FAULTSTAT;
ARM GAS  C:\Users\scott\AppData\Local\Temp\cc62F3Ac.s 			page 13


 431              		.loc 1 41 0
 432 0014 9DF80710 		ldrb	r1, [sp, #7]	@ zero_extendqisi2
 433 0018 01F0D301 		and	r1, r1, #211
  42:..\max31865.c ****     max31865_writeRegister8(MAX31856_CONFIG_REG, t, cs);
 434              		.loc 1 42 0
 435 001c 41F00201 		orr	r1, r1, #2
 436 0020 8DF80710 		strb	r1, [sp, #7]
  43:..\max31865.c **** }
 437              		.loc 1 43 0
 438 0024 2246     		mov	r2, r4
 439 0026 0020     		movs	r0, #0
 440 0028 FFF7FEFF 		bl	max31865_writeRegister8
 441              	.LVL55:
  44:..\max31865.c **** 
 442              		.loc 1 44 0
 443 002c 02B0     		add	sp, sp, #8
 444              		.cfi_def_cfa_offset 8
 445              		@ sp needed
 446 002e 10BD     		pop	{r4, pc}
 447              		.cfi_endproc
 448              	.LFE66:
 449              		.size	max31865_clearFault, .-max31865_clearFault
 450              		.section	.text.max31865_enableBias,"ax",%progbits
 451              		.align	2
 452              		.global	max31865_enableBias
 453              		.thumb
 454              		.thumb_func
 455              		.type	max31865_enableBias, %function
 456              	max31865_enableBias:
 457              	.LFB67:
  46:..\max31865.c ****     uint8_t t;
 458              		.loc 1 46 0
 459              		.cfi_startproc
 460              		@ args = 0, pretend = 0, frame = 8
 461              		@ frame_needed = 0, uses_anonymous_args = 0
 462              	.LVL56:
 463 0000 30B5     		push	{r4, r5, lr}
 464              		.cfi_def_cfa_offset 12
 465              		.cfi_offset 4, -12
 466              		.cfi_offset 5, -8
 467              		.cfi_offset 14, -4
 468 0002 83B0     		sub	sp, sp, #12
 469              		.cfi_def_cfa_offset 24
 470 0004 0546     		mov	r5, r0
 471 0006 0C46     		mov	r4, r1
  48:..\max31865.c ****     if (b) {
 472              		.loc 1 48 0
 473 0008 0B46     		mov	r3, r1
 474 000a 0122     		movs	r2, #1
 475 000c 0DF10701 		add	r1, sp, #7
 476              	.LVL57:
 477 0010 0020     		movs	r0, #0
 478              	.LVL58:
 479 0012 FFF7FEFF 		bl	max31865_readRegisterN
 480              	.LVL59:
  49:..\max31865.c ****         t |= MAX31856_CONFIG_BIAS;       // enable bias
 481              		.loc 1 49 0
ARM GAS  C:\Users\scott\AppData\Local\Temp\cc62F3Ac.s 			page 14


 482 0016 35B1     		cbz	r5, .L30
  50:..\max31865.c ****     } else {
 483              		.loc 1 50 0
 484 0018 9DF80730 		ldrb	r3, [sp, #7]	@ zero_extendqisi2
 485 001c 63F07F03 		orn	r3, r3, #127
 486 0020 8DF80730 		strb	r3, [sp, #7]
 487 0024 05E0     		b	.L31
 488              	.L30:
  52:..\max31865.c ****     }
 489              		.loc 1 52 0
 490 0026 9DF80730 		ldrb	r3, [sp, #7]	@ zero_extendqisi2
 491 002a 03F07F03 		and	r3, r3, #127
 492 002e 8DF80730 		strb	r3, [sp, #7]
 493              	.L31:
  54:..\max31865.c **** }
 494              		.loc 1 54 0
 495 0032 2246     		mov	r2, r4
 496 0034 9DF80710 		ldrb	r1, [sp, #7]	@ zero_extendqisi2
 497 0038 0020     		movs	r0, #0
 498 003a FFF7FEFF 		bl	max31865_writeRegister8
 499              	.LVL60:
  55:..\max31865.c **** 
 500              		.loc 1 55 0
 501 003e 03B0     		add	sp, sp, #12
 502              		.cfi_def_cfa_offset 12
 503              		@ sp needed
 504 0040 30BD     		pop	{r4, r5, pc}
 505              		.cfi_endproc
 506              	.LFE67:
 507              		.size	max31865_enableBias, .-max31865_enableBias
 508 0042 00BF     		.section	.text.max31865_autoConvert,"ax",%progbits
 509              		.align	2
 510              		.global	max31865_autoConvert
 511              		.thumb
 512              		.thumb_func
 513              		.type	max31865_autoConvert, %function
 514              	max31865_autoConvert:
 515              	.LFB68:
  57:..\max31865.c ****     uint8_t t;
 516              		.loc 1 57 0
 517              		.cfi_startproc
 518              		@ args = 0, pretend = 0, frame = 8
 519              		@ frame_needed = 0, uses_anonymous_args = 0
 520              	.LVL61:
 521 0000 30B5     		push	{r4, r5, lr}
 522              		.cfi_def_cfa_offset 12
 523              		.cfi_offset 4, -12
 524              		.cfi_offset 5, -8
 525              		.cfi_offset 14, -4
 526 0002 83B0     		sub	sp, sp, #12
 527              		.cfi_def_cfa_offset 24
 528 0004 0546     		mov	r5, r0
 529 0006 0C46     		mov	r4, r1
  59:..\max31865.c ****     if (b) {
 530              		.loc 1 59 0
 531 0008 0B46     		mov	r3, r1
 532 000a 0122     		movs	r2, #1
ARM GAS  C:\Users\scott\AppData\Local\Temp\cc62F3Ac.s 			page 15


 533 000c 0DF10701 		add	r1, sp, #7
 534              	.LVL62:
 535 0010 0020     		movs	r0, #0
 536              	.LVL63:
 537 0012 FFF7FEFF 		bl	max31865_readRegisterN
 538              	.LVL64:
  60:..\max31865.c ****         t |= MAX31856_CONFIG_MODEAUTO;       // enable autoconvert
 539              		.loc 1 60 0
 540 0016 35B1     		cbz	r5, .L34
  61:..\max31865.c ****     } else {
 541              		.loc 1 61 0
 542 0018 9DF80730 		ldrb	r3, [sp, #7]	@ zero_extendqisi2
 543 001c 43F04003 		orr	r3, r3, #64
 544 0020 8DF80730 		strb	r3, [sp, #7]
 545 0024 05E0     		b	.L35
 546              	.L34:
  63:..\max31865.c ****     }
 547              		.loc 1 63 0
 548 0026 9DF80730 		ldrb	r3, [sp, #7]	@ zero_extendqisi2
 549 002a 23F04003 		bic	r3, r3, #64
 550 002e 8DF80730 		strb	r3, [sp, #7]
 551              	.L35:
  65:..\max31865.c **** }
 552              		.loc 1 65 0
 553 0032 2246     		mov	r2, r4
 554 0034 9DF80710 		ldrb	r1, [sp, #7]	@ zero_extendqisi2
 555 0038 0020     		movs	r0, #0
 556 003a FFF7FEFF 		bl	max31865_writeRegister8
 557              	.LVL65:
  66:..\max31865.c **** 
 558              		.loc 1 66 0
 559 003e 03B0     		add	sp, sp, #12
 560              		.cfi_def_cfa_offset 12
 561              		@ sp needed
 562 0040 30BD     		pop	{r4, r5, pc}
 563              		.cfi_endproc
 564              	.LFE68:
 565              		.size	max31865_autoConvert, .-max31865_autoConvert
 566 0042 00BF     		.section	.text.max31865_setWires,"ax",%progbits
 567              		.align	2
 568              		.global	max31865_setWires
 569              		.thumb
 570              		.thumb_func
 571              		.type	max31865_setWires, %function
 572              	max31865_setWires:
 573              	.LFB69:
  68:..\max31865.c ****     uint8_t t;
 574              		.loc 1 68 0
 575              		.cfi_startproc
 576              		@ args = 0, pretend = 0, frame = 8
 577              		@ frame_needed = 0, uses_anonymous_args = 0
 578              	.LVL66:
 579 0000 30B5     		push	{r4, r5, lr}
 580              		.cfi_def_cfa_offset 12
 581              		.cfi_offset 4, -12
 582              		.cfi_offset 5, -8
 583              		.cfi_offset 14, -4
ARM GAS  C:\Users\scott\AppData\Local\Temp\cc62F3Ac.s 			page 16


 584 0002 83B0     		sub	sp, sp, #12
 585              		.cfi_def_cfa_offset 24
 586 0004 0546     		mov	r5, r0
 587 0006 0C46     		mov	r4, r1
  70:..\max31865.c ****     if (wires == MAX31865_3WIRE) {
 588              		.loc 1 70 0
 589 0008 0B46     		mov	r3, r1
 590 000a 0122     		movs	r2, #1
 591 000c 0DF10701 		add	r1, sp, #7
 592              	.LVL67:
 593 0010 0020     		movs	r0, #0
 594              	.LVL68:
 595 0012 FFF7FEFF 		bl	max31865_readRegisterN
 596              	.LVL69:
  71:..\max31865.c ****         t |= MAX31856_CONFIG_3WIRE;
 597              		.loc 1 71 0
 598 0016 012D     		cmp	r5, #1
 599 0018 06D1     		bne	.L38
  72:..\max31865.c ****     } else {
 600              		.loc 1 72 0
 601 001a 9DF80730 		ldrb	r3, [sp, #7]	@ zero_extendqisi2
 602 001e 43F01003 		orr	r3, r3, #16
 603 0022 8DF80730 		strb	r3, [sp, #7]
 604 0026 05E0     		b	.L39
 605              	.L38:
  75:..\max31865.c ****     }
 606              		.loc 1 75 0
 607 0028 9DF80730 		ldrb	r3, [sp, #7]	@ zero_extendqisi2
 608 002c 23F01003 		bic	r3, r3, #16
 609 0030 8DF80730 		strb	r3, [sp, #7]
 610              	.L39:
  77:..\max31865.c **** }
 611              		.loc 1 77 0
 612 0034 2246     		mov	r2, r4
 613 0036 9DF80710 		ldrb	r1, [sp, #7]	@ zero_extendqisi2
 614 003a 0020     		movs	r0, #0
 615 003c FFF7FEFF 		bl	max31865_writeRegister8
 616              	.LVL70:
  78:..\max31865.c **** 
 617              		.loc 1 78 0
 618 0040 03B0     		add	sp, sp, #12
 619              		.cfi_def_cfa_offset 12
 620              		@ sp needed
 621 0042 30BD     		pop	{r4, r5, pc}
 622              		.cfi_endproc
 623              	.LFE69:
 624              		.size	max31865_setWires, .-max31865_setWires
 625              		.section	.text.max31865_readRTD,"ax",%progbits
 626              		.align	2
 627              		.global	max31865_readRTD
 628              		.thumb
 629              		.thumb_func
 630              		.type	max31865_readRTD, %function
 631              	max31865_readRTD:
 632              	.LFB71:
 121:..\max31865.c ****     uint16_t rtd;
 633              		.loc 1 121 0
ARM GAS  C:\Users\scott\AppData\Local\Temp\cc62F3Ac.s 			page 17


 634              		.cfi_startproc
 635              		@ args = 0, pretend = 0, frame = 8
 636              		@ frame_needed = 0, uses_anonymous_args = 0
 637              	.LVL71:
 638 0000 30B5     		push	{r4, r5, lr}
 639              		.cfi_def_cfa_offset 12
 640              		.cfi_offset 4, -12
 641              		.cfi_offset 5, -8
 642              		.cfi_offset 14, -4
 643 0002 83B0     		sub	sp, sp, #12
 644              		.cfi_def_cfa_offset 24
 645 0004 0446     		mov	r4, r0
 124:..\max31865.c ****     max31865_enableBias(1, cs);
 646              		.loc 1 124 0
 647 0006 FFF7FEFF 		bl	max31865_clearFault
 648              	.LVL72:
 125:..\max31865.c ****     CyDelay(15);
 649              		.loc 1 125 0
 650 000a 2146     		mov	r1, r4
 651 000c 0120     		movs	r0, #1
 652 000e FFF7FEFF 		bl	max31865_enableBias
 653              	.LVL73:
 126:..\max31865.c ****     max31865_readRegisterN(MAX31856_CONFIG_REG, &t, 1, cs);
 654              		.loc 1 126 0
 655 0012 0F20     		movs	r0, #15
 656 0014 FFF7FEFF 		bl	CyDelay
 657              	.LVL74:
 127:..\max31865.c ****     t |= MAX31856_CONFIG_1SHOT;
 658              		.loc 1 127 0
 659 0018 2346     		mov	r3, r4
 660 001a 0122     		movs	r2, #1
 661 001c 0DF10701 		add	r1, sp, #7
 662 0020 0020     		movs	r0, #0
 663 0022 FFF7FEFF 		bl	max31865_readRegisterN
 664              	.LVL75:
 128:..\max31865.c ****     max31865_writeRegister8(MAX31856_CONFIG_REG, t, cs);
 665              		.loc 1 128 0
 666 0026 9DF80710 		ldrb	r1, [sp, #7]	@ zero_extendqisi2
 667 002a 41F02001 		orr	r1, r1, #32
 668 002e 8DF80710 		strb	r1, [sp, #7]
 129:..\max31865.c ****     CyDelay(70);
 669              		.loc 1 129 0
 670 0032 2246     		mov	r2, r4
 671 0034 0020     		movs	r0, #0
 672 0036 FFF7FEFF 		bl	max31865_writeRegister8
 673              	.LVL76:
 130:..\max31865.c **** 
 674              		.loc 1 130 0
 675 003a 4620     		movs	r0, #70
 676 003c FFF7FEFF 		bl	CyDelay
 677              	.LVL77:
 133:..\max31865.c ****     rtd = t <<8;
 678              		.loc 1 133 0
 679 0040 2346     		mov	r3, r4
 680 0042 0122     		movs	r2, #1
 681 0044 0DF10701 		add	r1, sp, #7
 682 0048 1046     		mov	r0, r2
ARM GAS  C:\Users\scott\AppData\Local\Temp\cc62F3Ac.s 			page 18


 683 004a FFF7FEFF 		bl	max31865_readRegisterN
 684              	.LVL78:
 134:..\max31865.c ****     max31865_readRegisterN(MAX31856_RTDLSB_REG, &t, 1, cs);
 685              		.loc 1 134 0
 686 004e 9DF80700 		ldrb	r0, [sp, #7]	@ zero_extendqisi2
 687 0052 0502     		lsls	r5, r0, #8
 688              	.LVL79:
 135:..\max31865.c ****     rtd |= t;
 689              		.loc 1 135 0
 690 0054 2346     		mov	r3, r4
 691 0056 0122     		movs	r2, #1
 692 0058 0DF10701 		add	r1, sp, #7
 693 005c 0220     		movs	r0, #2
 694 005e FFF7FEFF 		bl	max31865_readRegisterN
 695              	.LVL80:
 136:..\max31865.c **** 
 696              		.loc 1 136 0
 697 0062 9DF80700 		ldrb	r0, [sp, #7]	@ zero_extendqisi2
 698 0066 2843     		orrs	r0, r0, r5
 699              	.LVL81:
 142:..\max31865.c **** 
 700              		.loc 1 142 0
 701 0068 4008     		lsrs	r0, r0, #1
 702              	.LVL82:
 703 006a 03B0     		add	sp, sp, #12
 704              		.cfi_def_cfa_offset 12
 705              		@ sp needed
 706 006c 30BD     		pop	{r4, r5, pc}
 707              		.cfi_endproc
 708              	.LFE71:
 709              		.size	max31865_readRTD, .-max31865_readRTD
 710              		.global	__aeabi_ui2f
 711              		.global	__aeabi_fmul
 712              		.global	__aeabi_f2d
 713              		.global	__aeabi_ddiv
 714              		.global	__aeabi_d2f
 715              		.global	__aeabi_fadd
 716              		.global	__aeabi_fsub
 717              		.global	__aeabi_fdiv
 718              		.global	__aeabi_fcmpgt
 719              		.global	__aeabi_fcmpge
 720              		.global	__aeabi_dmul
 721              		.global	__aeabi_dsub
 722              		.global	__aeabi_dadd
 723              		.global	__aeabi_fcmplt
 724 006e 00BF     		.section	.text.max31865_temperature,"ax",%progbits
 725              		.align	2
 726              		.global	max31865_temperature
 727              		.thumb
 728              		.thumb_func
 729              		.type	max31865_temperature, %function
 730              	max31865_temperature:
 731              	.LFB70:
  80:..\max31865.c ****     // http://www.analog.com/media/en/technical-documentation/application-notes/AN709_0.pdf
 732              		.loc 1 80 0
 733              		.cfi_startproc
 734              		@ args = 0, pretend = 0, frame = 0
ARM GAS  C:\Users\scott\AppData\Local\Temp\cc62F3Ac.s 			page 19


 735              		@ frame_needed = 0, uses_anonymous_args = 0
 736              	.LVL83:
 737 0000 2DE9F041 		push	{r4, r5, r6, r7, r8, lr}
 738              		.cfi_def_cfa_offset 24
 739              		.cfi_offset 4, -24
 740              		.cfi_offset 5, -20
 741              		.cfi_offset 6, -16
 742              		.cfi_offset 7, -12
 743              		.cfi_offset 8, -8
 744              		.cfi_offset 14, -4
 745 0004 0646     		mov	r6, r0
 746 0006 0C46     		mov	r4, r1
  85:..\max31865.c ****     Rt /= 32768;
 747              		.loc 1 85 0
 748 0008 1046     		mov	r0, r2
 749              	.LVL84:
 750 000a FFF7FEFF 		bl	max31865_readRTD
 751              	.LVL85:
 752 000e FFF7FEFF 		bl	__aeabi_ui2f
 753              	.LVL86:
  86:..\max31865.c ****     Rt *= refResistor;
 754              		.loc 1 86 0
 755 0012 4FF06051 		mov	r1, #939524096
 756 0016 FFF7FEFF 		bl	__aeabi_fmul
 757              	.LVL87:
  87:..\max31865.c ****     
 758              		.loc 1 87 0
 759 001a 2146     		mov	r1, r4
 760 001c FFF7FEFF 		bl	__aeabi_fmul
 761              	.LVL88:
 762 0020 0546     		mov	r5, r0
 763              	.LVL89:
  91:..\max31865.c ****     Z4 = 2 * RTD_B;
 764              		.loc 1 91 0
 765 0022 3046     		mov	r0, r6
 766              	.LVL90:
 767 0024 FFF7FEFF 		bl	__aeabi_f2d
 768              	.LVL91:
 769 0028 0246     		mov	r2, r0
 770 002a 0B46     		mov	r3, r1
 771 002c 54A1     		adr	r1, .L52
 772 002e D1E90001 		ldrd	r0, [r1]
 773 0032 FFF7FEFF 		bl	__aeabi_ddiv
 774              	.LVL92:
 775 0036 FFF7FEFF 		bl	__aeabi_d2f
 776              	.LVL93:
  94:..\max31865.c ****     temp = (sqrtf(temp) + Z1) / Z4;
 777              		.loc 1 94 0
 778 003a 0146     		mov	r1, r0
 779 003c 2846     		mov	r0, r5
 780              	.LVL94:
 781 003e FFF7FEFF 		bl	__aeabi_fmul
 782              	.LVL95:
 783 0042 5D49     		ldr	r1, .L52+56
 784 0044 FFF7FEFF 		bl	__aeabi_fadd
 785              	.LVL96:
  95:..\max31865.c ****     if (temp > 120) return 0;  // should not have a temp over 120 degrees celsius
ARM GAS  C:\Users\scott\AppData\Local\Temp\cc62F3Ac.s 			page 20


 786              		.loc 1 95 0
 787 0048 FFF7FEFF 		bl	sqrtf
 788              	.LVL97:
 789 004c 5B49     		ldr	r1, .L52+60
 790 004e FFF7FEFF 		bl	__aeabi_fsub
 791              	.LVL98:
 792 0052 5B49     		ldr	r1, .L52+64
 793 0054 FFF7FEFF 		bl	__aeabi_fdiv
 794              	.LVL99:
 795 0058 0446     		mov	r4, r0
 796              	.LVL100:
  96:..\max31865.c ****     if (temp >= 0) return temp;
 797              		.loc 1 96 0
 798 005a 5A49     		ldr	r1, .L52+68
 799 005c FFF7FEFF 		bl	__aeabi_fcmpgt
 800              	.LVL101:
 801 0060 0028     		cmp	r0, #0
 802 0062 40F08380 		bne	.L46
  97:..\max31865.c **** 
 803              		.loc 1 97 0
 804 0066 0021     		movs	r1, #0
 805 0068 2046     		mov	r0, r4
 806 006a FFF7FEFF 		bl	__aeabi_fcmpge
 807              	.LVL102:
 808 006e 0028     		cmp	r0, #0
 809 0070 7FD1     		bne	.L47
 101:..\max31865.c ****     Rt *= 100;      // normalize to 100 ohm
 810              		.loc 1 101 0
 811 0072 3146     		mov	r1, r6
 812 0074 2846     		mov	r0, r5
 813 0076 FFF7FEFF 		bl	__aeabi_fdiv
 814              	.LVL103:
 102:..\max31865.c **** 
 815              		.loc 1 102 0
 816 007a 5349     		ldr	r1, .L52+72
 817 007c FFF7FEFF 		bl	__aeabi_fmul
 818              	.LVL104:
 819 0080 0446     		mov	r4, r0
 820              	.LVL105:
 107:..\max31865.c ****     rpoly *= Rt;  // square
 821              		.loc 1 107 0
 822 0082 FFF7FEFF 		bl	__aeabi_f2d
 823              	.LVL106:
 824 0086 40A3     		adr	r3, .L52+8
 825 0088 D3E90023 		ldrd	r2, [r3]
 826 008c FFF7FEFF 		bl	__aeabi_dmul
 827              	.LVL107:
 828 0090 3FA3     		adr	r3, .L52+16
 829 0092 D3E90023 		ldrd	r2, [r3]
 830 0096 FFF7FEFF 		bl	__aeabi_dsub
 831              	.LVL108:
 832 009a FFF7FEFF 		bl	__aeabi_d2f
 833              	.LVL109:
 834 009e 8046     		mov	r8, r0
 835              	.LVL110:
 108:..\max31865.c ****     temp += 2.5859e-3 * rpoly;
 836              		.loc 1 108 0
ARM GAS  C:\Users\scott\AppData\Local\Temp\cc62F3Ac.s 			page 21


 837 00a0 2146     		mov	r1, r4
 838 00a2 2046     		mov	r0, r4
 839              	.LVL111:
 840 00a4 FFF7FEFF 		bl	__aeabi_fmul
 841              	.LVL112:
 842 00a8 0546     		mov	r5, r0
 843              	.LVL113:
 109:..\max31865.c ****     rpoly *= Rt;  // ^3
 844              		.loc 1 109 0
 845 00aa FFF7FEFF 		bl	__aeabi_f2d
 846              	.LVL114:
 847 00ae 3AA3     		adr	r3, .L52+24
 848 00b0 D3E90023 		ldrd	r2, [r3]
 849 00b4 FFF7FEFF 		bl	__aeabi_dmul
 850              	.LVL115:
 851 00b8 0646     		mov	r6, r0
 852              	.LVL116:
 853 00ba 0F46     		mov	r7, r1
 854 00bc 4046     		mov	r0, r8
 855 00be FFF7FEFF 		bl	__aeabi_f2d
 856              	.LVL117:
 857 00c2 3246     		mov	r2, r6
 858 00c4 3B46     		mov	r3, r7
 859 00c6 FFF7FEFF 		bl	__aeabi_dadd
 860              	.LVL118:
 861 00ca FFF7FEFF 		bl	__aeabi_d2f
 862              	.LVL119:
 863 00ce 8046     		mov	r8, r0
 864              	.LVL120:
 110:..\max31865.c ****     temp -= 4.8260e-6 * rpoly;
 865              		.loc 1 110 0
 866 00d0 2946     		mov	r1, r5
 867 00d2 2046     		mov	r0, r4
 868              	.LVL121:
 869 00d4 FFF7FEFF 		bl	__aeabi_fmul
 870              	.LVL122:
 871 00d8 0546     		mov	r5, r0
 872              	.LVL123:
 111:..\max31865.c ****     rpoly *= Rt;  // ^4
 873              		.loc 1 111 0
 874 00da FFF7FEFF 		bl	__aeabi_f2d
 875              	.LVL124:
 876 00de 30A3     		adr	r3, .L52+32
 877 00e0 D3E90023 		ldrd	r2, [r3]
 878 00e4 FFF7FEFF 		bl	__aeabi_dmul
 879              	.LVL125:
 880 00e8 0646     		mov	r6, r0
 881 00ea 0F46     		mov	r7, r1
 882 00ec 4046     		mov	r0, r8
 883 00ee FFF7FEFF 		bl	__aeabi_f2d
 884              	.LVL126:
 885 00f2 3246     		mov	r2, r6
 886 00f4 3B46     		mov	r3, r7
 887 00f6 FFF7FEFF 		bl	__aeabi_dsub
 888              	.LVL127:
 889 00fa FFF7FEFF 		bl	__aeabi_d2f
 890              	.LVL128:
ARM GAS  C:\Users\scott\AppData\Local\Temp\cc62F3Ac.s 			page 22


 891 00fe 8046     		mov	r8, r0
 892              	.LVL129:
 112:..\max31865.c ****     temp -= 2.8183e-8 * rpoly;
 893              		.loc 1 112 0
 894 0100 2946     		mov	r1, r5
 895 0102 2046     		mov	r0, r4
 896              	.LVL130:
 897 0104 FFF7FEFF 		bl	__aeabi_fmul
 898              	.LVL131:
 899 0108 0546     		mov	r5, r0
 900              	.LVL132:
 113:..\max31865.c ****     rpoly *= Rt;  // ^5
 901              		.loc 1 113 0
 902 010a FFF7FEFF 		bl	__aeabi_f2d
 903              	.LVL133:
 904 010e 26A3     		adr	r3, .L52+40
 905 0110 D3E90023 		ldrd	r2, [r3]
 906 0114 FFF7FEFF 		bl	__aeabi_dmul
 907              	.LVL134:
 908 0118 0646     		mov	r6, r0
 909 011a 0F46     		mov	r7, r1
 910 011c 4046     		mov	r0, r8
 911 011e FFF7FEFF 		bl	__aeabi_f2d
 912              	.LVL135:
 913 0122 3246     		mov	r2, r6
 914 0124 3B46     		mov	r3, r7
 915 0126 FFF7FEFF 		bl	__aeabi_dsub
 916              	.LVL136:
 917 012a FFF7FEFF 		bl	__aeabi_d2f
 918              	.LVL137:
 919 012e 0646     		mov	r6, r0
 920              	.LVL138:
 114:..\max31865.c ****     temp += 1.5243e-10 * rpoly;
 921              		.loc 1 114 0
 922 0130 2946     		mov	r1, r5
 923 0132 2046     		mov	r0, r4
 924              	.LVL139:
 925 0134 FFF7FEFF 		bl	__aeabi_fmul
 926              	.LVL140:
 115:..\max31865.c ****     if (temp < -20)
 927              		.loc 1 115 0
 928 0138 FFF7FEFF 		bl	__aeabi_f2d
 929              	.LVL141:
 930 013c 1CA3     		adr	r3, .L52+48
 931 013e D3E90023 		ldrd	r2, [r3]
 932 0142 FFF7FEFF 		bl	__aeabi_dmul
 933              	.LVL142:
 934 0146 0446     		mov	r4, r0
 935              	.LVL143:
 936 0148 0D46     		mov	r5, r1
 937 014a 3046     		mov	r0, r6
 938 014c FFF7FEFF 		bl	__aeabi_f2d
 939              	.LVL144:
 940 0150 2246     		mov	r2, r4
 941 0152 2B46     		mov	r3, r5
 942 0154 FFF7FEFF 		bl	__aeabi_dadd
 943              	.LVL145:
ARM GAS  C:\Users\scott\AppData\Local\Temp\cc62F3Ac.s 			page 23


 944 0158 FFF7FEFF 		bl	__aeabi_d2f
 945              	.LVL146:
 946 015c 0446     		mov	r4, r0
 947              	.LVL147:
 116:..\max31865.c ****         return -20;
 948              		.loc 1 116 0
 949 015e 1B49     		ldr	r1, .L52+76
 950 0160 FFF7FEFF 		bl	__aeabi_fcmplt
 951              	.LVL148:
 952 0164 40B1     		cbz	r0, .L50
 117:..\max31865.c ****     return temp;
 953              		.loc 1 117 0
 954 0166 1948     		ldr	r0, .L52+76
 955 0168 BDE8F081 		pop	{r4, r5, r6, r7, r8, pc}
 956              	.LVL149:
 957              	.L46:
  96:..\max31865.c ****     if (temp >= 0) return temp;
 958              		.loc 1 96 0
 959 016c 0020     		movs	r0, #0
 960 016e BDE8F081 		pop	{r4, r5, r6, r7, r8, pc}
 961              	.LVL150:
 962              	.L47:
  97:..\max31865.c **** 
 963              		.loc 1 97 0
 964 0172 2046     		mov	r0, r4
 965 0174 BDE8F081 		pop	{r4, r5, r6, r7, r8, pc}
 966              	.LVL151:
 967              	.L50:
 118:..\max31865.c **** }
 968              		.loc 1 118 0
 969 0178 2046     		mov	r0, r4
 119:..\max31865.c **** 
 970              		.loc 1 119 0
 971 017a BDE8F081 		pop	{r4, r5, r6, r7, r8, pc}
 972              	.LVL152:
 973              	.L53:
 974 017e 00BF     		.align	3
 975              	.L52:
 976 0180 88CE19EE 		.word	-300298616
 977 0184 AF60C3BE 		.word	-1094491985
 978 0188 F163CC5D 		.word	1573676017
 979 018c 4BC80140 		.word	1073858635
 980 0190 000000E0 		.word	-536870912
 981 0194 A3406E40 		.word	1080967331
 982 0198 BB82C87D 		.word	2110292667
 983 019c 062F653F 		.word	1063595782
 984 01a0 93C266C7 		.word	-949566829
 985 01a4 E03DD43E 		.word	1054096864
 986 01a8 CE563151 		.word	1362187982
 987 01ac E2425E3E 		.word	1046364898
 988 01b0 3EFAE461 		.word	1642396222
 989 01b4 27F3E43D 		.word	1038414631
 990 01b8 17839337 		.word	932414231
 991 01bc 3211803B 		.word	998248754
 992 01c0 7F059BB5 		.word	-1248131713
 993 01c4 0000F042 		.word	1123024896
 994 01c8 0000C842 		.word	1120403456
ARM GAS  C:\Users\scott\AppData\Local\Temp\cc62F3Ac.s 			page 24


 995 01cc 0000A0C1 		.word	-1046478848
 996              		.cfi_endproc
 997              	.LFE70:
 998              		.size	max31865_temperature, .-max31865_temperature
 999              		.text
 1000              	.Letext0:
 1001              		.file 2 "c:\\program files (x86)\\cypress\\psoc creator\\4.2\\psoc creator\\import\\gnu\\arm\\5.4.
 1002              		.file 3 "c:\\program files (x86)\\cypress\\psoc creator\\4.2\\psoc creator\\import\\gnu\\arm\\5.4.
 1003              		.file 4 "Generated_Source\\PSoC5/cytypes.h"
 1004              		.file 5 "..\\max31865.h"
 1005              		.file 6 "Generated_Source\\PSoC5/SPIM.h"
 1006              		.file 7 "Generated_Source\\PSoC5/CyLib.h"
 1007              		.file 8 "Generated_Source\\PSoC5/MAX31865_CS.h"
 1008              		.file 9 "c:\\program files (x86)\\cypress\\psoc creator\\4.2\\psoc creator\\import\\gnu\\arm\\5.4.
 1009              		.file 10 "Generated_Source\\PSoC5/core_cm3.h"