ARM GAS  C:\Users\scott\AppData\Local\Temp\cc9ws4ON.s 			page 1


   1              		.syntax unified
   2              		.cpu cortex-m3
   3              		.fpu softvfp
   4              		.eabi_attribute 20, 1
   5              		.eabi_attribute 21, 1
   6              		.eabi_attribute 23, 3
   7              		.eabi_attribute 24, 1
   8              		.eabi_attribute 25, 1
   9              		.eabi_attribute 26, 1
  10              		.eabi_attribute 30, 1
  11              		.eabi_attribute 34, 1
  12              		.eabi_attribute 18, 4
  13              		.thumb
  14              		.syntax unified
  15              		.file	"Rx_Timer.c"
  16              		.text
  17              	.Ltext0:
  18              		.cfi_sections	.debug_frame
  19              		.section	.text.Rx_Timer_Enable,"ax",%progbits
  20              		.align	2
  21              		.global	Rx_Timer_Enable
  22              		.thumb
  23              		.thumb_func
  24              		.type	Rx_Timer_Enable, %function
  25              	Rx_Timer_Enable:
  26              	.LFB1:
  27              		.file 1 "Generated_Source\\PSoC5\\Rx_Timer.c"
   1:Generated_Source\PSoC5/Rx_Timer.c **** /*******************************************************************************
   2:Generated_Source\PSoC5/Rx_Timer.c **** * File Name: Rx_Timer.c
   3:Generated_Source\PSoC5/Rx_Timer.c **** * Version 2.80
   4:Generated_Source\PSoC5/Rx_Timer.c **** *
   5:Generated_Source\PSoC5/Rx_Timer.c **** * Description:
   6:Generated_Source\PSoC5/Rx_Timer.c **** *  The Timer component consists of a 8, 16, 24 or 32-bit timer with
   7:Generated_Source\PSoC5/Rx_Timer.c **** *  a selectable period between 2 and 2^Width - 1.  The timer may free run
   8:Generated_Source\PSoC5/Rx_Timer.c **** *  or be used as a capture timer as well.  The capture can be initiated
   9:Generated_Source\PSoC5/Rx_Timer.c **** *  by a positive or negative edge signal as well as via software.
  10:Generated_Source\PSoC5/Rx_Timer.c **** *  A trigger input can be programmed to enable the timer on rising edge
  11:Generated_Source\PSoC5/Rx_Timer.c **** *  falling edge, either edge or continous run.
  12:Generated_Source\PSoC5/Rx_Timer.c **** *  Interrupts may be generated due to a terminal count condition
  13:Generated_Source\PSoC5/Rx_Timer.c **** *  or a capture event.
  14:Generated_Source\PSoC5/Rx_Timer.c **** *
  15:Generated_Source\PSoC5/Rx_Timer.c **** * Note:
  16:Generated_Source\PSoC5/Rx_Timer.c **** *
  17:Generated_Source\PSoC5/Rx_Timer.c **** ********************************************************************************
  18:Generated_Source\PSoC5/Rx_Timer.c **** * Copyright 2008-2017, Cypress Semiconductor Corporation.  All rights reserved.
  19:Generated_Source\PSoC5/Rx_Timer.c **** * You may use this file only in accordance with the license, terms, conditions,
  20:Generated_Source\PSoC5/Rx_Timer.c **** * disclaimers, and limitations in the end user license agreement accompanying
  21:Generated_Source\PSoC5/Rx_Timer.c **** * the software package with which this file was provided.
  22:Generated_Source\PSoC5/Rx_Timer.c **** ********************************************************************************/
  23:Generated_Source\PSoC5/Rx_Timer.c **** 
  24:Generated_Source\PSoC5/Rx_Timer.c **** #include "Rx_Timer.h"
  25:Generated_Source\PSoC5/Rx_Timer.c **** 
  26:Generated_Source\PSoC5/Rx_Timer.c **** uint8 Rx_Timer_initVar = 0u;
  27:Generated_Source\PSoC5/Rx_Timer.c **** 
  28:Generated_Source\PSoC5/Rx_Timer.c **** 
  29:Generated_Source\PSoC5/Rx_Timer.c **** /*******************************************************************************
  30:Generated_Source\PSoC5/Rx_Timer.c **** * Function Name: Rx_Timer_Init
ARM GAS  C:\Users\scott\AppData\Local\Temp\cc9ws4ON.s 			page 2


  31:Generated_Source\PSoC5/Rx_Timer.c **** ********************************************************************************
  32:Generated_Source\PSoC5/Rx_Timer.c **** *
  33:Generated_Source\PSoC5/Rx_Timer.c **** * Summary:
  34:Generated_Source\PSoC5/Rx_Timer.c **** *  Initialize to the schematic state
  35:Generated_Source\PSoC5/Rx_Timer.c **** *
  36:Generated_Source\PSoC5/Rx_Timer.c **** * Parameters:
  37:Generated_Source\PSoC5/Rx_Timer.c **** *  void
  38:Generated_Source\PSoC5/Rx_Timer.c **** *
  39:Generated_Source\PSoC5/Rx_Timer.c **** * Return:
  40:Generated_Source\PSoC5/Rx_Timer.c **** *  void
  41:Generated_Source\PSoC5/Rx_Timer.c **** *
  42:Generated_Source\PSoC5/Rx_Timer.c **** *******************************************************************************/
  43:Generated_Source\PSoC5/Rx_Timer.c **** void Rx_Timer_Init(void) 
  44:Generated_Source\PSoC5/Rx_Timer.c **** {
  45:Generated_Source\PSoC5/Rx_Timer.c ****     #if(!Rx_Timer_UsingFixedFunction)
  46:Generated_Source\PSoC5/Rx_Timer.c ****             /* Interrupt State Backup for Critical Region*/
  47:Generated_Source\PSoC5/Rx_Timer.c ****             uint8 Rx_Timer_interruptState;
  48:Generated_Source\PSoC5/Rx_Timer.c ****     #endif /* Interrupt state back up for Fixed Function only */
  49:Generated_Source\PSoC5/Rx_Timer.c **** 
  50:Generated_Source\PSoC5/Rx_Timer.c ****     #if (Rx_Timer_UsingFixedFunction)
  51:Generated_Source\PSoC5/Rx_Timer.c ****         /* Clear all bits but the enable bit (if it's already set) for Timer operation */
  52:Generated_Source\PSoC5/Rx_Timer.c ****         Rx_Timer_CONTROL &= Rx_Timer_CTRL_ENABLE;
  53:Generated_Source\PSoC5/Rx_Timer.c **** 
  54:Generated_Source\PSoC5/Rx_Timer.c ****         /* Clear the mode bits for continuous run mode */
  55:Generated_Source\PSoC5/Rx_Timer.c ****         #if (CY_PSOC5A)
  56:Generated_Source\PSoC5/Rx_Timer.c ****             Rx_Timer_CONTROL2 &= ((uint8)(~Rx_Timer_CTRL_MODE_MASK));
  57:Generated_Source\PSoC5/Rx_Timer.c ****         #endif /* Clear bits in CONTROL2 only in PSOC5A */
  58:Generated_Source\PSoC5/Rx_Timer.c **** 
  59:Generated_Source\PSoC5/Rx_Timer.c ****         #if (CY_PSOC3 || CY_PSOC5LP)
  60:Generated_Source\PSoC5/Rx_Timer.c ****             Rx_Timer_CONTROL3 &= ((uint8)(~Rx_Timer_CTRL_MODE_MASK));
  61:Generated_Source\PSoC5/Rx_Timer.c ****         #endif /* CONTROL3 register exists only in PSoC3 OR PSoC5LP */
  62:Generated_Source\PSoC5/Rx_Timer.c **** 
  63:Generated_Source\PSoC5/Rx_Timer.c ****         /* Check if One Shot mode is enabled i.e. RunMode !=0*/
  64:Generated_Source\PSoC5/Rx_Timer.c ****         #if (Rx_Timer_RunModeUsed != 0x0u)
  65:Generated_Source\PSoC5/Rx_Timer.c ****             /* Set 3rd bit of Control register to enable one shot mode */
  66:Generated_Source\PSoC5/Rx_Timer.c ****             Rx_Timer_CONTROL |= 0x04u;
  67:Generated_Source\PSoC5/Rx_Timer.c ****         #endif /* One Shot enabled only when RunModeUsed is not Continuous*/
  68:Generated_Source\PSoC5/Rx_Timer.c **** 
  69:Generated_Source\PSoC5/Rx_Timer.c ****         #if (Rx_Timer_RunModeUsed == 2)
  70:Generated_Source\PSoC5/Rx_Timer.c ****             #if (CY_PSOC5A)
  71:Generated_Source\PSoC5/Rx_Timer.c ****                 /* Set last 2 bits of control2 register if one shot(halt on
  72:Generated_Source\PSoC5/Rx_Timer.c ****                 interrupt) is enabled*/
  73:Generated_Source\PSoC5/Rx_Timer.c ****                 Rx_Timer_CONTROL2 |= 0x03u;
  74:Generated_Source\PSoC5/Rx_Timer.c ****             #endif /* Set One-Shot Halt on Interrupt bit in CONTROL2 for PSoC5A */
  75:Generated_Source\PSoC5/Rx_Timer.c **** 
  76:Generated_Source\PSoC5/Rx_Timer.c ****             #if (CY_PSOC3 || CY_PSOC5LP)
  77:Generated_Source\PSoC5/Rx_Timer.c ****                 /* Set last 2 bits of control3 register if one shot(halt on
  78:Generated_Source\PSoC5/Rx_Timer.c ****                 interrupt) is enabled*/
  79:Generated_Source\PSoC5/Rx_Timer.c ****                 Rx_Timer_CONTROL3 |= 0x03u;
  80:Generated_Source\PSoC5/Rx_Timer.c ****             #endif /* Set One-Shot Halt on Interrupt bit in CONTROL3 for PSoC3 or PSoC5LP */
  81:Generated_Source\PSoC5/Rx_Timer.c **** 
  82:Generated_Source\PSoC5/Rx_Timer.c ****         #endif /* Remove section if One Shot Halt on Interrupt is not enabled */
  83:Generated_Source\PSoC5/Rx_Timer.c **** 
  84:Generated_Source\PSoC5/Rx_Timer.c ****         #if (Rx_Timer_UsingHWEnable != 0)
  85:Generated_Source\PSoC5/Rx_Timer.c ****             #if (CY_PSOC5A)
  86:Generated_Source\PSoC5/Rx_Timer.c ****                 /* Set the default Run Mode of the Timer to Continuous */
  87:Generated_Source\PSoC5/Rx_Timer.c ****                 Rx_Timer_CONTROL2 |= Rx_Timer_CTRL_MODE_PULSEWIDTH;
ARM GAS  C:\Users\scott\AppData\Local\Temp\cc9ws4ON.s 			page 3


  88:Generated_Source\PSoC5/Rx_Timer.c ****             #endif /* Set Continuous Run Mode in CONTROL2 for PSoC5A */
  89:Generated_Source\PSoC5/Rx_Timer.c **** 
  90:Generated_Source\PSoC5/Rx_Timer.c ****             #if (CY_PSOC3 || CY_PSOC5LP)
  91:Generated_Source\PSoC5/Rx_Timer.c ****                 /* Clear and Set ROD and COD bits of CFG2 register */
  92:Generated_Source\PSoC5/Rx_Timer.c ****                 Rx_Timer_CONTROL3 &= ((uint8)(~Rx_Timer_CTRL_RCOD_MASK));
  93:Generated_Source\PSoC5/Rx_Timer.c ****                 Rx_Timer_CONTROL3 |= Rx_Timer_CTRL_RCOD;
  94:Generated_Source\PSoC5/Rx_Timer.c **** 
  95:Generated_Source\PSoC5/Rx_Timer.c ****                 /* Clear and Enable the HW enable bit in CFG2 register */
  96:Generated_Source\PSoC5/Rx_Timer.c ****                 Rx_Timer_CONTROL3 &= ((uint8)(~Rx_Timer_CTRL_ENBL_MASK));
  97:Generated_Source\PSoC5/Rx_Timer.c ****                 Rx_Timer_CONTROL3 |= Rx_Timer_CTRL_ENBL;
  98:Generated_Source\PSoC5/Rx_Timer.c **** 
  99:Generated_Source\PSoC5/Rx_Timer.c ****                 /* Set the default Run Mode of the Timer to Continuous */
 100:Generated_Source\PSoC5/Rx_Timer.c ****                 Rx_Timer_CONTROL3 |= Rx_Timer_CTRL_MODE_CONTINUOUS;
 101:Generated_Source\PSoC5/Rx_Timer.c ****             #endif /* Set Continuous Run Mode in CONTROL3 for PSoC3ES3 or PSoC5A */
 102:Generated_Source\PSoC5/Rx_Timer.c **** 
 103:Generated_Source\PSoC5/Rx_Timer.c ****         #endif /* Configure Run Mode with hardware enable */
 104:Generated_Source\PSoC5/Rx_Timer.c **** 
 105:Generated_Source\PSoC5/Rx_Timer.c ****         /* Clear and Set SYNCTC and SYNCCMP bits of RT1 register */
 106:Generated_Source\PSoC5/Rx_Timer.c ****         Rx_Timer_RT1 &= ((uint8)(~Rx_Timer_RT1_MASK));
 107:Generated_Source\PSoC5/Rx_Timer.c ****         Rx_Timer_RT1 |= Rx_Timer_SYNC;
 108:Generated_Source\PSoC5/Rx_Timer.c **** 
 109:Generated_Source\PSoC5/Rx_Timer.c ****         /*Enable DSI Sync all all inputs of the Timer*/
 110:Generated_Source\PSoC5/Rx_Timer.c ****         Rx_Timer_RT1 &= ((uint8)(~Rx_Timer_SYNCDSI_MASK));
 111:Generated_Source\PSoC5/Rx_Timer.c ****         Rx_Timer_RT1 |= Rx_Timer_SYNCDSI_EN;
 112:Generated_Source\PSoC5/Rx_Timer.c **** 
 113:Generated_Source\PSoC5/Rx_Timer.c ****         /* Set the IRQ to use the status register interrupts */
 114:Generated_Source\PSoC5/Rx_Timer.c ****         Rx_Timer_CONTROL2 |= Rx_Timer_CTRL2_IRQ_SEL;
 115:Generated_Source\PSoC5/Rx_Timer.c ****     #endif /* Configuring registers of fixed function implementation */
 116:Generated_Source\PSoC5/Rx_Timer.c **** 
 117:Generated_Source\PSoC5/Rx_Timer.c ****     /* Set Initial values from Configuration */
 118:Generated_Source\PSoC5/Rx_Timer.c ****     Rx_Timer_WritePeriod(Rx_Timer_INIT_PERIOD);
 119:Generated_Source\PSoC5/Rx_Timer.c ****     Rx_Timer_WriteCounter(Rx_Timer_INIT_PERIOD);
 120:Generated_Source\PSoC5/Rx_Timer.c **** 
 121:Generated_Source\PSoC5/Rx_Timer.c ****     #if (Rx_Timer_UsingHWCaptureCounter)/* Capture counter is enabled */
 122:Generated_Source\PSoC5/Rx_Timer.c ****         Rx_Timer_CAPTURE_COUNT_CTRL |= Rx_Timer_CNTR_ENABLE;
 123:Generated_Source\PSoC5/Rx_Timer.c ****         Rx_Timer_SetCaptureCount(Rx_Timer_INIT_CAPTURE_COUNT);
 124:Generated_Source\PSoC5/Rx_Timer.c ****     #endif /* Configure capture counter value */
 125:Generated_Source\PSoC5/Rx_Timer.c **** 
 126:Generated_Source\PSoC5/Rx_Timer.c ****     #if (!Rx_Timer_UsingFixedFunction)
 127:Generated_Source\PSoC5/Rx_Timer.c ****         #if (Rx_Timer_SoftwareCaptureMode)
 128:Generated_Source\PSoC5/Rx_Timer.c ****             Rx_Timer_SetCaptureMode(Rx_Timer_INIT_CAPTURE_MODE);
 129:Generated_Source\PSoC5/Rx_Timer.c ****         #endif /* Set Capture Mode for UDB implementation if capture mode is software controlled */
 130:Generated_Source\PSoC5/Rx_Timer.c **** 
 131:Generated_Source\PSoC5/Rx_Timer.c ****         #if (Rx_Timer_SoftwareTriggerMode)
 132:Generated_Source\PSoC5/Rx_Timer.c ****             #if (!Rx_Timer_UDB_CONTROL_REG_REMOVED)
 133:Generated_Source\PSoC5/Rx_Timer.c ****                 if (0u == (Rx_Timer_CONTROL & Rx_Timer__B_TIMER__TM_SOFTWARE))
 134:Generated_Source\PSoC5/Rx_Timer.c ****                 {
 135:Generated_Source\PSoC5/Rx_Timer.c ****                     Rx_Timer_SetTriggerMode(Rx_Timer_INIT_TRIGGER_MODE);
 136:Generated_Source\PSoC5/Rx_Timer.c ****                 }
 137:Generated_Source\PSoC5/Rx_Timer.c ****             #endif /* (!Rx_Timer_UDB_CONTROL_REG_REMOVED) */
 138:Generated_Source\PSoC5/Rx_Timer.c ****         #endif /* Set trigger mode for UDB Implementation if trigger mode is software controlled */
 139:Generated_Source\PSoC5/Rx_Timer.c **** 
 140:Generated_Source\PSoC5/Rx_Timer.c ****         /* CyEnterCriticalRegion and CyExitCriticalRegion are used to mark following region critica
 141:Generated_Source\PSoC5/Rx_Timer.c ****         /* Enter Critical Region*/
 142:Generated_Source\PSoC5/Rx_Timer.c ****         Rx_Timer_interruptState = CyEnterCriticalSection();
 143:Generated_Source\PSoC5/Rx_Timer.c **** 
 144:Generated_Source\PSoC5/Rx_Timer.c ****         /* Use the interrupt output of the status register for IRQ output */
ARM GAS  C:\Users\scott\AppData\Local\Temp\cc9ws4ON.s 			page 4


 145:Generated_Source\PSoC5/Rx_Timer.c ****         Rx_Timer_STATUS_AUX_CTRL |= Rx_Timer_STATUS_ACTL_INT_EN_MASK;
 146:Generated_Source\PSoC5/Rx_Timer.c **** 
 147:Generated_Source\PSoC5/Rx_Timer.c ****         /* Exit Critical Region*/
 148:Generated_Source\PSoC5/Rx_Timer.c ****         CyExitCriticalSection(Rx_Timer_interruptState);
 149:Generated_Source\PSoC5/Rx_Timer.c **** 
 150:Generated_Source\PSoC5/Rx_Timer.c ****         #if (Rx_Timer_EnableTriggerMode)
 151:Generated_Source\PSoC5/Rx_Timer.c ****             Rx_Timer_EnableTrigger();
 152:Generated_Source\PSoC5/Rx_Timer.c ****         #endif /* Set Trigger enable bit for UDB implementation in the control register*/
 153:Generated_Source\PSoC5/Rx_Timer.c **** 		
 154:Generated_Source\PSoC5/Rx_Timer.c **** 		
 155:Generated_Source\PSoC5/Rx_Timer.c ****         #if (Rx_Timer_InterruptOnCaptureCount && !Rx_Timer_UDB_CONTROL_REG_REMOVED)
 156:Generated_Source\PSoC5/Rx_Timer.c ****             Rx_Timer_SetInterruptCount(Rx_Timer_INIT_INT_CAPTURE_COUNT);
 157:Generated_Source\PSoC5/Rx_Timer.c ****         #endif /* Set interrupt count in UDB implementation if interrupt count feature is checked.*
 158:Generated_Source\PSoC5/Rx_Timer.c **** 
 159:Generated_Source\PSoC5/Rx_Timer.c ****         Rx_Timer_ClearFIFO();
 160:Generated_Source\PSoC5/Rx_Timer.c ****     #endif /* Configure additional features of UDB implementation */
 161:Generated_Source\PSoC5/Rx_Timer.c **** 
 162:Generated_Source\PSoC5/Rx_Timer.c ****     Rx_Timer_SetInterruptMode(Rx_Timer_INIT_INTERRUPT_MODE);
 163:Generated_Source\PSoC5/Rx_Timer.c **** }
 164:Generated_Source\PSoC5/Rx_Timer.c **** 
 165:Generated_Source\PSoC5/Rx_Timer.c **** 
 166:Generated_Source\PSoC5/Rx_Timer.c **** /*******************************************************************************
 167:Generated_Source\PSoC5/Rx_Timer.c **** * Function Name: Rx_Timer_Enable
 168:Generated_Source\PSoC5/Rx_Timer.c **** ********************************************************************************
 169:Generated_Source\PSoC5/Rx_Timer.c **** *
 170:Generated_Source\PSoC5/Rx_Timer.c **** * Summary:
 171:Generated_Source\PSoC5/Rx_Timer.c **** *  Enable the Timer
 172:Generated_Source\PSoC5/Rx_Timer.c **** *
 173:Generated_Source\PSoC5/Rx_Timer.c **** * Parameters:
 174:Generated_Source\PSoC5/Rx_Timer.c **** *  void
 175:Generated_Source\PSoC5/Rx_Timer.c **** *
 176:Generated_Source\PSoC5/Rx_Timer.c **** * Return:
 177:Generated_Source\PSoC5/Rx_Timer.c **** *  void
 178:Generated_Source\PSoC5/Rx_Timer.c **** *
 179:Generated_Source\PSoC5/Rx_Timer.c **** *******************************************************************************/
 180:Generated_Source\PSoC5/Rx_Timer.c **** void Rx_Timer_Enable(void) 
 181:Generated_Source\PSoC5/Rx_Timer.c **** {
  28              		.loc 1 181 0
  29              		.cfi_startproc
  30              		@ args = 0, pretend = 0, frame = 0
  31              		@ frame_needed = 0, uses_anonymous_args = 0
  32              		@ link register save eliminated.
 182:Generated_Source\PSoC5/Rx_Timer.c ****     /* Globally Enable the Fixed Function Block chosen */
 183:Generated_Source\PSoC5/Rx_Timer.c ****     #if (Rx_Timer_UsingFixedFunction)
 184:Generated_Source\PSoC5/Rx_Timer.c ****         Rx_Timer_GLOBAL_ENABLE |= Rx_Timer_BLOCK_EN_MASK;
 185:Generated_Source\PSoC5/Rx_Timer.c ****         Rx_Timer_GLOBAL_STBY_ENABLE |= Rx_Timer_BLOCK_STBY_EN_MASK;
 186:Generated_Source\PSoC5/Rx_Timer.c ****     #endif /* Set Enable bit for enabling Fixed function timer*/
 187:Generated_Source\PSoC5/Rx_Timer.c **** 
 188:Generated_Source\PSoC5/Rx_Timer.c ****     /* Remove assignment if control register is removed */
 189:Generated_Source\PSoC5/Rx_Timer.c ****     #if (!Rx_Timer_UDB_CONTROL_REG_REMOVED || Rx_Timer_UsingFixedFunction)
 190:Generated_Source\PSoC5/Rx_Timer.c ****         Rx_Timer_CONTROL |= Rx_Timer_CTRL_ENABLE;
  33              		.loc 1 190 0
  34 0000 024A     		ldr	r2, .L2
  35 0002 1378     		ldrb	r3, [r2]	@ zero_extendqisi2
  36 0004 43F08003 		orr	r3, r3, #128
  37 0008 1370     		strb	r3, [r2]
  38 000a 7047     		bx	lr
ARM GAS  C:\Users\scott\AppData\Local\Temp\cc9ws4ON.s 			page 5


  39              	.L3:
  40              		.align	2
  41              	.L2:
  42 000c 7A640040 		.word	1073767546
  43              		.cfi_endproc
  44              	.LFE1:
  45              		.size	Rx_Timer_Enable, .-Rx_Timer_Enable
  46              		.section	.text.Rx_Timer_Stop,"ax",%progbits
  47              		.align	2
  48              		.global	Rx_Timer_Stop
  49              		.thumb
  50              		.thumb_func
  51              		.type	Rx_Timer_Stop, %function
  52              	Rx_Timer_Stop:
  53              	.LFB3:
 191:Generated_Source\PSoC5/Rx_Timer.c ****     #endif /* Remove assignment if control register is removed */
 192:Generated_Source\PSoC5/Rx_Timer.c **** }
 193:Generated_Source\PSoC5/Rx_Timer.c **** 
 194:Generated_Source\PSoC5/Rx_Timer.c **** 
 195:Generated_Source\PSoC5/Rx_Timer.c **** /*******************************************************************************
 196:Generated_Source\PSoC5/Rx_Timer.c **** * Function Name: Rx_Timer_Start
 197:Generated_Source\PSoC5/Rx_Timer.c **** ********************************************************************************
 198:Generated_Source\PSoC5/Rx_Timer.c **** *
 199:Generated_Source\PSoC5/Rx_Timer.c **** * Summary:
 200:Generated_Source\PSoC5/Rx_Timer.c **** *  The start function initializes the timer with the default values, the
 201:Generated_Source\PSoC5/Rx_Timer.c **** *  enables the timerto begin counting.  It does not enable interrupts,
 202:Generated_Source\PSoC5/Rx_Timer.c **** *  the EnableInt command should be called if interrupt generation is required.
 203:Generated_Source\PSoC5/Rx_Timer.c **** *
 204:Generated_Source\PSoC5/Rx_Timer.c **** * Parameters:
 205:Generated_Source\PSoC5/Rx_Timer.c **** *  void
 206:Generated_Source\PSoC5/Rx_Timer.c **** *
 207:Generated_Source\PSoC5/Rx_Timer.c **** * Return:
 208:Generated_Source\PSoC5/Rx_Timer.c **** *  void
 209:Generated_Source\PSoC5/Rx_Timer.c **** *
 210:Generated_Source\PSoC5/Rx_Timer.c **** * Global variables:
 211:Generated_Source\PSoC5/Rx_Timer.c **** *  Rx_Timer_initVar: Is modified when this function is called for the
 212:Generated_Source\PSoC5/Rx_Timer.c **** *   first time. Is used to ensure that initialization happens only once.
 213:Generated_Source\PSoC5/Rx_Timer.c **** *
 214:Generated_Source\PSoC5/Rx_Timer.c **** *******************************************************************************/
 215:Generated_Source\PSoC5/Rx_Timer.c **** void Rx_Timer_Start(void) 
 216:Generated_Source\PSoC5/Rx_Timer.c **** {
 217:Generated_Source\PSoC5/Rx_Timer.c ****     if(Rx_Timer_initVar == 0u)
 218:Generated_Source\PSoC5/Rx_Timer.c ****     {
 219:Generated_Source\PSoC5/Rx_Timer.c ****         Rx_Timer_Init();
 220:Generated_Source\PSoC5/Rx_Timer.c **** 
 221:Generated_Source\PSoC5/Rx_Timer.c ****         Rx_Timer_initVar = 1u;   /* Clear this bit for Initialization */
 222:Generated_Source\PSoC5/Rx_Timer.c ****     }
 223:Generated_Source\PSoC5/Rx_Timer.c **** 
 224:Generated_Source\PSoC5/Rx_Timer.c ****     /* Enable the Timer */
 225:Generated_Source\PSoC5/Rx_Timer.c ****     Rx_Timer_Enable();
 226:Generated_Source\PSoC5/Rx_Timer.c **** }
 227:Generated_Source\PSoC5/Rx_Timer.c **** 
 228:Generated_Source\PSoC5/Rx_Timer.c **** 
 229:Generated_Source\PSoC5/Rx_Timer.c **** /*******************************************************************************
 230:Generated_Source\PSoC5/Rx_Timer.c **** * Function Name: Rx_Timer_Stop
 231:Generated_Source\PSoC5/Rx_Timer.c **** ********************************************************************************
 232:Generated_Source\PSoC5/Rx_Timer.c **** *
ARM GAS  C:\Users\scott\AppData\Local\Temp\cc9ws4ON.s 			page 6


 233:Generated_Source\PSoC5/Rx_Timer.c **** * Summary:
 234:Generated_Source\PSoC5/Rx_Timer.c **** *  The stop function halts the timer, but does not change any modes or disable
 235:Generated_Source\PSoC5/Rx_Timer.c **** *  interrupts.
 236:Generated_Source\PSoC5/Rx_Timer.c **** *
 237:Generated_Source\PSoC5/Rx_Timer.c **** * Parameters:
 238:Generated_Source\PSoC5/Rx_Timer.c **** *  void
 239:Generated_Source\PSoC5/Rx_Timer.c **** *
 240:Generated_Source\PSoC5/Rx_Timer.c **** * Return:
 241:Generated_Source\PSoC5/Rx_Timer.c **** *  void
 242:Generated_Source\PSoC5/Rx_Timer.c **** *
 243:Generated_Source\PSoC5/Rx_Timer.c **** * Side Effects: If the Enable mode is set to Hardware only then this function
 244:Generated_Source\PSoC5/Rx_Timer.c **** *               has no effect on the operation of the timer.
 245:Generated_Source\PSoC5/Rx_Timer.c **** *
 246:Generated_Source\PSoC5/Rx_Timer.c **** *******************************************************************************/
 247:Generated_Source\PSoC5/Rx_Timer.c **** void Rx_Timer_Stop(void) 
 248:Generated_Source\PSoC5/Rx_Timer.c **** {
  54              		.loc 1 248 0
  55              		.cfi_startproc
  56              		@ args = 0, pretend = 0, frame = 0
  57              		@ frame_needed = 0, uses_anonymous_args = 0
  58              		@ link register save eliminated.
 249:Generated_Source\PSoC5/Rx_Timer.c ****     /* Disable Timer */
 250:Generated_Source\PSoC5/Rx_Timer.c ****     #if(!Rx_Timer_UDB_CONTROL_REG_REMOVED || Rx_Timer_UsingFixedFunction)
 251:Generated_Source\PSoC5/Rx_Timer.c ****         Rx_Timer_CONTROL &= ((uint8)(~Rx_Timer_CTRL_ENABLE));
  59              		.loc 1 251 0
  60 0000 024A     		ldr	r2, .L5
  61 0002 1378     		ldrb	r3, [r2]	@ zero_extendqisi2
  62 0004 03F07F03 		and	r3, r3, #127
  63 0008 1370     		strb	r3, [r2]
  64 000a 7047     		bx	lr
  65              	.L6:
  66              		.align	2
  67              	.L5:
  68 000c 7A640040 		.word	1073767546
  69              		.cfi_endproc
  70              	.LFE3:
  71              		.size	Rx_Timer_Stop, .-Rx_Timer_Stop
  72              		.section	.text.Rx_Timer_SetInterruptMode,"ax",%progbits
  73              		.align	2
  74              		.global	Rx_Timer_SetInterruptMode
  75              		.thumb
  76              		.thumb_func
  77              		.type	Rx_Timer_SetInterruptMode, %function
  78              	Rx_Timer_SetInterruptMode:
  79              	.LFB4:
 252:Generated_Source\PSoC5/Rx_Timer.c ****     #endif /* Remove assignment if control register is removed */
 253:Generated_Source\PSoC5/Rx_Timer.c **** 
 254:Generated_Source\PSoC5/Rx_Timer.c ****     /* Globally disable the Fixed Function Block chosen */
 255:Generated_Source\PSoC5/Rx_Timer.c ****     #if (Rx_Timer_UsingFixedFunction)
 256:Generated_Source\PSoC5/Rx_Timer.c ****         Rx_Timer_GLOBAL_ENABLE &= ((uint8)(~Rx_Timer_BLOCK_EN_MASK));
 257:Generated_Source\PSoC5/Rx_Timer.c ****         Rx_Timer_GLOBAL_STBY_ENABLE &= ((uint8)(~Rx_Timer_BLOCK_STBY_EN_MASK));
 258:Generated_Source\PSoC5/Rx_Timer.c ****     #endif /* Disable global enable for the Timer Fixed function block to stop the Timer*/
 259:Generated_Source\PSoC5/Rx_Timer.c **** }
 260:Generated_Source\PSoC5/Rx_Timer.c **** 
 261:Generated_Source\PSoC5/Rx_Timer.c **** 
 262:Generated_Source\PSoC5/Rx_Timer.c **** /*******************************************************************************
 263:Generated_Source\PSoC5/Rx_Timer.c **** * Function Name: Rx_Timer_SetInterruptMode
ARM GAS  C:\Users\scott\AppData\Local\Temp\cc9ws4ON.s 			page 7


 264:Generated_Source\PSoC5/Rx_Timer.c **** ********************************************************************************
 265:Generated_Source\PSoC5/Rx_Timer.c **** *
 266:Generated_Source\PSoC5/Rx_Timer.c **** * Summary:
 267:Generated_Source\PSoC5/Rx_Timer.c **** *  This function selects which of the interrupt inputs may cause an interrupt.
 268:Generated_Source\PSoC5/Rx_Timer.c **** *  The twosources are caputure and terminal.  One, both or neither may
 269:Generated_Source\PSoC5/Rx_Timer.c **** *  be selected.
 270:Generated_Source\PSoC5/Rx_Timer.c **** *
 271:Generated_Source\PSoC5/Rx_Timer.c **** * Parameters:
 272:Generated_Source\PSoC5/Rx_Timer.c **** *  interruptMode:   This parameter is used to enable interrups on either/or
 273:Generated_Source\PSoC5/Rx_Timer.c **** *                   terminal count or capture.
 274:Generated_Source\PSoC5/Rx_Timer.c **** *
 275:Generated_Source\PSoC5/Rx_Timer.c **** * Return:
 276:Generated_Source\PSoC5/Rx_Timer.c **** *  void
 277:Generated_Source\PSoC5/Rx_Timer.c **** *
 278:Generated_Source\PSoC5/Rx_Timer.c **** *******************************************************************************/
 279:Generated_Source\PSoC5/Rx_Timer.c **** void Rx_Timer_SetInterruptMode(uint8 interruptMode) 
 280:Generated_Source\PSoC5/Rx_Timer.c **** {
  80              		.loc 1 280 0
  81              		.cfi_startproc
  82              		@ args = 0, pretend = 0, frame = 0
  83              		@ frame_needed = 0, uses_anonymous_args = 0
  84              		@ link register save eliminated.
  85              	.LVL0:
 281:Generated_Source\PSoC5/Rx_Timer.c ****     Rx_Timer_STATUS_MASK = interruptMode;
  86              		.loc 1 281 0
  87 0000 014B     		ldr	r3, .L8
  88 0002 1870     		strb	r0, [r3]
  89 0004 7047     		bx	lr
  90              	.L9:
  91 0006 00BF     		.align	2
  92              	.L8:
  93 0008 8A640040 		.word	1073767562
  94              		.cfi_endproc
  95              	.LFE4:
  96              		.size	Rx_Timer_SetInterruptMode, .-Rx_Timer_SetInterruptMode
  97              		.section	.text.Rx_Timer_SoftwareCapture,"ax",%progbits
  98              		.align	2
  99              		.global	Rx_Timer_SoftwareCapture
 100              		.thumb
 101              		.thumb_func
 102              		.type	Rx_Timer_SoftwareCapture, %function
 103              	Rx_Timer_SoftwareCapture:
 104              	.LFB5:
 282:Generated_Source\PSoC5/Rx_Timer.c **** }
 283:Generated_Source\PSoC5/Rx_Timer.c **** 
 284:Generated_Source\PSoC5/Rx_Timer.c **** 
 285:Generated_Source\PSoC5/Rx_Timer.c **** /*******************************************************************************
 286:Generated_Source\PSoC5/Rx_Timer.c **** * Function Name: Rx_Timer_SoftwareCapture
 287:Generated_Source\PSoC5/Rx_Timer.c **** ********************************************************************************
 288:Generated_Source\PSoC5/Rx_Timer.c **** *
 289:Generated_Source\PSoC5/Rx_Timer.c **** * Summary:
 290:Generated_Source\PSoC5/Rx_Timer.c **** *  This function forces a capture independent of the capture signal.
 291:Generated_Source\PSoC5/Rx_Timer.c **** *
 292:Generated_Source\PSoC5/Rx_Timer.c **** * Parameters:
 293:Generated_Source\PSoC5/Rx_Timer.c **** *  void
 294:Generated_Source\PSoC5/Rx_Timer.c **** *
 295:Generated_Source\PSoC5/Rx_Timer.c **** * Return:
ARM GAS  C:\Users\scott\AppData\Local\Temp\cc9ws4ON.s 			page 8


 296:Generated_Source\PSoC5/Rx_Timer.c **** *  void
 297:Generated_Source\PSoC5/Rx_Timer.c **** *
 298:Generated_Source\PSoC5/Rx_Timer.c **** * Side Effects:
 299:Generated_Source\PSoC5/Rx_Timer.c **** *  An existing hardware capture could be overwritten.
 300:Generated_Source\PSoC5/Rx_Timer.c **** *
 301:Generated_Source\PSoC5/Rx_Timer.c **** *******************************************************************************/
 302:Generated_Source\PSoC5/Rx_Timer.c **** void Rx_Timer_SoftwareCapture(void) 
 303:Generated_Source\PSoC5/Rx_Timer.c **** {
 105              		.loc 1 303 0
 106              		.cfi_startproc
 107              		@ args = 0, pretend = 0, frame = 0
 108              		@ frame_needed = 0, uses_anonymous_args = 0
 109              		@ link register save eliminated.
 304:Generated_Source\PSoC5/Rx_Timer.c ****     /* Generate a software capture by reading the counter register */
 305:Generated_Source\PSoC5/Rx_Timer.c ****     #if(Rx_Timer_UsingFixedFunction)
 306:Generated_Source\PSoC5/Rx_Timer.c ****         (void)CY_GET_REG16(Rx_Timer_COUNTER_LSB_PTR);
 307:Generated_Source\PSoC5/Rx_Timer.c ****     #else
 308:Generated_Source\PSoC5/Rx_Timer.c ****         (void)CY_GET_REG8(Rx_Timer_COUNTER_LSB_PTR_8BIT);
 110              		.loc 1 308 0
 111 0000 014B     		ldr	r3, .L11
 112 0002 1B78     		ldrb	r3, [r3]	@ zero_extendqisi2
 113 0004 7047     		bx	lr
 114              	.L12:
 115 0006 00BF     		.align	2
 116              	.L11:
 117 0008 0A640040 		.word	1073767434
 118              		.cfi_endproc
 119              	.LFE5:
 120              		.size	Rx_Timer_SoftwareCapture, .-Rx_Timer_SoftwareCapture
 121              		.section	.text.Rx_Timer_ReadStatusRegister,"ax",%progbits
 122              		.align	2
 123              		.global	Rx_Timer_ReadStatusRegister
 124              		.thumb
 125              		.thumb_func
 126              		.type	Rx_Timer_ReadStatusRegister, %function
 127              	Rx_Timer_ReadStatusRegister:
 128              	.LFB6:
 309:Generated_Source\PSoC5/Rx_Timer.c ****     #endif/* (Rx_Timer_UsingFixedFunction) */
 310:Generated_Source\PSoC5/Rx_Timer.c ****     /* Capture Data is now in the FIFO */
 311:Generated_Source\PSoC5/Rx_Timer.c **** }
 312:Generated_Source\PSoC5/Rx_Timer.c **** 
 313:Generated_Source\PSoC5/Rx_Timer.c **** 
 314:Generated_Source\PSoC5/Rx_Timer.c **** /*******************************************************************************
 315:Generated_Source\PSoC5/Rx_Timer.c **** * Function Name: Rx_Timer_ReadStatusRegister
 316:Generated_Source\PSoC5/Rx_Timer.c **** ********************************************************************************
 317:Generated_Source\PSoC5/Rx_Timer.c **** *
 318:Generated_Source\PSoC5/Rx_Timer.c **** * Summary:
 319:Generated_Source\PSoC5/Rx_Timer.c **** *  Reads the status register and returns it's state. This function should use
 320:Generated_Source\PSoC5/Rx_Timer.c **** *  defined types for the bit-field information as the bits in this register may
 321:Generated_Source\PSoC5/Rx_Timer.c **** *  be permuteable.
 322:Generated_Source\PSoC5/Rx_Timer.c **** *
 323:Generated_Source\PSoC5/Rx_Timer.c **** * Parameters:
 324:Generated_Source\PSoC5/Rx_Timer.c **** *  void
 325:Generated_Source\PSoC5/Rx_Timer.c **** *
 326:Generated_Source\PSoC5/Rx_Timer.c **** * Return:
 327:Generated_Source\PSoC5/Rx_Timer.c **** *  The contents of the status register
 328:Generated_Source\PSoC5/Rx_Timer.c **** *
ARM GAS  C:\Users\scott\AppData\Local\Temp\cc9ws4ON.s 			page 9


 329:Generated_Source\PSoC5/Rx_Timer.c **** * Side Effects:
 330:Generated_Source\PSoC5/Rx_Timer.c **** *  Status register bits may be clear on read.
 331:Generated_Source\PSoC5/Rx_Timer.c **** *
 332:Generated_Source\PSoC5/Rx_Timer.c **** *******************************************************************************/
 333:Generated_Source\PSoC5/Rx_Timer.c **** uint8   Rx_Timer_ReadStatusRegister(void) 
 334:Generated_Source\PSoC5/Rx_Timer.c **** {
 129              		.loc 1 334 0
 130              		.cfi_startproc
 131              		@ args = 0, pretend = 0, frame = 0
 132              		@ frame_needed = 0, uses_anonymous_args = 0
 133              		@ link register save eliminated.
 335:Generated_Source\PSoC5/Rx_Timer.c ****     return (Rx_Timer_STATUS);
 134              		.loc 1 335 0
 135 0000 014B     		ldr	r3, .L14
 136 0002 1878     		ldrb	r0, [r3]	@ zero_extendqisi2
 336:Generated_Source\PSoC5/Rx_Timer.c **** }
 137              		.loc 1 336 0
 138 0004 7047     		bx	lr
 139              	.L15:
 140 0006 00BF     		.align	2
 141              	.L14:
 142 0008 6A640040 		.word	1073767530
 143              		.cfi_endproc
 144              	.LFE6:
 145              		.size	Rx_Timer_ReadStatusRegister, .-Rx_Timer_ReadStatusRegister
 146              		.section	.text.Rx_Timer_ReadControlRegister,"ax",%progbits
 147              		.align	2
 148              		.global	Rx_Timer_ReadControlRegister
 149              		.thumb
 150              		.thumb_func
 151              		.type	Rx_Timer_ReadControlRegister, %function
 152              	Rx_Timer_ReadControlRegister:
 153              	.LFB7:
 337:Generated_Source\PSoC5/Rx_Timer.c **** 
 338:Generated_Source\PSoC5/Rx_Timer.c **** 
 339:Generated_Source\PSoC5/Rx_Timer.c **** #if (!Rx_Timer_UDB_CONTROL_REG_REMOVED) /* Remove API if control register is unused */
 340:Generated_Source\PSoC5/Rx_Timer.c **** 
 341:Generated_Source\PSoC5/Rx_Timer.c **** 
 342:Generated_Source\PSoC5/Rx_Timer.c **** /*******************************************************************************
 343:Generated_Source\PSoC5/Rx_Timer.c **** * Function Name: Rx_Timer_ReadControlRegister
 344:Generated_Source\PSoC5/Rx_Timer.c **** ********************************************************************************
 345:Generated_Source\PSoC5/Rx_Timer.c **** *
 346:Generated_Source\PSoC5/Rx_Timer.c **** * Summary:
 347:Generated_Source\PSoC5/Rx_Timer.c **** *  Reads the control register and returns it's value.
 348:Generated_Source\PSoC5/Rx_Timer.c **** *
 349:Generated_Source\PSoC5/Rx_Timer.c **** * Parameters:
 350:Generated_Source\PSoC5/Rx_Timer.c **** *  void
 351:Generated_Source\PSoC5/Rx_Timer.c **** *
 352:Generated_Source\PSoC5/Rx_Timer.c **** * Return:
 353:Generated_Source\PSoC5/Rx_Timer.c **** *  The contents of the control register
 354:Generated_Source\PSoC5/Rx_Timer.c **** *
 355:Generated_Source\PSoC5/Rx_Timer.c **** *******************************************************************************/
 356:Generated_Source\PSoC5/Rx_Timer.c **** uint8 Rx_Timer_ReadControlRegister(void) 
 357:Generated_Source\PSoC5/Rx_Timer.c **** {
 154              		.loc 1 357 0
 155              		.cfi_startproc
 156              		@ args = 0, pretend = 0, frame = 0
ARM GAS  C:\Users\scott\AppData\Local\Temp\cc9ws4ON.s 			page 10


 157              		@ frame_needed = 0, uses_anonymous_args = 0
 158              		@ link register save eliminated.
 358:Generated_Source\PSoC5/Rx_Timer.c ****     #if (!Rx_Timer_UDB_CONTROL_REG_REMOVED) 
 359:Generated_Source\PSoC5/Rx_Timer.c ****         return ((uint8)Rx_Timer_CONTROL);
 159              		.loc 1 359 0
 160 0000 014B     		ldr	r3, .L17
 161 0002 1878     		ldrb	r0, [r3]	@ zero_extendqisi2
 360:Generated_Source\PSoC5/Rx_Timer.c ****     #else
 361:Generated_Source\PSoC5/Rx_Timer.c ****         return (0);
 362:Generated_Source\PSoC5/Rx_Timer.c ****     #endif /* (!Rx_Timer_UDB_CONTROL_REG_REMOVED) */
 363:Generated_Source\PSoC5/Rx_Timer.c **** }
 162              		.loc 1 363 0
 163 0004 7047     		bx	lr
 164              	.L18:
 165 0006 00BF     		.align	2
 166              	.L17:
 167 0008 7A640040 		.word	1073767546
 168              		.cfi_endproc
 169              	.LFE7:
 170              		.size	Rx_Timer_ReadControlRegister, .-Rx_Timer_ReadControlRegister
 171              		.section	.text.Rx_Timer_WriteControlRegister,"ax",%progbits
 172              		.align	2
 173              		.global	Rx_Timer_WriteControlRegister
 174              		.thumb
 175              		.thumb_func
 176              		.type	Rx_Timer_WriteControlRegister, %function
 177              	Rx_Timer_WriteControlRegister:
 178              	.LFB8:
 364:Generated_Source\PSoC5/Rx_Timer.c **** 
 365:Generated_Source\PSoC5/Rx_Timer.c **** 
 366:Generated_Source\PSoC5/Rx_Timer.c **** /*******************************************************************************
 367:Generated_Source\PSoC5/Rx_Timer.c **** * Function Name: Rx_Timer_WriteControlRegister
 368:Generated_Source\PSoC5/Rx_Timer.c **** ********************************************************************************
 369:Generated_Source\PSoC5/Rx_Timer.c **** *
 370:Generated_Source\PSoC5/Rx_Timer.c **** * Summary:
 371:Generated_Source\PSoC5/Rx_Timer.c **** *  Sets the bit-field of the control register.
 372:Generated_Source\PSoC5/Rx_Timer.c **** *
 373:Generated_Source\PSoC5/Rx_Timer.c **** * Parameters:
 374:Generated_Source\PSoC5/Rx_Timer.c **** *  control: The contents of the control register
 375:Generated_Source\PSoC5/Rx_Timer.c **** *
 376:Generated_Source\PSoC5/Rx_Timer.c **** * Return:
 377:Generated_Source\PSoC5/Rx_Timer.c **** *
 378:Generated_Source\PSoC5/Rx_Timer.c **** *******************************************************************************/
 379:Generated_Source\PSoC5/Rx_Timer.c **** void Rx_Timer_WriteControlRegister(uint8 control) 
 380:Generated_Source\PSoC5/Rx_Timer.c **** {
 179              		.loc 1 380 0
 180              		.cfi_startproc
 181              		@ args = 0, pretend = 0, frame = 0
 182              		@ frame_needed = 0, uses_anonymous_args = 0
 183              		@ link register save eliminated.
 184              	.LVL1:
 381:Generated_Source\PSoC5/Rx_Timer.c ****     #if (!Rx_Timer_UDB_CONTROL_REG_REMOVED) 
 382:Generated_Source\PSoC5/Rx_Timer.c ****         Rx_Timer_CONTROL = control;
 185              		.loc 1 382 0
 186 0000 014B     		ldr	r3, .L20
 187 0002 1870     		strb	r0, [r3]
 188 0004 7047     		bx	lr
ARM GAS  C:\Users\scott\AppData\Local\Temp\cc9ws4ON.s 			page 11


 189              	.L21:
 190 0006 00BF     		.align	2
 191              	.L20:
 192 0008 7A640040 		.word	1073767546
 193              		.cfi_endproc
 194              	.LFE8:
 195              		.size	Rx_Timer_WriteControlRegister, .-Rx_Timer_WriteControlRegister
 196              		.section	.text.Rx_Timer_ReadPeriod,"ax",%progbits
 197              		.align	2
 198              		.global	Rx_Timer_ReadPeriod
 199              		.thumb
 200              		.thumb_func
 201              		.type	Rx_Timer_ReadPeriod, %function
 202              	Rx_Timer_ReadPeriod:
 203              	.LFB9:
 383:Generated_Source\PSoC5/Rx_Timer.c ****     #else
 384:Generated_Source\PSoC5/Rx_Timer.c ****         control = 0u;
 385:Generated_Source\PSoC5/Rx_Timer.c ****     #endif /* (!Rx_Timer_UDB_CONTROL_REG_REMOVED) */
 386:Generated_Source\PSoC5/Rx_Timer.c **** }
 387:Generated_Source\PSoC5/Rx_Timer.c **** 
 388:Generated_Source\PSoC5/Rx_Timer.c **** #endif /* Remove API if control register is unused */
 389:Generated_Source\PSoC5/Rx_Timer.c **** 
 390:Generated_Source\PSoC5/Rx_Timer.c **** 
 391:Generated_Source\PSoC5/Rx_Timer.c **** /*******************************************************************************
 392:Generated_Source\PSoC5/Rx_Timer.c **** * Function Name: Rx_Timer_ReadPeriod
 393:Generated_Source\PSoC5/Rx_Timer.c **** ********************************************************************************
 394:Generated_Source\PSoC5/Rx_Timer.c **** *
 395:Generated_Source\PSoC5/Rx_Timer.c **** * Summary:
 396:Generated_Source\PSoC5/Rx_Timer.c **** *  This function returns the current value of the Period.
 397:Generated_Source\PSoC5/Rx_Timer.c **** *
 398:Generated_Source\PSoC5/Rx_Timer.c **** * Parameters:
 399:Generated_Source\PSoC5/Rx_Timer.c **** *  void
 400:Generated_Source\PSoC5/Rx_Timer.c **** *
 401:Generated_Source\PSoC5/Rx_Timer.c **** * Return:
 402:Generated_Source\PSoC5/Rx_Timer.c **** *  The present value of the counter.
 403:Generated_Source\PSoC5/Rx_Timer.c **** *
 404:Generated_Source\PSoC5/Rx_Timer.c **** *******************************************************************************/
 405:Generated_Source\PSoC5/Rx_Timer.c **** uint32 Rx_Timer_ReadPeriod(void) 
 406:Generated_Source\PSoC5/Rx_Timer.c **** {
 204              		.loc 1 406 0
 205              		.cfi_startproc
 206              		@ args = 0, pretend = 0, frame = 0
 207              		@ frame_needed = 0, uses_anonymous_args = 0
 208              		@ link register save eliminated.
 407:Generated_Source\PSoC5/Rx_Timer.c ****    #if(Rx_Timer_UsingFixedFunction)
 408:Generated_Source\PSoC5/Rx_Timer.c ****        return ((uint32)CY_GET_REG16(Rx_Timer_PERIOD_LSB_PTR));
 409:Generated_Source\PSoC5/Rx_Timer.c ****    #else
 410:Generated_Source\PSoC5/Rx_Timer.c ****        return (CY_GET_REG32(Rx_Timer_PERIOD_LSB_PTR));
 209              		.loc 1 410 0
 210 0000 014B     		ldr	r3, .L23
 211 0002 1868     		ldr	r0, [r3]	@ unaligned
 411:Generated_Source\PSoC5/Rx_Timer.c ****    #endif /* (Rx_Timer_UsingFixedFunction) */
 412:Generated_Source\PSoC5/Rx_Timer.c **** }
 212              		.loc 1 412 0
 213 0004 7047     		bx	lr
 214              	.L24:
 215 0006 00BF     		.align	2
ARM GAS  C:\Users\scott\AppData\Local\Temp\cc9ws4ON.s 			page 12


 216              	.L23:
 217 0008 2A640040 		.word	1073767466
 218              		.cfi_endproc
 219              	.LFE9:
 220              		.size	Rx_Timer_ReadPeriod, .-Rx_Timer_ReadPeriod
 221              		.section	.text.Rx_Timer_WritePeriod,"ax",%progbits
 222              		.align	2
 223              		.global	Rx_Timer_WritePeriod
 224              		.thumb
 225              		.thumb_func
 226              		.type	Rx_Timer_WritePeriod, %function
 227              	Rx_Timer_WritePeriod:
 228              	.LFB10:
 413:Generated_Source\PSoC5/Rx_Timer.c **** 
 414:Generated_Source\PSoC5/Rx_Timer.c **** 
 415:Generated_Source\PSoC5/Rx_Timer.c **** /*******************************************************************************
 416:Generated_Source\PSoC5/Rx_Timer.c **** * Function Name: Rx_Timer_WritePeriod
 417:Generated_Source\PSoC5/Rx_Timer.c **** ********************************************************************************
 418:Generated_Source\PSoC5/Rx_Timer.c **** *
 419:Generated_Source\PSoC5/Rx_Timer.c **** * Summary:
 420:Generated_Source\PSoC5/Rx_Timer.c **** *  This function is used to change the period of the counter.  The new period
 421:Generated_Source\PSoC5/Rx_Timer.c **** *  will be loaded the next time terminal count is detected.
 422:Generated_Source\PSoC5/Rx_Timer.c **** *
 423:Generated_Source\PSoC5/Rx_Timer.c **** * Parameters:
 424:Generated_Source\PSoC5/Rx_Timer.c **** *  period: This value may be between 1 and (2^Resolution)-1.  A value of 0 will
 425:Generated_Source\PSoC5/Rx_Timer.c **** *          result in the counter remaining at zero.
 426:Generated_Source\PSoC5/Rx_Timer.c **** *
 427:Generated_Source\PSoC5/Rx_Timer.c **** * Return:
 428:Generated_Source\PSoC5/Rx_Timer.c **** *  void
 429:Generated_Source\PSoC5/Rx_Timer.c **** *
 430:Generated_Source\PSoC5/Rx_Timer.c **** *******************************************************************************/
 431:Generated_Source\PSoC5/Rx_Timer.c **** void Rx_Timer_WritePeriod(uint32 period) 
 432:Generated_Source\PSoC5/Rx_Timer.c **** {
 229              		.loc 1 432 0
 230              		.cfi_startproc
 231              		@ args = 0, pretend = 0, frame = 0
 232              		@ frame_needed = 0, uses_anonymous_args = 0
 233              		@ link register save eliminated.
 234              	.LVL2:
 433:Generated_Source\PSoC5/Rx_Timer.c ****     #if(Rx_Timer_UsingFixedFunction)
 434:Generated_Source\PSoC5/Rx_Timer.c ****         uint16 period_temp = (uint16)period;
 435:Generated_Source\PSoC5/Rx_Timer.c ****         CY_SET_REG16(Rx_Timer_PERIOD_LSB_PTR, period_temp);
 436:Generated_Source\PSoC5/Rx_Timer.c ****     #else
 437:Generated_Source\PSoC5/Rx_Timer.c ****         CY_SET_REG32(Rx_Timer_PERIOD_LSB_PTR, period);
 235              		.loc 1 437 0
 236 0000 014B     		ldr	r3, .L26
 237 0002 1860     		str	r0, [r3]	@ unaligned
 238 0004 7047     		bx	lr
 239              	.L27:
 240 0006 00BF     		.align	2
 241              	.L26:
 242 0008 2A640040 		.word	1073767466
 243              		.cfi_endproc
 244              	.LFE10:
 245              		.size	Rx_Timer_WritePeriod, .-Rx_Timer_WritePeriod
 246              		.section	.text.Rx_Timer_ReadCapture,"ax",%progbits
 247              		.align	2
ARM GAS  C:\Users\scott\AppData\Local\Temp\cc9ws4ON.s 			page 13


 248              		.global	Rx_Timer_ReadCapture
 249              		.thumb
 250              		.thumb_func
 251              		.type	Rx_Timer_ReadCapture, %function
 252              	Rx_Timer_ReadCapture:
 253              	.LFB11:
 438:Generated_Source\PSoC5/Rx_Timer.c ****     #endif /*Write Period value with appropriate resolution suffix depending on UDB or fixed functi
 439:Generated_Source\PSoC5/Rx_Timer.c **** }
 440:Generated_Source\PSoC5/Rx_Timer.c **** 
 441:Generated_Source\PSoC5/Rx_Timer.c **** 
 442:Generated_Source\PSoC5/Rx_Timer.c **** /*******************************************************************************
 443:Generated_Source\PSoC5/Rx_Timer.c **** * Function Name: Rx_Timer_ReadCapture
 444:Generated_Source\PSoC5/Rx_Timer.c **** ********************************************************************************
 445:Generated_Source\PSoC5/Rx_Timer.c **** *
 446:Generated_Source\PSoC5/Rx_Timer.c **** * Summary:
 447:Generated_Source\PSoC5/Rx_Timer.c **** *  This function returns the last value captured.
 448:Generated_Source\PSoC5/Rx_Timer.c **** *
 449:Generated_Source\PSoC5/Rx_Timer.c **** * Parameters:
 450:Generated_Source\PSoC5/Rx_Timer.c **** *  void
 451:Generated_Source\PSoC5/Rx_Timer.c **** *
 452:Generated_Source\PSoC5/Rx_Timer.c **** * Return:
 453:Generated_Source\PSoC5/Rx_Timer.c **** *  Present Capture value.
 454:Generated_Source\PSoC5/Rx_Timer.c **** *
 455:Generated_Source\PSoC5/Rx_Timer.c **** *******************************************************************************/
 456:Generated_Source\PSoC5/Rx_Timer.c **** uint32 Rx_Timer_ReadCapture(void) 
 457:Generated_Source\PSoC5/Rx_Timer.c **** {
 254              		.loc 1 457 0
 255              		.cfi_startproc
 256              		@ args = 0, pretend = 0, frame = 0
 257              		@ frame_needed = 0, uses_anonymous_args = 0
 258              		@ link register save eliminated.
 458:Generated_Source\PSoC5/Rx_Timer.c ****    #if(Rx_Timer_UsingFixedFunction)
 459:Generated_Source\PSoC5/Rx_Timer.c ****        return ((uint32)CY_GET_REG16(Rx_Timer_CAPTURE_LSB_PTR));
 460:Generated_Source\PSoC5/Rx_Timer.c ****    #else
 461:Generated_Source\PSoC5/Rx_Timer.c ****        return (CY_GET_REG32(Rx_Timer_CAPTURE_LSB_PTR));
 259              		.loc 1 461 0
 260 0000 014B     		ldr	r3, .L29
 261 0002 1868     		ldr	r0, [r3]	@ unaligned
 462:Generated_Source\PSoC5/Rx_Timer.c ****    #endif /* (Rx_Timer_UsingFixedFunction) */
 463:Generated_Source\PSoC5/Rx_Timer.c **** }
 262              		.loc 1 463 0
 263 0004 7047     		bx	lr
 264              	.L30:
 265 0006 00BF     		.align	2
 266              	.L29:
 267 0008 4A640040 		.word	1073767498
 268              		.cfi_endproc
 269              	.LFE11:
 270              		.size	Rx_Timer_ReadCapture, .-Rx_Timer_ReadCapture
 271              		.section	.text.Rx_Timer_WriteCounter,"ax",%progbits
 272              		.align	2
 273              		.global	Rx_Timer_WriteCounter
 274              		.thumb
 275              		.thumb_func
 276              		.type	Rx_Timer_WriteCounter, %function
 277              	Rx_Timer_WriteCounter:
 278              	.LFB12:
ARM GAS  C:\Users\scott\AppData\Local\Temp\cc9ws4ON.s 			page 14


 464:Generated_Source\PSoC5/Rx_Timer.c **** 
 465:Generated_Source\PSoC5/Rx_Timer.c **** 
 466:Generated_Source\PSoC5/Rx_Timer.c **** /*******************************************************************************
 467:Generated_Source\PSoC5/Rx_Timer.c **** * Function Name: Rx_Timer_WriteCounter
 468:Generated_Source\PSoC5/Rx_Timer.c **** ********************************************************************************
 469:Generated_Source\PSoC5/Rx_Timer.c **** *
 470:Generated_Source\PSoC5/Rx_Timer.c **** * Summary:
 471:Generated_Source\PSoC5/Rx_Timer.c **** *  This funtion is used to set the counter to a specific value
 472:Generated_Source\PSoC5/Rx_Timer.c **** *
 473:Generated_Source\PSoC5/Rx_Timer.c **** * Parameters:
 474:Generated_Source\PSoC5/Rx_Timer.c **** *  counter:  New counter value.
 475:Generated_Source\PSoC5/Rx_Timer.c **** *
 476:Generated_Source\PSoC5/Rx_Timer.c **** * Return:
 477:Generated_Source\PSoC5/Rx_Timer.c **** *  void
 478:Generated_Source\PSoC5/Rx_Timer.c **** *
 479:Generated_Source\PSoC5/Rx_Timer.c **** *******************************************************************************/
 480:Generated_Source\PSoC5/Rx_Timer.c **** void Rx_Timer_WriteCounter(uint32 counter) 
 481:Generated_Source\PSoC5/Rx_Timer.c **** {
 279              		.loc 1 481 0
 280              		.cfi_startproc
 281              		@ args = 0, pretend = 0, frame = 0
 282              		@ frame_needed = 0, uses_anonymous_args = 0
 283              		@ link register save eliminated.
 284              	.LVL3:
 482:Generated_Source\PSoC5/Rx_Timer.c ****    #if(Rx_Timer_UsingFixedFunction)
 483:Generated_Source\PSoC5/Rx_Timer.c ****         /* This functionality is removed until a FixedFunction HW update to
 484:Generated_Source\PSoC5/Rx_Timer.c ****          * allow this register to be written
 485:Generated_Source\PSoC5/Rx_Timer.c ****          */
 486:Generated_Source\PSoC5/Rx_Timer.c ****         CY_SET_REG16(Rx_Timer_COUNTER_LSB_PTR, (uint16)counter);
 487:Generated_Source\PSoC5/Rx_Timer.c ****         
 488:Generated_Source\PSoC5/Rx_Timer.c ****     #else
 489:Generated_Source\PSoC5/Rx_Timer.c ****         CY_SET_REG32(Rx_Timer_COUNTER_LSB_PTR, counter);
 285              		.loc 1 489 0
 286 0000 014B     		ldr	r3, .L32
 287 0002 1860     		str	r0, [r3]	@ unaligned
 288 0004 7047     		bx	lr
 289              	.L33:
 290 0006 00BF     		.align	2
 291              	.L32:
 292 0008 0A640040 		.word	1073767434
 293              		.cfi_endproc
 294              	.LFE12:
 295              		.size	Rx_Timer_WriteCounter, .-Rx_Timer_WriteCounter
 296              		.section	.text.Rx_Timer_ReadCounter,"ax",%progbits
 297              		.align	2
 298              		.global	Rx_Timer_ReadCounter
 299              		.thumb
 300              		.thumb_func
 301              		.type	Rx_Timer_ReadCounter, %function
 302              	Rx_Timer_ReadCounter:
 303              	.LFB13:
 490:Generated_Source\PSoC5/Rx_Timer.c ****     #endif /* Set Write Counter only for the UDB implementation (Write Counter not available in fix
 491:Generated_Source\PSoC5/Rx_Timer.c **** }
 492:Generated_Source\PSoC5/Rx_Timer.c **** 
 493:Generated_Source\PSoC5/Rx_Timer.c **** 
 494:Generated_Source\PSoC5/Rx_Timer.c **** /*******************************************************************************
 495:Generated_Source\PSoC5/Rx_Timer.c **** * Function Name: Rx_Timer_ReadCounter
ARM GAS  C:\Users\scott\AppData\Local\Temp\cc9ws4ON.s 			page 15


 496:Generated_Source\PSoC5/Rx_Timer.c **** ********************************************************************************
 497:Generated_Source\PSoC5/Rx_Timer.c **** *
 498:Generated_Source\PSoC5/Rx_Timer.c **** * Summary:
 499:Generated_Source\PSoC5/Rx_Timer.c **** *  This function returns the current counter value.
 500:Generated_Source\PSoC5/Rx_Timer.c **** *
 501:Generated_Source\PSoC5/Rx_Timer.c **** * Parameters:
 502:Generated_Source\PSoC5/Rx_Timer.c **** *  void
 503:Generated_Source\PSoC5/Rx_Timer.c **** *
 504:Generated_Source\PSoC5/Rx_Timer.c **** * Return:
 505:Generated_Source\PSoC5/Rx_Timer.c **** *  Present compare value.
 506:Generated_Source\PSoC5/Rx_Timer.c **** *
 507:Generated_Source\PSoC5/Rx_Timer.c **** *******************************************************************************/
 508:Generated_Source\PSoC5/Rx_Timer.c **** uint32 Rx_Timer_ReadCounter(void) 
 509:Generated_Source\PSoC5/Rx_Timer.c **** {
 304              		.loc 1 509 0
 305              		.cfi_startproc
 306              		@ args = 0, pretend = 0, frame = 0
 307              		@ frame_needed = 0, uses_anonymous_args = 0
 308              		@ link register save eliminated.
 510:Generated_Source\PSoC5/Rx_Timer.c ****     /* Force capture by reading Accumulator */
 511:Generated_Source\PSoC5/Rx_Timer.c ****     /* Must first do a software capture to be able to read the counter */
 512:Generated_Source\PSoC5/Rx_Timer.c ****     /* It is up to the user code to make sure there isn't already captured data in the FIFO */
 513:Generated_Source\PSoC5/Rx_Timer.c ****     #if(Rx_Timer_UsingFixedFunction)
 514:Generated_Source\PSoC5/Rx_Timer.c ****         (void)CY_GET_REG16(Rx_Timer_COUNTER_LSB_PTR);
 515:Generated_Source\PSoC5/Rx_Timer.c ****     #else
 516:Generated_Source\PSoC5/Rx_Timer.c ****         (void)CY_GET_REG8(Rx_Timer_COUNTER_LSB_PTR_8BIT);
 309              		.loc 1 516 0
 310 0000 024B     		ldr	r3, .L35
 311 0002 1B78     		ldrb	r3, [r3]	@ zero_extendqisi2
 517:Generated_Source\PSoC5/Rx_Timer.c ****     #endif/* (Rx_Timer_UsingFixedFunction) */
 518:Generated_Source\PSoC5/Rx_Timer.c **** 
 519:Generated_Source\PSoC5/Rx_Timer.c ****     /* Read the data from the FIFO (or capture register for Fixed Function)*/
 520:Generated_Source\PSoC5/Rx_Timer.c ****     #if(Rx_Timer_UsingFixedFunction)
 521:Generated_Source\PSoC5/Rx_Timer.c ****         return ((uint32)CY_GET_REG16(Rx_Timer_CAPTURE_LSB_PTR));
 522:Generated_Source\PSoC5/Rx_Timer.c ****     #else
 523:Generated_Source\PSoC5/Rx_Timer.c ****         return (CY_GET_REG32(Rx_Timer_CAPTURE_LSB_PTR));
 312              		.loc 1 523 0
 313 0004 024B     		ldr	r3, .L35+4
 314 0006 1868     		ldr	r0, [r3]	@ unaligned
 524:Generated_Source\PSoC5/Rx_Timer.c ****     #endif /* (Rx_Timer_UsingFixedFunction) */
 525:Generated_Source\PSoC5/Rx_Timer.c **** }
 315              		.loc 1 525 0
 316 0008 7047     		bx	lr
 317              	.L36:
 318 000a 00BF     		.align	2
 319              	.L35:
 320 000c 0A640040 		.word	1073767434
 321 0010 4A640040 		.word	1073767498
 322              		.cfi_endproc
 323              	.LFE13:
 324              		.size	Rx_Timer_ReadCounter, .-Rx_Timer_ReadCounter
 325              		.section	.text.Rx_Timer_SetCaptureMode,"ax",%progbits
 326              		.align	2
 327              		.global	Rx_Timer_SetCaptureMode
 328              		.thumb
 329              		.thumb_func
 330              		.type	Rx_Timer_SetCaptureMode, %function
ARM GAS  C:\Users\scott\AppData\Local\Temp\cc9ws4ON.s 			page 16


 331              	Rx_Timer_SetCaptureMode:
 332              	.LFB14:
 526:Generated_Source\PSoC5/Rx_Timer.c **** 
 527:Generated_Source\PSoC5/Rx_Timer.c **** 
 528:Generated_Source\PSoC5/Rx_Timer.c **** #if(!Rx_Timer_UsingFixedFunction) /* UDB Specific Functions */
 529:Generated_Source\PSoC5/Rx_Timer.c **** 
 530:Generated_Source\PSoC5/Rx_Timer.c ****     
 531:Generated_Source\PSoC5/Rx_Timer.c **** /*******************************************************************************
 532:Generated_Source\PSoC5/Rx_Timer.c ****  * The functions below this point are only available using the UDB
 533:Generated_Source\PSoC5/Rx_Timer.c ****  * implementation.  If a feature is selected, then the API is enabled.
 534:Generated_Source\PSoC5/Rx_Timer.c ****  ******************************************************************************/
 535:Generated_Source\PSoC5/Rx_Timer.c **** 
 536:Generated_Source\PSoC5/Rx_Timer.c **** 
 537:Generated_Source\PSoC5/Rx_Timer.c **** #if (Rx_Timer_SoftwareCaptureMode)
 538:Generated_Source\PSoC5/Rx_Timer.c **** 
 539:Generated_Source\PSoC5/Rx_Timer.c **** 
 540:Generated_Source\PSoC5/Rx_Timer.c **** /*******************************************************************************
 541:Generated_Source\PSoC5/Rx_Timer.c **** * Function Name: Rx_Timer_SetCaptureMode
 542:Generated_Source\PSoC5/Rx_Timer.c **** ********************************************************************************
 543:Generated_Source\PSoC5/Rx_Timer.c **** *
 544:Generated_Source\PSoC5/Rx_Timer.c **** * Summary:
 545:Generated_Source\PSoC5/Rx_Timer.c **** *  This function sets the capture mode to either rising or falling edge.
 546:Generated_Source\PSoC5/Rx_Timer.c **** *
 547:Generated_Source\PSoC5/Rx_Timer.c **** * Parameters:
 548:Generated_Source\PSoC5/Rx_Timer.c **** *  captureMode: This parameter sets the capture mode of the UDB capture feature
 549:Generated_Source\PSoC5/Rx_Timer.c **** *  The parameter values are defined using the
 550:Generated_Source\PSoC5/Rx_Timer.c **** *  #define Rx_Timer__B_TIMER__CM_NONE 0
 551:Generated_Source\PSoC5/Rx_Timer.c **** #define Rx_Timer__B_TIMER__CM_RISINGEDGE 1
 552:Generated_Source\PSoC5/Rx_Timer.c **** #define Rx_Timer__B_TIMER__CM_FALLINGEDGE 2
 553:Generated_Source\PSoC5/Rx_Timer.c **** #define Rx_Timer__B_TIMER__CM_EITHEREDGE 3
 554:Generated_Source\PSoC5/Rx_Timer.c **** #define Rx_Timer__B_TIMER__CM_SOFTWARE 4
 555:Generated_Source\PSoC5/Rx_Timer.c ****  identifiers
 556:Generated_Source\PSoC5/Rx_Timer.c **** *  The following are the possible values of the parameter
 557:Generated_Source\PSoC5/Rx_Timer.c **** *  Rx_Timer__B_TIMER__CM_NONE        - Set Capture mode to None
 558:Generated_Source\PSoC5/Rx_Timer.c **** *  Rx_Timer__B_TIMER__CM_RISINGEDGE  - Rising edge of Capture input
 559:Generated_Source\PSoC5/Rx_Timer.c **** *  Rx_Timer__B_TIMER__CM_FALLINGEDGE - Falling edge of Capture input
 560:Generated_Source\PSoC5/Rx_Timer.c **** *  Rx_Timer__B_TIMER__CM_EITHEREDGE  - Either edge of Capture input
 561:Generated_Source\PSoC5/Rx_Timer.c **** *
 562:Generated_Source\PSoC5/Rx_Timer.c **** * Return:
 563:Generated_Source\PSoC5/Rx_Timer.c **** *  void
 564:Generated_Source\PSoC5/Rx_Timer.c **** *
 565:Generated_Source\PSoC5/Rx_Timer.c **** *******************************************************************************/
 566:Generated_Source\PSoC5/Rx_Timer.c **** void Rx_Timer_SetCaptureMode(uint8 captureMode) 
 567:Generated_Source\PSoC5/Rx_Timer.c **** {
 333              		.loc 1 567 0
 334              		.cfi_startproc
 335              		@ args = 0, pretend = 0, frame = 0
 336              		@ frame_needed = 0, uses_anonymous_args = 0
 337              		@ link register save eliminated.
 338              	.LVL4:
 568:Generated_Source\PSoC5/Rx_Timer.c ****     /* This must only set to two bits of the control register associated */
 569:Generated_Source\PSoC5/Rx_Timer.c ****     captureMode = ((uint8)((uint8)captureMode << Rx_Timer_CTRL_CAP_MODE_SHIFT));
 339              		.loc 1 569 0
 340 0000 4001     		lsls	r0, r0, #5
 341              	.LVL5:
 570:Generated_Source\PSoC5/Rx_Timer.c ****     captureMode &= (Rx_Timer_CTRL_CAP_MODE_MASK);
 342              		.loc 1 570 0
ARM GAS  C:\Users\scott\AppData\Local\Temp\cc9ws4ON.s 			page 17


 343 0002 00F06000 		and	r0, r0, #96
 344              	.LVL6:
 571:Generated_Source\PSoC5/Rx_Timer.c **** 
 572:Generated_Source\PSoC5/Rx_Timer.c ****     #if (!Rx_Timer_UDB_CONTROL_REG_REMOVED)
 573:Generated_Source\PSoC5/Rx_Timer.c ****         /* Clear the Current Setting */
 574:Generated_Source\PSoC5/Rx_Timer.c ****         Rx_Timer_CONTROL &= ((uint8)(~Rx_Timer_CTRL_CAP_MODE_MASK));
 345              		.loc 1 574 0
 346 0006 044B     		ldr	r3, .L38
 347 0008 1A78     		ldrb	r2, [r3]	@ zero_extendqisi2
 348 000a 02F09F02 		and	r2, r2, #159
 349 000e 1A70     		strb	r2, [r3]
 575:Generated_Source\PSoC5/Rx_Timer.c **** 
 576:Generated_Source\PSoC5/Rx_Timer.c ****         /* Write The New Setting */
 577:Generated_Source\PSoC5/Rx_Timer.c ****         Rx_Timer_CONTROL |= captureMode;
 350              		.loc 1 577 0
 351 0010 1A78     		ldrb	r2, [r3]	@ zero_extendqisi2
 352 0012 1043     		orrs	r0, r0, r2
 353              	.LVL7:
 354 0014 1870     		strb	r0, [r3]
 355 0016 7047     		bx	lr
 356              	.L39:
 357              		.align	2
 358              	.L38:
 359 0018 7A640040 		.word	1073767546
 360              		.cfi_endproc
 361              	.LFE14:
 362              		.size	Rx_Timer_SetCaptureMode, .-Rx_Timer_SetCaptureMode
 363              		.section	.text.Rx_Timer_ClearFIFO,"ax",%progbits
 364              		.align	2
 365              		.global	Rx_Timer_ClearFIFO
 366              		.thumb
 367              		.thumb_func
 368              		.type	Rx_Timer_ClearFIFO, %function
 369              	Rx_Timer_ClearFIFO:
 370              	.LFB15:
 578:Generated_Source\PSoC5/Rx_Timer.c ****     #endif /* (!Rx_Timer_UDB_CONTROL_REG_REMOVED) */
 579:Generated_Source\PSoC5/Rx_Timer.c **** }
 580:Generated_Source\PSoC5/Rx_Timer.c **** #endif /* Remove API if Capture Mode is not Software Controlled */
 581:Generated_Source\PSoC5/Rx_Timer.c **** 
 582:Generated_Source\PSoC5/Rx_Timer.c **** 
 583:Generated_Source\PSoC5/Rx_Timer.c **** #if (Rx_Timer_SoftwareTriggerMode)
 584:Generated_Source\PSoC5/Rx_Timer.c **** 
 585:Generated_Source\PSoC5/Rx_Timer.c **** 
 586:Generated_Source\PSoC5/Rx_Timer.c **** /*******************************************************************************
 587:Generated_Source\PSoC5/Rx_Timer.c **** * Function Name: Rx_Timer_SetTriggerMode
 588:Generated_Source\PSoC5/Rx_Timer.c **** ********************************************************************************
 589:Generated_Source\PSoC5/Rx_Timer.c **** *
 590:Generated_Source\PSoC5/Rx_Timer.c **** * Summary:
 591:Generated_Source\PSoC5/Rx_Timer.c **** *  This function sets the trigger input mode
 592:Generated_Source\PSoC5/Rx_Timer.c **** *
 593:Generated_Source\PSoC5/Rx_Timer.c **** * Parameters:
 594:Generated_Source\PSoC5/Rx_Timer.c **** *  triggerMode: Pass one of the pre-defined Trigger Modes (except Software)
 595:Generated_Source\PSoC5/Rx_Timer.c ****     #define Rx_Timer__B_TIMER__TM_NONE 0x00u
 596:Generated_Source\PSoC5/Rx_Timer.c ****     #define Rx_Timer__B_TIMER__TM_RISINGEDGE 0x04u
 597:Generated_Source\PSoC5/Rx_Timer.c ****     #define Rx_Timer__B_TIMER__TM_FALLINGEDGE 0x08u
 598:Generated_Source\PSoC5/Rx_Timer.c ****     #define Rx_Timer__B_TIMER__TM_EITHEREDGE 0x0Cu
 599:Generated_Source\PSoC5/Rx_Timer.c ****     #define Rx_Timer__B_TIMER__TM_SOFTWARE 0x10u
ARM GAS  C:\Users\scott\AppData\Local\Temp\cc9ws4ON.s 			page 18


 600:Generated_Source\PSoC5/Rx_Timer.c **** *
 601:Generated_Source\PSoC5/Rx_Timer.c **** * Return:
 602:Generated_Source\PSoC5/Rx_Timer.c **** *  void
 603:Generated_Source\PSoC5/Rx_Timer.c **** *
 604:Generated_Source\PSoC5/Rx_Timer.c **** *******************************************************************************/
 605:Generated_Source\PSoC5/Rx_Timer.c **** void Rx_Timer_SetTriggerMode(uint8 triggerMode) 
 606:Generated_Source\PSoC5/Rx_Timer.c **** {
 607:Generated_Source\PSoC5/Rx_Timer.c ****     /* This must only set to two bits of the control register associated */
 608:Generated_Source\PSoC5/Rx_Timer.c ****     triggerMode &= Rx_Timer_CTRL_TRIG_MODE_MASK;
 609:Generated_Source\PSoC5/Rx_Timer.c **** 
 610:Generated_Source\PSoC5/Rx_Timer.c ****     #if (!Rx_Timer_UDB_CONTROL_REG_REMOVED)   /* Remove assignment if control register is removed *
 611:Generated_Source\PSoC5/Rx_Timer.c ****     
 612:Generated_Source\PSoC5/Rx_Timer.c ****         /* Clear the Current Setting */
 613:Generated_Source\PSoC5/Rx_Timer.c ****         Rx_Timer_CONTROL &= ((uint8)(~Rx_Timer_CTRL_TRIG_MODE_MASK));
 614:Generated_Source\PSoC5/Rx_Timer.c **** 
 615:Generated_Source\PSoC5/Rx_Timer.c ****         /* Write The New Setting */
 616:Generated_Source\PSoC5/Rx_Timer.c ****         Rx_Timer_CONTROL |= (triggerMode | Rx_Timer__B_TIMER__TM_SOFTWARE);
 617:Generated_Source\PSoC5/Rx_Timer.c ****     #endif /* Remove code section if control register is not used */
 618:Generated_Source\PSoC5/Rx_Timer.c **** }
 619:Generated_Source\PSoC5/Rx_Timer.c **** #endif /* Remove API if Trigger Mode is not Software Controlled */
 620:Generated_Source\PSoC5/Rx_Timer.c **** 
 621:Generated_Source\PSoC5/Rx_Timer.c **** #if (Rx_Timer_EnableTriggerMode)
 622:Generated_Source\PSoC5/Rx_Timer.c **** 
 623:Generated_Source\PSoC5/Rx_Timer.c **** 
 624:Generated_Source\PSoC5/Rx_Timer.c **** /*******************************************************************************
 625:Generated_Source\PSoC5/Rx_Timer.c **** * Function Name: Rx_Timer_EnableTrigger
 626:Generated_Source\PSoC5/Rx_Timer.c **** ********************************************************************************
 627:Generated_Source\PSoC5/Rx_Timer.c **** *
 628:Generated_Source\PSoC5/Rx_Timer.c **** * Summary:
 629:Generated_Source\PSoC5/Rx_Timer.c **** *  Sets the control bit enabling Hardware Trigger mode
 630:Generated_Source\PSoC5/Rx_Timer.c **** *
 631:Generated_Source\PSoC5/Rx_Timer.c **** * Parameters:
 632:Generated_Source\PSoC5/Rx_Timer.c **** *  void
 633:Generated_Source\PSoC5/Rx_Timer.c **** *
 634:Generated_Source\PSoC5/Rx_Timer.c **** * Return:
 635:Generated_Source\PSoC5/Rx_Timer.c **** *  void
 636:Generated_Source\PSoC5/Rx_Timer.c **** *
 637:Generated_Source\PSoC5/Rx_Timer.c **** *******************************************************************************/
 638:Generated_Source\PSoC5/Rx_Timer.c **** void Rx_Timer_EnableTrigger(void) 
 639:Generated_Source\PSoC5/Rx_Timer.c **** {
 640:Generated_Source\PSoC5/Rx_Timer.c ****     #if (!Rx_Timer_UDB_CONTROL_REG_REMOVED)   /* Remove assignment if control register is removed *
 641:Generated_Source\PSoC5/Rx_Timer.c ****         Rx_Timer_CONTROL |= Rx_Timer_CTRL_TRIG_EN;
 642:Generated_Source\PSoC5/Rx_Timer.c ****     #endif /* Remove code section if control register is not used */
 643:Generated_Source\PSoC5/Rx_Timer.c **** }
 644:Generated_Source\PSoC5/Rx_Timer.c **** 
 645:Generated_Source\PSoC5/Rx_Timer.c **** 
 646:Generated_Source\PSoC5/Rx_Timer.c **** /*******************************************************************************
 647:Generated_Source\PSoC5/Rx_Timer.c **** * Function Name: Rx_Timer_DisableTrigger
 648:Generated_Source\PSoC5/Rx_Timer.c **** ********************************************************************************
 649:Generated_Source\PSoC5/Rx_Timer.c **** *
 650:Generated_Source\PSoC5/Rx_Timer.c **** * Summary:
 651:Generated_Source\PSoC5/Rx_Timer.c **** *  Clears the control bit enabling Hardware Trigger mode
 652:Generated_Source\PSoC5/Rx_Timer.c **** *
 653:Generated_Source\PSoC5/Rx_Timer.c **** * Parameters:
 654:Generated_Source\PSoC5/Rx_Timer.c **** *  void
 655:Generated_Source\PSoC5/Rx_Timer.c **** *
 656:Generated_Source\PSoC5/Rx_Timer.c **** * Return:
ARM GAS  C:\Users\scott\AppData\Local\Temp\cc9ws4ON.s 			page 19


 657:Generated_Source\PSoC5/Rx_Timer.c **** *  void
 658:Generated_Source\PSoC5/Rx_Timer.c **** *
 659:Generated_Source\PSoC5/Rx_Timer.c **** *******************************************************************************/
 660:Generated_Source\PSoC5/Rx_Timer.c **** void Rx_Timer_DisableTrigger(void) 
 661:Generated_Source\PSoC5/Rx_Timer.c **** {
 662:Generated_Source\PSoC5/Rx_Timer.c ****     #if (!Rx_Timer_UDB_CONTROL_REG_REMOVED )   /* Remove assignment if control register is removed 
 663:Generated_Source\PSoC5/Rx_Timer.c ****         Rx_Timer_CONTROL &= ((uint8)(~Rx_Timer_CTRL_TRIG_EN));
 664:Generated_Source\PSoC5/Rx_Timer.c ****     #endif /* Remove code section if control register is not used */
 665:Generated_Source\PSoC5/Rx_Timer.c **** }
 666:Generated_Source\PSoC5/Rx_Timer.c **** #endif /* Remove API is Trigger Mode is set to None */
 667:Generated_Source\PSoC5/Rx_Timer.c **** 
 668:Generated_Source\PSoC5/Rx_Timer.c **** #if(Rx_Timer_InterruptOnCaptureCount)
 669:Generated_Source\PSoC5/Rx_Timer.c **** 
 670:Generated_Source\PSoC5/Rx_Timer.c **** 
 671:Generated_Source\PSoC5/Rx_Timer.c **** /*******************************************************************************
 672:Generated_Source\PSoC5/Rx_Timer.c **** * Function Name: Rx_Timer_SetInterruptCount
 673:Generated_Source\PSoC5/Rx_Timer.c **** ********************************************************************************
 674:Generated_Source\PSoC5/Rx_Timer.c **** *
 675:Generated_Source\PSoC5/Rx_Timer.c **** * Summary:
 676:Generated_Source\PSoC5/Rx_Timer.c **** *  This function sets the capture count before an interrupt is triggered.
 677:Generated_Source\PSoC5/Rx_Timer.c **** *
 678:Generated_Source\PSoC5/Rx_Timer.c **** * Parameters:
 679:Generated_Source\PSoC5/Rx_Timer.c **** *  interruptCount:  A value between 0 and 3 is valid.  If the value is 0, then
 680:Generated_Source\PSoC5/Rx_Timer.c **** *                   an interrupt will occur each time a capture occurs.
 681:Generated_Source\PSoC5/Rx_Timer.c **** *                   A value of 1 to 3 will cause the interrupt
 682:Generated_Source\PSoC5/Rx_Timer.c **** *                   to delay by the same number of captures.
 683:Generated_Source\PSoC5/Rx_Timer.c **** *
 684:Generated_Source\PSoC5/Rx_Timer.c **** * Return:
 685:Generated_Source\PSoC5/Rx_Timer.c **** *  void
 686:Generated_Source\PSoC5/Rx_Timer.c **** *
 687:Generated_Source\PSoC5/Rx_Timer.c **** *******************************************************************************/
 688:Generated_Source\PSoC5/Rx_Timer.c **** void Rx_Timer_SetInterruptCount(uint8 interruptCount) 
 689:Generated_Source\PSoC5/Rx_Timer.c **** {
 690:Generated_Source\PSoC5/Rx_Timer.c ****     /* This must only set to two bits of the control register associated */
 691:Generated_Source\PSoC5/Rx_Timer.c ****     interruptCount &= Rx_Timer_CTRL_INTCNT_MASK;
 692:Generated_Source\PSoC5/Rx_Timer.c **** 
 693:Generated_Source\PSoC5/Rx_Timer.c ****     #if (!Rx_Timer_UDB_CONTROL_REG_REMOVED)
 694:Generated_Source\PSoC5/Rx_Timer.c ****         /* Clear the Current Setting */
 695:Generated_Source\PSoC5/Rx_Timer.c ****         Rx_Timer_CONTROL &= ((uint8)(~Rx_Timer_CTRL_INTCNT_MASK));
 696:Generated_Source\PSoC5/Rx_Timer.c ****         /* Write The New Setting */
 697:Generated_Source\PSoC5/Rx_Timer.c ****         Rx_Timer_CONTROL |= interruptCount;
 698:Generated_Source\PSoC5/Rx_Timer.c ****     #endif /* (!Rx_Timer_UDB_CONTROL_REG_REMOVED) */
 699:Generated_Source\PSoC5/Rx_Timer.c **** }
 700:Generated_Source\PSoC5/Rx_Timer.c **** #endif /* Rx_Timer_InterruptOnCaptureCount */
 701:Generated_Source\PSoC5/Rx_Timer.c **** 
 702:Generated_Source\PSoC5/Rx_Timer.c **** 
 703:Generated_Source\PSoC5/Rx_Timer.c **** #if (Rx_Timer_UsingHWCaptureCounter)
 704:Generated_Source\PSoC5/Rx_Timer.c **** 
 705:Generated_Source\PSoC5/Rx_Timer.c **** 
 706:Generated_Source\PSoC5/Rx_Timer.c **** /*******************************************************************************
 707:Generated_Source\PSoC5/Rx_Timer.c **** * Function Name: Rx_Timer_SetCaptureCount
 708:Generated_Source\PSoC5/Rx_Timer.c **** ********************************************************************************
 709:Generated_Source\PSoC5/Rx_Timer.c **** *
 710:Generated_Source\PSoC5/Rx_Timer.c **** * Summary:
 711:Generated_Source\PSoC5/Rx_Timer.c **** *  This function sets the capture count
 712:Generated_Source\PSoC5/Rx_Timer.c **** *
 713:Generated_Source\PSoC5/Rx_Timer.c **** * Parameters:
ARM GAS  C:\Users\scott\AppData\Local\Temp\cc9ws4ON.s 			page 20


 714:Generated_Source\PSoC5/Rx_Timer.c **** *  captureCount: A value between 2 and 127 inclusive is valid.  A value of 1
 715:Generated_Source\PSoC5/Rx_Timer.c **** *                to 127 will cause the interrupt to delay by the same number of
 716:Generated_Source\PSoC5/Rx_Timer.c **** *                captures.
 717:Generated_Source\PSoC5/Rx_Timer.c **** *
 718:Generated_Source\PSoC5/Rx_Timer.c **** * Return:
 719:Generated_Source\PSoC5/Rx_Timer.c **** *  void
 720:Generated_Source\PSoC5/Rx_Timer.c **** *
 721:Generated_Source\PSoC5/Rx_Timer.c **** *******************************************************************************/
 722:Generated_Source\PSoC5/Rx_Timer.c **** void Rx_Timer_SetCaptureCount(uint8 captureCount) 
 723:Generated_Source\PSoC5/Rx_Timer.c **** {
 724:Generated_Source\PSoC5/Rx_Timer.c ****     Rx_Timer_CAP_COUNT = captureCount;
 725:Generated_Source\PSoC5/Rx_Timer.c **** }
 726:Generated_Source\PSoC5/Rx_Timer.c **** 
 727:Generated_Source\PSoC5/Rx_Timer.c **** 
 728:Generated_Source\PSoC5/Rx_Timer.c **** /*******************************************************************************
 729:Generated_Source\PSoC5/Rx_Timer.c **** * Function Name: Rx_Timer_ReadCaptureCount
 730:Generated_Source\PSoC5/Rx_Timer.c **** ********************************************************************************
 731:Generated_Source\PSoC5/Rx_Timer.c **** *
 732:Generated_Source\PSoC5/Rx_Timer.c **** * Summary:
 733:Generated_Source\PSoC5/Rx_Timer.c **** *  This function reads the capture count setting
 734:Generated_Source\PSoC5/Rx_Timer.c **** *
 735:Generated_Source\PSoC5/Rx_Timer.c **** * Parameters:
 736:Generated_Source\PSoC5/Rx_Timer.c **** *  void
 737:Generated_Source\PSoC5/Rx_Timer.c **** *
 738:Generated_Source\PSoC5/Rx_Timer.c **** * Return:
 739:Generated_Source\PSoC5/Rx_Timer.c **** *  Returns the Capture Count Setting
 740:Generated_Source\PSoC5/Rx_Timer.c **** *
 741:Generated_Source\PSoC5/Rx_Timer.c **** *******************************************************************************/
 742:Generated_Source\PSoC5/Rx_Timer.c **** uint8 Rx_Timer_ReadCaptureCount(void) 
 743:Generated_Source\PSoC5/Rx_Timer.c **** {
 744:Generated_Source\PSoC5/Rx_Timer.c ****     return ((uint8)Rx_Timer_CAP_COUNT);
 745:Generated_Source\PSoC5/Rx_Timer.c **** }
 746:Generated_Source\PSoC5/Rx_Timer.c **** #endif /* Rx_Timer_UsingHWCaptureCounter */
 747:Generated_Source\PSoC5/Rx_Timer.c **** 
 748:Generated_Source\PSoC5/Rx_Timer.c **** 
 749:Generated_Source\PSoC5/Rx_Timer.c **** /*******************************************************************************
 750:Generated_Source\PSoC5/Rx_Timer.c **** * Function Name: Rx_Timer_ClearFIFO
 751:Generated_Source\PSoC5/Rx_Timer.c **** ********************************************************************************
 752:Generated_Source\PSoC5/Rx_Timer.c **** *
 753:Generated_Source\PSoC5/Rx_Timer.c **** * Summary:
 754:Generated_Source\PSoC5/Rx_Timer.c **** *  This function clears all capture data from the capture FIFO
 755:Generated_Source\PSoC5/Rx_Timer.c **** *
 756:Generated_Source\PSoC5/Rx_Timer.c **** * Parameters:
 757:Generated_Source\PSoC5/Rx_Timer.c **** *  void
 758:Generated_Source\PSoC5/Rx_Timer.c **** *
 759:Generated_Source\PSoC5/Rx_Timer.c **** * Return:
 760:Generated_Source\PSoC5/Rx_Timer.c **** *  void
 761:Generated_Source\PSoC5/Rx_Timer.c **** *
 762:Generated_Source\PSoC5/Rx_Timer.c **** *******************************************************************************/
 763:Generated_Source\PSoC5/Rx_Timer.c **** void Rx_Timer_ClearFIFO(void) 
 764:Generated_Source\PSoC5/Rx_Timer.c **** {
 371              		.loc 1 764 0
 372              		.cfi_startproc
 373              		@ args = 0, pretend = 0, frame = 0
 374              		@ frame_needed = 0, uses_anonymous_args = 0
 375 0000 08B5     		push	{r3, lr}
 376              		.cfi_def_cfa_offset 8
ARM GAS  C:\Users\scott\AppData\Local\Temp\cc9ws4ON.s 			page 21


 377              		.cfi_offset 3, -8
 378              		.cfi_offset 14, -4
 765:Generated_Source\PSoC5/Rx_Timer.c ****     while(0u != (Rx_Timer_ReadStatusRegister() & Rx_Timer_STATUS_FIFONEMP))
 379              		.loc 1 765 0
 380 0002 01E0     		b	.L41
 381              	.L42:
 766:Generated_Source\PSoC5/Rx_Timer.c ****     {
 767:Generated_Source\PSoC5/Rx_Timer.c ****         (void)Rx_Timer_ReadCapture();
 382              		.loc 1 767 0
 383 0004 FFF7FEFF 		bl	Rx_Timer_ReadCapture
 384              	.LVL8:
 385              	.L41:
 765:Generated_Source\PSoC5/Rx_Timer.c ****     while(0u != (Rx_Timer_ReadStatusRegister() & Rx_Timer_STATUS_FIFONEMP))
 386              		.loc 1 765 0
 387 0008 FFF7FEFF 		bl	Rx_Timer_ReadStatusRegister
 388              	.LVL9:
 389 000c 10F0080F 		tst	r0, #8
 390 0010 F8D1     		bne	.L42
 768:Generated_Source\PSoC5/Rx_Timer.c ****     }
 769:Generated_Source\PSoC5/Rx_Timer.c **** }
 391              		.loc 1 769 0
 392 0012 08BD     		pop	{r3, pc}
 393              		.cfi_endproc
 394              	.LFE15:
 395              		.size	Rx_Timer_ClearFIFO, .-Rx_Timer_ClearFIFO
 396              		.section	.text.Rx_Timer_Init,"ax",%progbits
 397              		.align	2
 398              		.global	Rx_Timer_Init
 399              		.thumb
 400              		.thumb_func
 401              		.type	Rx_Timer_Init, %function
 402              	Rx_Timer_Init:
 403              	.LFB0:
  44:Generated_Source\PSoC5/Rx_Timer.c ****     #if(!Rx_Timer_UsingFixedFunction)
 404              		.loc 1 44 0
 405              		.cfi_startproc
 406              		@ args = 0, pretend = 0, frame = 0
 407              		@ frame_needed = 0, uses_anonymous_args = 0
 408 0000 10B5     		push	{r4, lr}
 409              		.cfi_def_cfa_offset 8
 410              		.cfi_offset 4, -8
 411              		.cfi_offset 14, -4
 118:Generated_Source\PSoC5/Rx_Timer.c ****     Rx_Timer_WriteCounter(Rx_Timer_INIT_PERIOD);
 412              		.loc 1 118 0
 413 0002 0C4C     		ldr	r4, .L46
 414 0004 2046     		mov	r0, r4
 415 0006 FFF7FEFF 		bl	Rx_Timer_WritePeriod
 416              	.LVL10:
 119:Generated_Source\PSoC5/Rx_Timer.c **** 
 417              		.loc 1 119 0
 418 000a 2046     		mov	r0, r4
 419 000c FFF7FEFF 		bl	Rx_Timer_WriteCounter
 420              	.LVL11:
 128:Generated_Source\PSoC5/Rx_Timer.c ****         #endif /* Set Capture Mode for UDB implementation if capture mode is software controlled */
 421              		.loc 1 128 0
 422 0010 8020     		movs	r0, #128
 423 0012 FFF7FEFF 		bl	Rx_Timer_SetCaptureMode
ARM GAS  C:\Users\scott\AppData\Local\Temp\cc9ws4ON.s 			page 22


 424              	.LVL12:
 142:Generated_Source\PSoC5/Rx_Timer.c **** 
 425              		.loc 1 142 0
 426 0016 FFF7FEFF 		bl	CyEnterCriticalSection
 427              	.LVL13:
 145:Generated_Source\PSoC5/Rx_Timer.c **** 
 428              		.loc 1 145 0
 429 001a 074A     		ldr	r2, .L46+4
 430 001c 1378     		ldrb	r3, [r2]	@ zero_extendqisi2
 431 001e 43F01003 		orr	r3, r3, #16
 432 0022 1370     		strb	r3, [r2]
 148:Generated_Source\PSoC5/Rx_Timer.c **** 
 433              		.loc 1 148 0
 434 0024 FFF7FEFF 		bl	CyExitCriticalSection
 435              	.LVL14:
 159:Generated_Source\PSoC5/Rx_Timer.c ****     #endif /* Configure additional features of UDB implementation */
 436              		.loc 1 159 0
 437 0028 FFF7FEFF 		bl	Rx_Timer_ClearFIFO
 438              	.LVL15:
 162:Generated_Source\PSoC5/Rx_Timer.c **** }
 439              		.loc 1 162 0
 440 002c 0120     		movs	r0, #1
 441 002e FFF7FEFF 		bl	Rx_Timer_SetInterruptMode
 442              	.LVL16:
 443 0032 10BD     		pop	{r4, pc}
 444              	.L47:
 445              		.align	2
 446              	.L46:
 447 0034 FF760100 		.word	95999
 448 0038 9A640040 		.word	1073767578
 449              		.cfi_endproc
 450              	.LFE0:
 451              		.size	Rx_Timer_Init, .-Rx_Timer_Init
 452              		.section	.text.Rx_Timer_Start,"ax",%progbits
 453              		.align	2
 454              		.global	Rx_Timer_Start
 455              		.thumb
 456              		.thumb_func
 457              		.type	Rx_Timer_Start, %function
 458              	Rx_Timer_Start:
 459              	.LFB2:
 216:Generated_Source\PSoC5/Rx_Timer.c ****     if(Rx_Timer_initVar == 0u)
 460              		.loc 1 216 0
 461              		.cfi_startproc
 462              		@ args = 0, pretend = 0, frame = 0
 463              		@ frame_needed = 0, uses_anonymous_args = 0
 464 0000 08B5     		push	{r3, lr}
 465              		.cfi_def_cfa_offset 8
 466              		.cfi_offset 3, -8
 467              		.cfi_offset 14, -4
 217:Generated_Source\PSoC5/Rx_Timer.c ****     {
 468              		.loc 1 217 0
 469 0002 054B     		ldr	r3, .L51
 470 0004 1B78     		ldrb	r3, [r3]	@ zero_extendqisi2
 471 0006 23B9     		cbnz	r3, .L49
 219:Generated_Source\PSoC5/Rx_Timer.c **** 
 472              		.loc 1 219 0
ARM GAS  C:\Users\scott\AppData\Local\Temp\cc9ws4ON.s 			page 23


 473 0008 FFF7FEFF 		bl	Rx_Timer_Init
 474              	.LVL17:
 221:Generated_Source\PSoC5/Rx_Timer.c ****     }
 475              		.loc 1 221 0
 476 000c 0122     		movs	r2, #1
 477 000e 024B     		ldr	r3, .L51
 478 0010 1A70     		strb	r2, [r3]
 479              	.L49:
 225:Generated_Source\PSoC5/Rx_Timer.c **** }
 480              		.loc 1 225 0
 481 0012 FFF7FEFF 		bl	Rx_Timer_Enable
 482              	.LVL18:
 483 0016 08BD     		pop	{r3, pc}
 484              	.L52:
 485              		.align	2
 486              	.L51:
 487 0018 00000000 		.word	.LANCHOR0
 488              		.cfi_endproc
 489              	.LFE2:
 490              		.size	Rx_Timer_Start, .-Rx_Timer_Start
 491              		.global	Rx_Timer_initVar
 492              		.bss
 493              		.set	.LANCHOR0,. + 0
 494              		.type	Rx_Timer_initVar, %object
 495              		.size	Rx_Timer_initVar, 1
 496              	Rx_Timer_initVar:
 497 0000 00       		.space	1
 498              		.text
 499              	.Letext0:
 500              		.file 2 "Generated_Source\\PSoC5\\cytypes.h"
 501              		.file 3 "Generated_Source\\PSoC5\\CyLib.h"